C000  43 4F    *SRE ($4F,X) @ 4F = 0000 = 00    A:00 X:00 Y:00 P:24 SP:FD
beforeNMI = 0 and afterNMI = 0
C002  50 59     BVC $C05D                       A:00 X:00 Y:00 P:26 SP:FD
beforeNMI = 0 and afterNMI = 0
C05D  D0 F5     BNE $C054                       A:00 X:00 Y:00 P:26 SP:FD
beforeNMI = 0 and afterNMI = 0
C05F  A9 06     LDA #$06                        A:00 X:00 Y:00 P:26 SP:FD
beforeNMI = 0 and afterNMI = 0
Reading from write only PPU memory at 2001
C061  8D 01 20  STA $2001 = 00                  A:06 X:00 Y:00 P:24 SP:FD
beforeNMI = 0 and afterNMI = 0
C064  A9 00     LDA #$00                        A:06 X:00 Y:00 P:24 SP:FD
beforeNMI = 0 and afterNMI = 0
C066  8D 05 20  STA $2005 = 05                  A:00 X:00 Y:00 P:26 SP:FD
beforeNMI = 0 and afterNMI = 0
C069  8D 05 20  STA $2005 = 05                  A:00 X:00 Y:00 P:26 SP:FD
beforeNMI = 0 and afterNMI = 0
C06C  85 41     STA $41 = 00                    A:00 X:00 Y:00 P:26 SP:FD
beforeNMI = 0 and afterNMI = 0
C06E  85 42     STA $42 = 00                    A:00 X:00 Y:00 P:26 SP:FD
beforeNMI = 0 and afterNMI = 0
Reading from write only PPU memory at 2000
C070  8D 00 20  STA $2000 = 00                  A:00 X:00 Y:00 P:26 SP:FD
beforeNMI = 0 and afterNMI = 0
Reading from write only PPU memory at 2001
C073  8D 01 20  STA $2001 = 00                  A:00 X:00 Y:00 P:26 SP:FD
beforeNMI = 0 and afterNMI = 0
C076  A8        TAY                             A:00 X:00 Y:00 P:26 SP:FD
beforeNMI = 0 and afterNMI = 0
C077  B9 EB C0  LDA $C0EB,Y @ C0EB = 48         A:00 X:00 Y:00 P:26 SP:FD
beforeNMI = 0 and afterNMI = 0
C07A  D9 52 00  CMP $0052,Y @ 0052 = 00         A:48 X:00 Y:00 P:24 SP:FD
beforeNMI = 0 and afterNMI = 0
C07D  D0 07     BNE $C086                       A:48 X:00 Y:00 P:25 SP:FD
beforeNMI = 0 and afterNMI = 0
C086  A9 00     LDA #$00                        A:48 X:00 Y:00 P:25 SP:FD
beforeNMI = 0 and afterNMI = 0
C088  A8        TAY                             A:00 X:00 Y:00 P:27 SP:FD
beforeNMI = 0 and afterNMI = 0
C089  99 00 00  STA $0000,Y @ 0000 = 00         A:00 X:00 Y:00 P:27 SP:FD
beforeNMI = 0 and afterNMI = 0
C08C  C8        INY                             A:00 X:00 Y:00 P:27 SP:FD
beforeNMI = 0 and afterNMI = 0
C08D  D0 FA     BNE $C089                       A:00 X:00 Y:01 P:25 SP:FD
beforeNMI = 0 and afterNMI = 0
C089  99 00 00  STA $0000,Y @ 0001 = 00         A:00 X:00 Y:01 P:25 SP:FD
beforeNMI = 0 and afterNMI = 0
C08C  C8        INY                             A:00 X:00 Y:01 P:25 SP:FD
beforeNMI = 0 and afterNMI = 0
C08D  D0 FA     BNE $C089                       A:00 X:00 Y:02 P:25 SP:FD
beforeNMI = 0 and afterNMI = 0
C089  99 00 00  STA $0000,Y @ 0002 = 00         A:00 X:00 Y:02 P:25 SP:FD
beforeNMI = 0 and afterNMI = 0
C08C  C8        INY                             A:00 X:00 Y:02 P:25 SP:FD
beforeNMI = 0 and afterNMI = 0
C08D  D0 FA     BNE $C089                       A:00 X:00 Y:03 P:25 SP:FD
beforeNMI = 0 and afterNMI = 0
C089  99 00 00  STA $0000,Y @ 0003 = 00         A:00 X:00 Y:03 P:25 SP:FD
beforeNMI = 0 and afterNMI = 0
C08C  C8        INY                             A:00 X:00 Y:03 P:25 SP:FD
beforeNMI = 0 and afterNMI = 0
C08D  D0 FA     BNE $C089                       A:00 X:00 Y:04 P:25 SP:FD
beforeNMI = 0 and afterNMI = 0
C089  99 00 00  STA $0000,Y @ 0004 = 00         A:00 X:00 Y:04 P:25 SP:FD
beforeNMI = 0 and afterNMI = 0
C08C  C8        INY                             A:00 X:00 Y:04 P:25 SP:FD
beforeNMI = 0 and afterNMI = 0
C08D  D0 FA     BNE $C089                       A:00 X:00 Y:05 P:25 SP:FD
beforeNMI = 0 and afterNMI = 0
C089  99 00 00  STA $0000,Y @ 0005 = 00         A:00 X:00 Y:05 P:25 SP:FD
beforeNMI = 0 and afterNMI = 0
C08C  C8        INY                             A:00 X:00 Y:05 P:25 SP:FD
beforeNMI = 0 and afterNMI = 0
C08D  D0 FA     BNE $C089                       A:00 X:00 Y:06 P:25 SP:FD
beforeNMI = 0 and afterNMI = 0
C089  99 00 00  STA $0000,Y @ 0006 = 00         A:00 X:00 Y:06 P:25 SP:FD
beforeNMI = 0 and afterNMI = 0
C08C  C8        INY                             A:00 X:00 Y:06 P:25 SP:FD
beforeNMI = 0 and afterNMI = 0
C08D  D0 FA     BNE $C089                       A:00 X:00 Y:07 P:25 SP:FD
beforeNMI = 0 and afterNMI = 0
C089  99 00 00  STA $0000,Y @ 0007 = 00         A:00 X:00 Y:07 P:25 SP:FD
beforeNMI = 0 and afterNMI = 0
C08C  C8        INY                             A:00 X:00 Y:07 P:25 SP:FD
beforeNMI = 0 and afterNMI = 0
C08D  D0 FA     BNE $C089                       A:00 X:00 Y:08 P:25 SP:FD
beforeNMI = 0 and afterNMI = 0
C089  99 00 00  STA $0000,Y @ 0008 = 00         A:00 X:00 Y:08 P:25 SP:FD
beforeNMI = 0 and afterNMI = 0
C08C  C8        INY                             A:00 X:00 Y:08 P:25 SP:FD
beforeNMI = 0 and afterNMI = 0
C08D  D0 FA     BNE $C089                       A:00 X:00 Y:09 P:25 SP:FD
beforeNMI = 0 and afterNMI = 0
C089  99 00 00  STA $0000,Y @ 0009 = 00         A:00 X:00 Y:09 P:25 SP:FD
beforeNMI = 0 and afterNMI = 0
C08C  C8        INY                             A:00 X:00 Y:09 P:25 SP:FD
beforeNMI = 0 and afterNMI = 0
C08D  D0 FA     BNE $C089                       A:00 X:00 Y:0A P:25 SP:FD
beforeNMI = 0 and afterNMI = 0
C089  99 00 00  STA $0000,Y @ 000A = 00         A:00 X:00 Y:0A P:25 SP:FD
beforeNMI = 0 and afterNMI = 0
C08C  C8        INY                             A:00 X:00 Y:0A P:25 SP:FD
beforeNMI = 0 and afterNMI = 0
C08D  D0 FA     BNE $C089                       A:00 X:00 Y:0B P:25 SP:FD
beforeNMI = 0 and afterNMI = 0
C089  99 00 00  STA $0000,Y @ 000B = 00         A:00 X:00 Y:0B P:25 SP:FD
beforeNMI = 0 and afterNMI = 0
C08C  C8        INY                             A:00 X:00 Y:0B P:25 SP:FD
beforeNMI = 0 and afterNMI = 0
C08D  D0 FA     BNE $C089                       A:00 X:00 Y:0C P:25 SP:FD
beforeNMI = 0 and afterNMI = 0
C089  99 00 00  STA $0000,Y @ 000C = 00         A:00 X:00 Y:0C P:25 SP:FD
beforeNMI = 0 and afterNMI = 0
C08C  C8        INY                             A:00 X:00 Y:0C P:25 SP:FD
beforeNMI = 0 and afterNMI = 0
C08D  D0 FA     BNE $C089                       A:00 X:00 Y:0D P:25 SP:FD
beforeNMI = 0 and afterNMI = 0
C089  99 00 00  STA $0000,Y @ 000D = 00         A:00 X:00 Y:0D P:25 SP:FD
beforeNMI = 0 and afterNMI = 0
C08C  C8        INY                             A:00 X:00 Y:0D P:25 SP:FD
beforeNMI = 0 and afterNMI = 0
C08D  D0 FA     BNE $C089                       A:00 X:00 Y:0E P:25 SP:FD
beforeNMI = 0 and afterNMI = 0
C089  99 00 00  STA $0000,Y @ 000E = 00         A:00 X:00 Y:0E P:25 SP:FD
beforeNMI = 0 and afterNMI = 0
C08C  C8        INY                             A:00 X:00 Y:0E P:25 SP:FD
beforeNMI = 0 and afterNMI = 0
C08D  D0 FA     BNE $C089                       A:00 X:00 Y:0F P:25 SP:FD
beforeNMI = 0 and afterNMI = 0
C089  99 00 00  STA $0000,Y @ 000F = 00         A:00 X:00 Y:0F P:25 SP:FD
beforeNMI = 0 and afterNMI = 0
C08C  C8        INY                             A:00 X:00 Y:0F P:25 SP:FD
beforeNMI = 0 and afterNMI = 0
C08D  D0 FA     BNE $C089                       A:00 X:00 Y:10 P:25 SP:FD
beforeNMI = 0 and afterNMI = 0
C089  99 00 00  STA $0000,Y @ 0010 = 00         A:00 X:00 Y:10 P:25 SP:FD
beforeNMI = 0 and afterNMI = 0
C08C  C8        INY                             A:00 X:00 Y:10 P:25 SP:FD
beforeNMI = 0 and afterNMI = 0
C08D  D0 FA     BNE $C089                       A:00 X:00 Y:11 P:25 SP:FD
beforeNMI = 0 and afterNMI = 0
C089  99 00 00  STA $0000,Y @ 0011 = 00         A:00 X:00 Y:11 P:25 SP:FD
beforeNMI = 0 and afterNMI = 0
C08C  C8        INY                             A:00 X:00 Y:11 P:25 SP:FD
beforeNMI = 0 and afterNMI = 0
C08D  D0 FA     BNE $C089                       A:00 X:00 Y:12 P:25 SP:FD
beforeNMI = 0 and afterNMI = 0
C089  99 00 00  STA $0000,Y @ 0012 = 00         A:00 X:00 Y:12 P:25 SP:FD
beforeNMI = 0 and afterNMI = 0
C08C  C8        INY                             A:00 X:00 Y:12 P:25 SP:FD
beforeNMI = 0 and afterNMI = 0
C08D  D0 FA     BNE $C089                       A:00 X:00 Y:13 P:25 SP:FD
beforeNMI = 0 and afterNMI = 0
C089  99 00 00  STA $0000,Y @ 0013 = 00         A:00 X:00 Y:13 P:25 SP:FD
beforeNMI = 0 and afterNMI = 0
C08C  C8        INY                             A:00 X:00 Y:13 P:25 SP:FD
beforeNMI = 0 and afterNMI = 0
C08D  D0 FA     BNE $C089                       A:00 X:00 Y:14 P:25 SP:FD
beforeNMI = 0 and afterNMI = 0
C089  99 00 00  STA $0000,Y @ 0014 = 00         A:00 X:00 Y:14 P:25 SP:FD
beforeNMI = 0 and afterNMI = 0
C08C  C8        INY                             A:00 X:00 Y:14 P:25 SP:FD
beforeNMI = 0 and afterNMI = 0
C08D  D0 FA     BNE $C089                       A:00 X:00 Y:15 P:25 SP:FD
beforeNMI = 0 and afterNMI = 0
C089  99 00 00  STA $0000,Y @ 0015 = 00         A:00 X:00 Y:15 P:25 SP:FD
beforeNMI = 0 and afterNMI = 0
C08C  C8        INY                             A:00 X:00 Y:15 P:25 SP:FD
beforeNMI = 0 and afterNMI = 0
C08D  D0 FA     BNE $C089                       A:00 X:00 Y:16 P:25 SP:FD
beforeNMI = 0 and afterNMI = 0
C089  99 00 00  STA $0000,Y @ 0016 = 00         A:00 X:00 Y:16 P:25 SP:FD
beforeNMI = 0 and afterNMI = 0
C08C  C8        INY                             A:00 X:00 Y:16 P:25 SP:FD
beforeNMI = 0 and afterNMI = 0
C08D  D0 FA     BNE $C089                       A:00 X:00 Y:17 P:25 SP:FD
beforeNMI = 0 and afterNMI = 0
C089  99 00 00  STA $0000,Y @ 0017 = 00         A:00 X:00 Y:17 P:25 SP:FD
beforeNMI = 0 and afterNMI = 0
C08C  C8        INY                             A:00 X:00 Y:17 P:25 SP:FD
beforeNMI = 0 and afterNMI = 0
C08D  D0 FA     BNE $C089                       A:00 X:00 Y:18 P:25 SP:FD
beforeNMI = 0 and afterNMI = 0
C089  99 00 00  STA $0000,Y @ 0018 = 00         A:00 X:00 Y:18 P:25 SP:FD
beforeNMI = 0 and afterNMI = 0
C08C  C8        INY                             A:00 X:00 Y:18 P:25 SP:FD
beforeNMI = 0 and afterNMI = 0
C08D  D0 FA     BNE $C089                       A:00 X:00 Y:19 P:25 SP:FD
beforeNMI = 0 and afterNMI = 0
C089  99 00 00  STA $0000,Y @ 0019 = 00         A:00 X:00 Y:19 P:25 SP:FD
beforeNMI = 0 and afterNMI = 0
C08C  C8        INY                             A:00 X:00 Y:19 P:25 SP:FD
beforeNMI = 0 and afterNMI = 0
C08D  D0 FA     BNE $C089                       A:00 X:00 Y:1A P:25 SP:FD
beforeNMI = 0 and afterNMI = 0
C089  99 00 00  STA $0000,Y @ 001A = 00         A:00 X:00 Y:1A P:25 SP:FD
beforeNMI = 0 and afterNMI = 0
C08C  C8        INY                             A:00 X:00 Y:1A P:25 SP:FD
beforeNMI = 0 and afterNMI = 0
C08D  D0 FA     BNE $C089                       A:00 X:00 Y:1B P:25 SP:FD
beforeNMI = 0 and afterNMI = 0
C089  99 00 00  STA $0000,Y @ 001B = 00         A:00 X:00 Y:1B P:25 SP:FD
beforeNMI = 0 and afterNMI = 0
C08C  C8        INY                             A:00 X:00 Y:1B P:25 SP:FD
beforeNMI = 0 and afterNMI = 0
C08D  D0 FA     BNE $C089                       A:00 X:00 Y:1C P:25 SP:FD
beforeNMI = 0 and afterNMI = 0
C089  99 00 00  STA $0000,Y @ 001C = 00         A:00 X:00 Y:1C P:25 SP:FD
beforeNMI = 0 and afterNMI = 0
C08C  C8        INY                             A:00 X:00 Y:1C P:25 SP:FD
beforeNMI = 0 and afterNMI = 0
C08D  D0 FA     BNE $C089                       A:00 X:00 Y:1D P:25 SP:FD
beforeNMI = 0 and afterNMI = 0
C089  99 00 00  STA $0000,Y @ 001D = 00         A:00 X:00 Y:1D P:25 SP:FD
beforeNMI = 0 and afterNMI = 0
C08C  C8        INY                             A:00 X:00 Y:1D P:25 SP:FD
beforeNMI = 0 and afterNMI = 0
C08D  D0 FA     BNE $C089                       A:00 X:00 Y:1E P:25 SP:FD
beforeNMI = 0 and afterNMI = 0
C089  99 00 00  STA $0000,Y @ 001E = 00         A:00 X:00 Y:1E P:25 SP:FD
beforeNMI = 0 and afterNMI = 0
C08C  C8        INY                             A:00 X:00 Y:1E P:25 SP:FD
beforeNMI = 0 and afterNMI = 0
C08D  D0 FA     BNE $C089                       A:00 X:00 Y:1F P:25 SP:FD
beforeNMI = 0 and afterNMI = 0
C089  99 00 00  STA $0000,Y @ 001F = 00         A:00 X:00 Y:1F P:25 SP:FD
beforeNMI = 0 and afterNMI = 0
C08C  C8        INY                             A:00 X:00 Y:1F P:25 SP:FD
beforeNMI = 0 and afterNMI = 0
C08D  D0 FA     BNE $C089                       A:00 X:00 Y:20 P:25 SP:FD
beforeNMI = 0 and afterNMI = 0
C089  99 00 00  STA $0000,Y @ 0020 = 00         A:00 X:00 Y:20 P:25 SP:FD
beforeNMI = 0 and afterNMI = 0
C08C  C8        INY                             A:00 X:00 Y:20 P:25 SP:FD
beforeNMI = 0 and afterNMI = 0
C08D  D0 FA     BNE $C089                       A:00 X:00 Y:21 P:25 SP:FD
beforeNMI = 0 and afterNMI = 0
C089  99 00 00  STA $0000,Y @ 0021 = 00         A:00 X:00 Y:21 P:25 SP:FD
beforeNMI = 0 and afterNMI = 0
C08C  C8        INY                             A:00 X:00 Y:21 P:25 SP:FD
beforeNMI = 0 and afterNMI = 0
C08D  D0 FA     BNE $C089                       A:00 X:00 Y:22 P:25 SP:FD
beforeNMI = 0 and afterNMI = 0
C089  99 00 00  STA $0000,Y @ 0022 = 00         A:00 X:00 Y:22 P:25 SP:FD
beforeNMI = 0 and afterNMI = 0
C08C  C8        INY                             A:00 X:00 Y:22 P:25 SP:FD
beforeNMI = 0 and afterNMI = 0
C08D  D0 FA     BNE $C089                       A:00 X:00 Y:23 P:25 SP:FD
beforeNMI = 0 and afterNMI = 0
C089  99 00 00  STA $0000,Y @ 0023 = 00         A:00 X:00 Y:23 P:25 SP:FD
beforeNMI = 0 and afterNMI = 0
C08C  C8        INY                             A:00 X:00 Y:23 P:25 SP:FD
beforeNMI = 0 and afterNMI = 0
C08D  D0 FA     BNE $C089                       A:00 X:00 Y:24 P:25 SP:FD
beforeNMI = 0 and afterNMI = 0
C089  99 00 00  STA $0000,Y @ 0024 = 00         A:00 X:00 Y:24 P:25 SP:FD
beforeNMI = 0 and afterNMI = 0
C08C  C8        INY                             A:00 X:00 Y:24 P:25 SP:FD
beforeNMI = 0 and afterNMI = 0
C08D  D0 FA     BNE $C089                       A:00 X:00 Y:25 P:25 SP:FD
beforeNMI = 0 and afterNMI = 0
C089  99 00 00  STA $0000,Y @ 0025 = 00         A:00 X:00 Y:25 P:25 SP:FD
beforeNMI = 0 and afterNMI = 0
C08C  C8        INY                             A:00 X:00 Y:25 P:25 SP:FD
beforeNMI = 0 and afterNMI = 0
C08D  D0 FA     BNE $C089                       A:00 X:00 Y:26 P:25 SP:FD
beforeNMI = 0 and afterNMI = 0
C089  99 00 00  STA $0000,Y @ 0026 = 00         A:00 X:00 Y:26 P:25 SP:FD
beforeNMI = 0 and afterNMI = 0
C08C  C8        INY                             A:00 X:00 Y:26 P:25 SP:FD
beforeNMI = 0 and afterNMI = 0
C08D  D0 FA     BNE $C089                       A:00 X:00 Y:27 P:25 SP:FD
beforeNMI = 0 and afterNMI = 0
C089  99 00 00  STA $0000,Y @ 0027 = 00         A:00 X:00 Y:27 P:25 SP:FD
beforeNMI = 0 and afterNMI = 0
C08C  C8        INY                             A:00 X:00 Y:27 P:25 SP:FD
beforeNMI = 0 and afterNMI = 0
C08D  D0 FA     BNE $C089                       A:00 X:00 Y:28 P:25 SP:FD
beforeNMI = 0 and afterNMI = 0
C089  99 00 00  STA $0000,Y @ 0028 = 00         A:00 X:00 Y:28 P:25 SP:FD
beforeNMI = 0 and afterNMI = 0
C08C  C8        INY                             A:00 X:00 Y:28 P:25 SP:FD
beforeNMI = 0 and afterNMI = 0
C08D  D0 FA     BNE $C089                       A:00 X:00 Y:29 P:25 SP:FD
beforeNMI = 0 and afterNMI = 0
C089  99 00 00  STA $0000,Y @ 0029 = 00         A:00 X:00 Y:29 P:25 SP:FD
beforeNMI = 0 and afterNMI = 0
C08C  C8        INY                             A:00 X:00 Y:29 P:25 SP:FD
beforeNMI = 0 and afterNMI = 0
C08D  D0 FA     BNE $C089                       A:00 X:00 Y:2A P:25 SP:FD
beforeNMI = 0 and afterNMI = 0
C089  99 00 00  STA $0000,Y @ 002A = 00         A:00 X:00 Y:2A P:25 SP:FD
beforeNMI = 0 and afterNMI = 0
C08C  C8        INY                             A:00 X:00 Y:2A P:25 SP:FD
beforeNMI = 0 and afterNMI = 0
C08D  D0 FA     BNE $C089                       A:00 X:00 Y:2B P:25 SP:FD
beforeNMI = 0 and afterNMI = 0
C089  99 00 00  STA $0000,Y @ 002B = 00         A:00 X:00 Y:2B P:25 SP:FD
beforeNMI = 0 and afterNMI = 0
C08C  C8        INY                             A:00 X:00 Y:2B P:25 SP:FD
beforeNMI = 0 and afterNMI = 0
C08D  D0 FA     BNE $C089                       A:00 X:00 Y:2C P:25 SP:FD
beforeNMI = 0 and afterNMI = 0
C089  99 00 00  STA $0000,Y @ 002C = 00         A:00 X:00 Y:2C P:25 SP:FD
beforeNMI = 0 and afterNMI = 0
C08C  C8        INY                             A:00 X:00 Y:2C P:25 SP:FD
beforeNMI = 0 and afterNMI = 0
C08D  D0 FA     BNE $C089                       A:00 X:00 Y:2D P:25 SP:FD
beforeNMI = 0 and afterNMI = 0
C089  99 00 00  STA $0000,Y @ 002D = 00         A:00 X:00 Y:2D P:25 SP:FD
beforeNMI = 0 and afterNMI = 0
C08C  C8        INY                             A:00 X:00 Y:2D P:25 SP:FD
beforeNMI = 0 and afterNMI = 0
C08D  D0 FA     BNE $C089                       A:00 X:00 Y:2E P:25 SP:FD
beforeNMI = 0 and afterNMI = 0
C089  99 00 00  STA $0000,Y @ 002E = 00         A:00 X:00 Y:2E P:25 SP:FD
beforeNMI = 0 and afterNMI = 0
C08C  C8        INY                             A:00 X:00 Y:2E P:25 SP:FD
beforeNMI = 0 and afterNMI = 0
C08D  D0 FA     BNE $C089                       A:00 X:00 Y:2F P:25 SP:FD
beforeNMI = 0 and afterNMI = 0
C089  99 00 00  STA $0000,Y @ 002F = 00         A:00 X:00 Y:2F P:25 SP:FD
beforeNMI = 0 and afterNMI = 0
C08C  C8        INY                             A:00 X:00 Y:2F P:25 SP:FD
beforeNMI = 0 and afterNMI = 0
C08D  D0 FA     BNE $C089                       A:00 X:00 Y:30 P:25 SP:FD
beforeNMI = 0 and afterNMI = 0
C089  99 00 00  STA $0000,Y @ 0030 = 00         A:00 X:00 Y:30 P:25 SP:FD
beforeNMI = 0 and afterNMI = 0
C08C  C8        INY                             A:00 X:00 Y:30 P:25 SP:FD
beforeNMI = 0 and afterNMI = 0
C08D  D0 FA     BNE $C089                       A:00 X:00 Y:31 P:25 SP:FD
beforeNMI = 0 and afterNMI = 0
C089  99 00 00  STA $0000,Y @ 0031 = 00         A:00 X:00 Y:31 P:25 SP:FD
beforeNMI = 0 and afterNMI = 0
C08C  C8        INY                             A:00 X:00 Y:31 P:25 SP:FD
beforeNMI = 0 and afterNMI = 0
C08D  D0 FA     BNE $C089                       A:00 X:00 Y:32 P:25 SP:FD
beforeNMI = 0 and afterNMI = 0
C089  99 00 00  STA $0000,Y @ 0032 = 00         A:00 X:00 Y:32 P:25 SP:FD
beforeNMI = 0 and afterNMI = 0
C08C  C8        INY                             A:00 X:00 Y:32 P:25 SP:FD
beforeNMI = 0 and afterNMI = 0
C08D  D0 FA     BNE $C089                       A:00 X:00 Y:33 P:25 SP:FD
beforeNMI = 0 and afterNMI = 0
C089  99 00 00  STA $0000,Y @ 0033 = 00         A:00 X:00 Y:33 P:25 SP:FD
beforeNMI = 0 and afterNMI = 0
C08C  C8        INY                             A:00 X:00 Y:33 P:25 SP:FD
beforeNMI = 0 and afterNMI = 0
C08D  D0 FA     BNE $C089                       A:00 X:00 Y:34 P:25 SP:FD
beforeNMI = 0 and afterNMI = 0
C089  99 00 00  STA $0000,Y @ 0034 = 00         A:00 X:00 Y:34 P:25 SP:FD
beforeNMI = 0 and afterNMI = 0
C08C  C8        INY                             A:00 X:00 Y:34 P:25 SP:FD
beforeNMI = 0 and afterNMI = 0
C08D  D0 FA     BNE $C089                       A:00 X:00 Y:35 P:25 SP:FD
beforeNMI = 0 and afterNMI = 0
C089  99 00 00  STA $0000,Y @ 0035 = 00         A:00 X:00 Y:35 P:25 SP:FD
beforeNMI = 0 and afterNMI = 0
C08C  C8        INY                             A:00 X:00 Y:35 P:25 SP:FD
beforeNMI = 0 and afterNMI = 0
C08D  D0 FA     BNE $C089                       A:00 X:00 Y:36 P:25 SP:FD
beforeNMI = 0 and afterNMI = 0
C089  99 00 00  STA $0000,Y @ 0036 = 00         A:00 X:00 Y:36 P:25 SP:FD
beforeNMI = 0 and afterNMI = 0
C08C  C8        INY                             A:00 X:00 Y:36 P:25 SP:FD
beforeNMI = 0 and afterNMI = 0
C08D  D0 FA     BNE $C089                       A:00 X:00 Y:37 P:25 SP:FD
beforeNMI = 0 and afterNMI = 0
C089  99 00 00  STA $0000,Y @ 0037 = 00         A:00 X:00 Y:37 P:25 SP:FD
beforeNMI = 0 and afterNMI = 0
C08C  C8        INY                             A:00 X:00 Y:37 P:25 SP:FD
beforeNMI = 0 and afterNMI = 0
C08D  D0 FA     BNE $C089                       A:00 X:00 Y:38 P:25 SP:FD
beforeNMI = 0 and afterNMI = 0
C089  99 00 00  STA $0000,Y @ 0038 = 00         A:00 X:00 Y:38 P:25 SP:FD
beforeNMI = 0 and afterNMI = 0
C08C  C8        INY                             A:00 X:00 Y:38 P:25 SP:FD
beforeNMI = 0 and afterNMI = 0
C08D  D0 FA     BNE $C089                       A:00 X:00 Y:39 P:25 SP:FD
beforeNMI = 0 and afterNMI = 0
C089  99 00 00  STA $0000,Y @ 0039 = 00         A:00 X:00 Y:39 P:25 SP:FD
beforeNMI = 0 and afterNMI = 0
C08C  C8        INY                             A:00 X:00 Y:39 P:25 SP:FD
beforeNMI = 0 and afterNMI = 0
C08D  D0 FA     BNE $C089                       A:00 X:00 Y:3A P:25 SP:FD
beforeNMI = 0 and afterNMI = 0
C089  99 00 00  STA $0000,Y @ 003A = 00         A:00 X:00 Y:3A P:25 SP:FD
beforeNMI = 0 and afterNMI = 0
C08C  C8        INY                             A:00 X:00 Y:3A P:25 SP:FD
beforeNMI = 0 and afterNMI = 0
C08D  D0 FA     BNE $C089                       A:00 X:00 Y:3B P:25 SP:FD
beforeNMI = 0 and afterNMI = 0
C089  99 00 00  STA $0000,Y @ 003B = 00         A:00 X:00 Y:3B P:25 SP:FD
beforeNMI = 0 and afterNMI = 0
C08C  C8        INY                             A:00 X:00 Y:3B P:25 SP:FD
beforeNMI = 0 and afterNMI = 0
C08D  D0 FA     BNE $C089                       A:00 X:00 Y:3C P:25 SP:FD
beforeNMI = 0 and afterNMI = 0
C089  99 00 00  STA $0000,Y @ 003C = 00         A:00 X:00 Y:3C P:25 SP:FD
beforeNMI = 0 and afterNMI = 0
C08C  C8        INY                             A:00 X:00 Y:3C P:25 SP:FD
beforeNMI = 0 and afterNMI = 0
C08D  D0 FA     BNE $C089                       A:00 X:00 Y:3D P:25 SP:FD
beforeNMI = 0 and afterNMI = 0
C089  99 00 00  STA $0000,Y @ 003D = 00         A:00 X:00 Y:3D P:25 SP:FD
beforeNMI = 0 and afterNMI = 0
C08C  C8        INY                             A:00 X:00 Y:3D P:25 SP:FD
beforeNMI = 0 and afterNMI = 0
C08D  D0 FA     BNE $C089                       A:00 X:00 Y:3E P:25 SP:FD
beforeNMI = 0 and afterNMI = 0
C089  99 00 00  STA $0000,Y @ 003E = 00         A:00 X:00 Y:3E P:25 SP:FD
beforeNMI = 0 and afterNMI = 0
C08C  C8        INY                             A:00 X:00 Y:3E P:25 SP:FD
beforeNMI = 0 and afterNMI = 0
C08D  D0 FA     BNE $C089                       A:00 X:00 Y:3F P:25 SP:FD
beforeNMI = 0 and afterNMI = 0
C089  99 00 00  STA $0000,Y @ 003F = 00         A:00 X:00 Y:3F P:25 SP:FD
beforeNMI = 0 and afterNMI = 0
C08C  C8        INY                             A:00 X:00 Y:3F P:25 SP:FD
beforeNMI = 0 and afterNMI = 0
C08D  D0 FA     BNE $C089                       A:00 X:00 Y:40 P:25 SP:FD
beforeNMI = 0 and afterNMI = 0
C089  99 00 00  STA $0000,Y @ 0040 = 00         A:00 X:00 Y:40 P:25 SP:FD
beforeNMI = 0 and afterNMI = 0
C08C  C8        INY                             A:00 X:00 Y:40 P:25 SP:FD
beforeNMI = 0 and afterNMI = 0
C08D  D0 FA     BNE $C089                       A:00 X:00 Y:41 P:25 SP:FD
beforeNMI = 0 and afterNMI = 0
C089  99 00 00  STA $0000,Y @ 0041 = 00         A:00 X:00 Y:41 P:25 SP:FD
beforeNMI = 0 and afterNMI = 0
C08C  C8        INY                             A:00 X:00 Y:41 P:25 SP:FD
beforeNMI = 0 and afterNMI = 0
C08D  D0 FA     BNE $C089                       A:00 X:00 Y:42 P:25 SP:FD
beforeNMI = 0 and afterNMI = 0
C089  99 00 00  STA $0000,Y @ 0042 = 00         A:00 X:00 Y:42 P:25 SP:FD
beforeNMI = 0 and afterNMI = 0
C08C  C8        INY                             A:00 X:00 Y:42 P:25 SP:FD
beforeNMI = 0 and afterNMI = 0
C08D  D0 FA     BNE $C089                       A:00 X:00 Y:43 P:25 SP:FD
beforeNMI = 0 and afterNMI = 0
C089  99 00 00  STA $0000,Y @ 0043 = 00         A:00 X:00 Y:43 P:25 SP:FD
beforeNMI = 0 and afterNMI = 0
C08C  C8        INY                             A:00 X:00 Y:43 P:25 SP:FD
beforeNMI = 0 and afterNMI = 0
C08D  D0 FA     BNE $C089                       A:00 X:00 Y:44 P:25 SP:FD
beforeNMI = 0 and afterNMI = 0
C089  99 00 00  STA $0000,Y @ 0044 = 00         A:00 X:00 Y:44 P:25 SP:FD
beforeNMI = 0 and afterNMI = 0
C08C  C8        INY                             A:00 X:00 Y:44 P:25 SP:FD
beforeNMI = 0 and afterNMI = 0
C08D  D0 FA     BNE $C089                       A:00 X:00 Y:45 P:25 SP:FD
beforeNMI = 0 and afterNMI = 0
C089  99 00 00  STA $0000,Y @ 0045 = 00         A:00 X:00 Y:45 P:25 SP:FD
beforeNMI = 0 and afterNMI = 0
C08C  C8        INY                             A:00 X:00 Y:45 P:25 SP:FD
beforeNMI = 0 and afterNMI = 0
C08D  D0 FA     BNE $C089                       A:00 X:00 Y:46 P:25 SP:FD
beforeNMI = 0 and afterNMI = 0
C089  99 00 00  STA $0000,Y @ 0046 = 00         A:00 X:00 Y:46 P:25 SP:FD
beforeNMI = 0 and afterNMI = 0
C08C  C8        INY                             A:00 X:00 Y:46 P:25 SP:FD
beforeNMI = 0 and afterNMI = 0
C08D  D0 FA     BNE $C089                       A:00 X:00 Y:47 P:25 SP:FD
beforeNMI = 0 and afterNMI = 0
C089  99 00 00  STA $0000,Y @ 0047 = 00         A:00 X:00 Y:47 P:25 SP:FD
beforeNMI = 0 and afterNMI = 0
C08C  C8        INY                             A:00 X:00 Y:47 P:25 SP:FD
beforeNMI = 0 and afterNMI = 0
C08D  D0 FA     BNE $C089                       A:00 X:00 Y:48 P:25 SP:FD
beforeNMI = 0 and afterNMI = 0
C089  99 00 00  STA $0000,Y @ 0048 = 00         A:00 X:00 Y:48 P:25 SP:FD
beforeNMI = 0 and afterNMI = 0
C08C  C8        INY                             A:00 X:00 Y:48 P:25 SP:FD
beforeNMI = 0 and afterNMI = 0
C08D  D0 FA     BNE $C089                       A:00 X:00 Y:49 P:25 SP:FD
beforeNMI = 0 and afterNMI = 0
C089  99 00 00  STA $0000,Y @ 0049 = 00         A:00 X:00 Y:49 P:25 SP:FD
beforeNMI = 0 and afterNMI = 0
C08C  C8        INY                             A:00 X:00 Y:49 P:25 SP:FD
beforeNMI = 0 and afterNMI = 0
C08D  D0 FA     BNE $C089                       A:00 X:00 Y:4A P:25 SP:FD
beforeNMI = 0 and afterNMI = 0
C089  99 00 00  STA $0000,Y @ 004A = 00         A:00 X:00 Y:4A P:25 SP:FD
beforeNMI = 0 and afterNMI = 0
C08C  C8        INY                             A:00 X:00 Y:4A P:25 SP:FD
beforeNMI = 0 and afterNMI = 0
C08D  D0 FA     BNE $C089                       A:00 X:00 Y:4B P:25 SP:FD
beforeNMI = 0 and afterNMI = 0
C089  99 00 00  STA $0000,Y @ 004B = 00         A:00 X:00 Y:4B P:25 SP:FD
beforeNMI = 0 and afterNMI = 0
C08C  C8        INY                             A:00 X:00 Y:4B P:25 SP:FD
beforeNMI = 0 and afterNMI = 0
C08D  D0 FA     BNE $C089                       A:00 X:00 Y:4C P:25 SP:FD
beforeNMI = 0 and afterNMI = 0
C089  99 00 00  STA $0000,Y @ 004C = 00         A:00 X:00 Y:4C P:25 SP:FD
beforeNMI = 0 and afterNMI = 0
C08C  C8        INY                             A:00 X:00 Y:4C P:25 SP:FD
beforeNMI = 0 and afterNMI = 0
C08D  D0 FA     BNE $C089                       A:00 X:00 Y:4D P:25 SP:FD
beforeNMI = 0 and afterNMI = 0
C089  99 00 00  STA $0000,Y @ 004D = 00         A:00 X:00 Y:4D P:25 SP:FD
beforeNMI = 0 and afterNMI = 0
C08C  C8        INY                             A:00 X:00 Y:4D P:25 SP:FD
beforeNMI = 0 and afterNMI = 0
C08D  D0 FA     BNE $C089                       A:00 X:00 Y:4E P:25 SP:FD
beforeNMI = 0 and afterNMI = 0
C089  99 00 00  STA $0000,Y @ 004E = 00         A:00 X:00 Y:4E P:25 SP:FD
beforeNMI = 0 and afterNMI = 0
C08C  C8        INY                             A:00 X:00 Y:4E P:25 SP:FD
beforeNMI = 0 and afterNMI = 0
C08D  D0 FA     BNE $C089                       A:00 X:00 Y:4F P:25 SP:FD
beforeNMI = 0 and afterNMI = 0
C089  99 00 00  STA $0000,Y @ 004F = 00         A:00 X:00 Y:4F P:25 SP:FD
beforeNMI = 0 and afterNMI = 0
C08C  C8        INY                             A:00 X:00 Y:4F P:25 SP:FD
beforeNMI = 0 and afterNMI = 0
C08D  D0 FA     BNE $C089                       A:00 X:00 Y:50 P:25 SP:FD
beforeNMI = 0 and afterNMI = 0
C089  99 00 00  STA $0000,Y @ 0050 = 00         A:00 X:00 Y:50 P:25 SP:FD
beforeNMI = 0 and afterNMI = 0
C08C  C8        INY                             A:00 X:00 Y:50 P:25 SP:FD
beforeNMI = 0 and afterNMI = 0
C08D  D0 FA     BNE $C089                       A:00 X:00 Y:51 P:25 SP:FD
beforeNMI = 0 and afterNMI = 0
C089  99 00 00  STA $0000,Y @ 0051 = 00         A:00 X:00 Y:51 P:25 SP:FD
beforeNMI = 0 and afterNMI = 0
C08C  C8        INY                             A:00 X:00 Y:51 P:25 SP:FD
beforeNMI = 0 and afterNMI = 0
C08D  D0 FA     BNE $C089                       A:00 X:00 Y:52 P:25 SP:FD
beforeNMI = 0 and afterNMI = 0
C089  99 00 00  STA $0000,Y @ 0052 = 00         A:00 X:00 Y:52 P:25 SP:FD
beforeNMI = 0 and afterNMI = 0
C08C  C8        INY                             A:00 X:00 Y:52 P:25 SP:FD
beforeNMI = 0 and afterNMI = 0
C08D  D0 FA     BNE $C089                       A:00 X:00 Y:53 P:25 SP:FD
beforeNMI = 0 and afterNMI = 0
C089  99 00 00  STA $0000,Y @ 0053 = 00         A:00 X:00 Y:53 P:25 SP:FD
beforeNMI = 0 and afterNMI = 0
C08C  C8        INY                             A:00 X:00 Y:53 P:25 SP:FD
beforeNMI = 0 and afterNMI = 0
C08D  D0 FA     BNE $C089                       A:00 X:00 Y:54 P:25 SP:FD
beforeNMI = 0 and afterNMI = 0
C089  99 00 00  STA $0000,Y @ 0054 = 00         A:00 X:00 Y:54 P:25 SP:FD
beforeNMI = 0 and afterNMI = 0
C08C  C8        INY                             A:00 X:00 Y:54 P:25 SP:FD
beforeNMI = 0 and afterNMI = 0
C08D  D0 FA     BNE $C089                       A:00 X:00 Y:55 P:25 SP:FD
beforeNMI = 0 and afterNMI = 0
C089  99 00 00  STA $0000,Y @ 0055 = 00         A:00 X:00 Y:55 P:25 SP:FD
beforeNMI = 0 and afterNMI = 0
C08C  C8        INY                             A:00 X:00 Y:55 P:25 SP:FD
beforeNMI = 0 and afterNMI = 0
C08D  D0 FA     BNE $C089                       A:00 X:00 Y:56 P:25 SP:FD
beforeNMI = 0 and afterNMI = 0
C089  99 00 00  STA $0000,Y @ 0056 = 00         A:00 X:00 Y:56 P:25 SP:FD
beforeNMI = 0 and afterNMI = 0
C08C  C8        INY                             A:00 X:00 Y:56 P:25 SP:FD
beforeNMI = 0 and afterNMI = 0
C08D  D0 FA     BNE $C089                       A:00 X:00 Y:57 P:25 SP:FD
beforeNMI = 0 and afterNMI = 0
C089  99 00 00  STA $0000,Y @ 0057 = 00         A:00 X:00 Y:57 P:25 SP:FD
beforeNMI = 0 and afterNMI = 0
C08C  C8        INY                             A:00 X:00 Y:57 P:25 SP:FD
beforeNMI = 0 and afterNMI = 0
C08D  D0 FA     BNE $C089                       A:00 X:00 Y:58 P:25 SP:FD
beforeNMI = 0 and afterNMI = 0
C089  99 00 00  STA $0000,Y @ 0058 = 00         A:00 X:00 Y:58 P:25 SP:FD
beforeNMI = 0 and afterNMI = 0
C08C  C8        INY                             A:00 X:00 Y:58 P:25 SP:FD
beforeNMI = 0 and afterNMI = 0
C08D  D0 FA     BNE $C089                       A:00 X:00 Y:59 P:25 SP:FD
beforeNMI = 0 and afterNMI = 0
C089  99 00 00  STA $0000,Y @ 0059 = 00         A:00 X:00 Y:59 P:25 SP:FD
beforeNMI = 0 and afterNMI = 0
C08C  C8        INY                             A:00 X:00 Y:59 P:25 SP:FD
beforeNMI = 0 and afterNMI = 0
C08D  D0 FA     BNE $C089                       A:00 X:00 Y:5A P:25 SP:FD
beforeNMI = 0 and afterNMI = 0
C089  99 00 00  STA $0000,Y @ 005A = 00         A:00 X:00 Y:5A P:25 SP:FD
beforeNMI = 0 and afterNMI = 0
C08C  C8        INY                             A:00 X:00 Y:5A P:25 SP:FD
beforeNMI = 0 and afterNMI = 0
C08D  D0 FA     BNE $C089                       A:00 X:00 Y:5B P:25 SP:FD
beforeNMI = 0 and afterNMI = 0
C089  99 00 00  STA $0000,Y @ 005B = 00         A:00 X:00 Y:5B P:25 SP:FD
beforeNMI = 0 and afterNMI = 0
C08C  C8        INY                             A:00 X:00 Y:5B P:25 SP:FD
beforeNMI = 0 and afterNMI = 0
C08D  D0 FA     BNE $C089                       A:00 X:00 Y:5C P:25 SP:FD
beforeNMI = 0 and afterNMI = 0
C089  99 00 00  STA $0000,Y @ 005C = 00         A:00 X:00 Y:5C P:25 SP:FD
beforeNMI = 0 and afterNMI = 0
C08C  C8        INY                             A:00 X:00 Y:5C P:25 SP:FD
beforeNMI = 0 and afterNMI = 0
C08D  D0 FA     BNE $C089                       A:00 X:00 Y:5D P:25 SP:FD
beforeNMI = 0 and afterNMI = 0
C089  99 00 00  STA $0000,Y @ 005D = 00         A:00 X:00 Y:5D P:25 SP:FD
beforeNMI = 0 and afterNMI = 0
C08C  C8        INY                             A:00 X:00 Y:5D P:25 SP:FD
beforeNMI = 0 and afterNMI = 0
C08D  D0 FA     BNE $C089                       A:00 X:00 Y:5E P:25 SP:FD
beforeNMI = 0 and afterNMI = 0
C089  99 00 00  STA $0000,Y @ 005E = 00         A:00 X:00 Y:5E P:25 SP:FD
beforeNMI = 0 and afterNMI = 0
C08C  C8        INY                             A:00 X:00 Y:5E P:25 SP:FD
beforeNMI = 0 and afterNMI = 0
C08D  D0 FA     BNE $C089                       A:00 X:00 Y:5F P:25 SP:FD
beforeNMI = 0 and afterNMI = 0
C089  99 00 00  STA $0000,Y @ 005F = 00         A:00 X:00 Y:5F P:25 SP:FD
beforeNMI = 0 and afterNMI = 0
C08C  C8        INY                             A:00 X:00 Y:5F P:25 SP:FD
beforeNMI = 0 and afterNMI = 0
C08D  D0 FA     BNE $C089                       A:00 X:00 Y:60 P:25 SP:FD
beforeNMI = 0 and afterNMI = 0
C089  99 00 00  STA $0000,Y @ 0060 = 00         A:00 X:00 Y:60 P:25 SP:FD
beforeNMI = 0 and afterNMI = 0
C08C  C8        INY                             A:00 X:00 Y:60 P:25 SP:FD
beforeNMI = 0 and afterNMI = 0
C08D  D0 FA     BNE $C089                       A:00 X:00 Y:61 P:25 SP:FD
beforeNMI = 0 and afterNMI = 0
C089  99 00 00  STA $0000,Y @ 0061 = 00         A:00 X:00 Y:61 P:25 SP:FD
beforeNMI = 0 and afterNMI = 0
C08C  C8        INY                             A:00 X:00 Y:61 P:25 SP:FD
beforeNMI = 0 and afterNMI = 0
C08D  D0 FA     BNE $C089                       A:00 X:00 Y:62 P:25 SP:FD
beforeNMI = 0 and afterNMI = 0
C089  99 00 00  STA $0000,Y @ 0062 = 00         A:00 X:00 Y:62 P:25 SP:FD
beforeNMI = 0 and afterNMI = 0
C08C  C8        INY                             A:00 X:00 Y:62 P:25 SP:FD
beforeNMI = 0 and afterNMI = 0
C08D  D0 FA     BNE $C089                       A:00 X:00 Y:63 P:25 SP:FD
beforeNMI = 0 and afterNMI = 0
C089  99 00 00  STA $0000,Y @ 0063 = 00         A:00 X:00 Y:63 P:25 SP:FD
beforeNMI = 0 and afterNMI = 0
C08C  C8        INY                             A:00 X:00 Y:63 P:25 SP:FD
beforeNMI = 0 and afterNMI = 0
C08D  D0 FA     BNE $C089                       A:00 X:00 Y:64 P:25 SP:FD
beforeNMI = 0 and afterNMI = 0
C089  99 00 00  STA $0000,Y @ 0064 = 00         A:00 X:00 Y:64 P:25 SP:FD
beforeNMI = 0 and afterNMI = 0
C08C  C8        INY                             A:00 X:00 Y:64 P:25 SP:FD
beforeNMI = 0 and afterNMI = 0
C08D  D0 FA     BNE $C089                       A:00 X:00 Y:65 P:25 SP:FD
beforeNMI = 0 and afterNMI = 0
C089  99 00 00  STA $0000,Y @ 0065 = 00         A:00 X:00 Y:65 P:25 SP:FD
beforeNMI = 0 and afterNMI = 0
C08C  C8        INY                             A:00 X:00 Y:65 P:25 SP:FD
beforeNMI = 0 and afterNMI = 0
C08D  D0 FA     BNE $C089                       A:00 X:00 Y:66 P:25 SP:FD
beforeNMI = 0 and afterNMI = 0
C089  99 00 00  STA $0000,Y @ 0066 = 00         A:00 X:00 Y:66 P:25 SP:FD
beforeNMI = 0 and afterNMI = 0
C08C  C8        INY                             A:00 X:00 Y:66 P:25 SP:FD
beforeNMI = 0 and afterNMI = 0
C08D  D0 FA     BNE $C089                       A:00 X:00 Y:67 P:25 SP:FD
beforeNMI = 0 and afterNMI = 0
C089  99 00 00  STA $0000,Y @ 0067 = 00         A:00 X:00 Y:67 P:25 SP:FD
beforeNMI = 0 and afterNMI = 0
C08C  C8        INY                             A:00 X:00 Y:67 P:25 SP:FD
beforeNMI = 0 and afterNMI = 0
C08D  D0 FA     BNE $C089                       A:00 X:00 Y:68 P:25 SP:FD
beforeNMI = 0 and afterNMI = 0
C089  99 00 00  STA $0000,Y @ 0068 = 00         A:00 X:00 Y:68 P:25 SP:FD
beforeNMI = 0 and afterNMI = 0
C08C  C8        INY                             A:00 X:00 Y:68 P:25 SP:FD
beforeNMI = 0 and afterNMI = 0
C08D  D0 FA     BNE $C089                       A:00 X:00 Y:69 P:25 SP:FD
beforeNMI = 0 and afterNMI = 0
C089  99 00 00  STA $0000,Y @ 0069 = 00         A:00 X:00 Y:69 P:25 SP:FD
beforeNMI = 0 and afterNMI = 0
C08C  C8        INY                             A:00 X:00 Y:69 P:25 SP:FD
beforeNMI = 0 and afterNMI = 0
C08D  D0 FA     BNE $C089                       A:00 X:00 Y:6A P:25 SP:FD
beforeNMI = 0 and afterNMI = 0
C089  99 00 00  STA $0000,Y @ 006A = 00         A:00 X:00 Y:6A P:25 SP:FD
beforeNMI = 0 and afterNMI = 0
C08C  C8        INY                             A:00 X:00 Y:6A P:25 SP:FD
beforeNMI = 0 and afterNMI = 0
C08D  D0 FA     BNE $C089                       A:00 X:00 Y:6B P:25 SP:FD
beforeNMI = 0 and afterNMI = 0
C089  99 00 00  STA $0000,Y @ 006B = 00         A:00 X:00 Y:6B P:25 SP:FD
beforeNMI = 0 and afterNMI = 0
C08C  C8        INY                             A:00 X:00 Y:6B P:25 SP:FD
beforeNMI = 0 and afterNMI = 0
C08D  D0 FA     BNE $C089                       A:00 X:00 Y:6C P:25 SP:FD
beforeNMI = 0 and afterNMI = 0
C089  99 00 00  STA $0000,Y @ 006C = 00         A:00 X:00 Y:6C P:25 SP:FD
beforeNMI = 0 and afterNMI = 0
C08C  C8        INY                             A:00 X:00 Y:6C P:25 SP:FD
beforeNMI = 0 and afterNMI = 0
C08D  D0 FA     BNE $C089                       A:00 X:00 Y:6D P:25 SP:FD
beforeNMI = 0 and afterNMI = 0
C089  99 00 00  STA $0000,Y @ 006D = 00         A:00 X:00 Y:6D P:25 SP:FD
beforeNMI = 0 and afterNMI = 0
C08C  C8        INY                             A:00 X:00 Y:6D P:25 SP:FD
beforeNMI = 0 and afterNMI = 0
C08D  D0 FA     BNE $C089                       A:00 X:00 Y:6E P:25 SP:FD
beforeNMI = 0 and afterNMI = 0
C089  99 00 00  STA $0000,Y @ 006E = 00         A:00 X:00 Y:6E P:25 SP:FD
beforeNMI = 0 and afterNMI = 0
C08C  C8        INY                             A:00 X:00 Y:6E P:25 SP:FD
beforeNMI = 0 and afterNMI = 0
C08D  D0 FA     BNE $C089                       A:00 X:00 Y:6F P:25 SP:FD
beforeNMI = 0 and afterNMI = 0
C089  99 00 00  STA $0000,Y @ 006F = 00         A:00 X:00 Y:6F P:25 SP:FD
beforeNMI = 0 and afterNMI = 0
C08C  C8        INY                             A:00 X:00 Y:6F P:25 SP:FD
beforeNMI = 0 and afterNMI = 0
C08D  D0 FA     BNE $C089                       A:00 X:00 Y:70 P:25 SP:FD
beforeNMI = 0 and afterNMI = 0
C089  99 00 00  STA $0000,Y @ 0070 = 00         A:00 X:00 Y:70 P:25 SP:FD
beforeNMI = 0 and afterNMI = 0
C08C  C8        INY                             A:00 X:00 Y:70 P:25 SP:FD
beforeNMI = 0 and afterNMI = 0
C08D  D0 FA     BNE $C089                       A:00 X:00 Y:71 P:25 SP:FD
beforeNMI = 0 and afterNMI = 0
C089  99 00 00  STA $0000,Y @ 0071 = 00         A:00 X:00 Y:71 P:25 SP:FD
beforeNMI = 0 and afterNMI = 0
C08C  C8        INY                             A:00 X:00 Y:71 P:25 SP:FD
beforeNMI = 0 and afterNMI = 0
C08D  D0 FA     BNE $C089                       A:00 X:00 Y:72 P:25 SP:FD
beforeNMI = 0 and afterNMI = 0
C089  99 00 00  STA $0000,Y @ 0072 = 00         A:00 X:00 Y:72 P:25 SP:FD
beforeNMI = 0 and afterNMI = 0
C08C  C8        INY                             A:00 X:00 Y:72 P:25 SP:FD
beforeNMI = 0 and afterNMI = 0
C08D  D0 FA     BNE $C089                       A:00 X:00 Y:73 P:25 SP:FD
beforeNMI = 0 and afterNMI = 0
C089  99 00 00  STA $0000,Y @ 0073 = 00         A:00 X:00 Y:73 P:25 SP:FD
beforeNMI = 0 and afterNMI = 0
C08C  C8        INY                             A:00 X:00 Y:73 P:25 SP:FD
beforeNMI = 0 and afterNMI = 0
C08D  D0 FA     BNE $C089                       A:00 X:00 Y:74 P:25 SP:FD
beforeNMI = 0 and afterNMI = 0
C089  99 00 00  STA $0000,Y @ 0074 = 00         A:00 X:00 Y:74 P:25 SP:FD
beforeNMI = 0 and afterNMI = 0
C08C  C8        INY                             A:00 X:00 Y:74 P:25 SP:FD
beforeNMI = 0 and afterNMI = 0
C08D  D0 FA     BNE $C089                       A:00 X:00 Y:75 P:25 SP:FD
beforeNMI = 0 and afterNMI = 0
C089  99 00 00  STA $0000,Y @ 0075 = 00         A:00 X:00 Y:75 P:25 SP:FD
beforeNMI = 0 and afterNMI = 0
C08C  C8        INY                             A:00 X:00 Y:75 P:25 SP:FD
beforeNMI = 0 and afterNMI = 0
C08D  D0 FA     BNE $C089                       A:00 X:00 Y:76 P:25 SP:FD
beforeNMI = 0 and afterNMI = 0
C089  99 00 00  STA $0000,Y @ 0076 = 00         A:00 X:00 Y:76 P:25 SP:FD
beforeNMI = 0 and afterNMI = 0
C08C  C8        INY                             A:00 X:00 Y:76 P:25 SP:FD
beforeNMI = 0 and afterNMI = 0
C08D  D0 FA     BNE $C089                       A:00 X:00 Y:77 P:25 SP:FD
beforeNMI = 0 and afterNMI = 0
C089  99 00 00  STA $0000,Y @ 0077 = 00         A:00 X:00 Y:77 P:25 SP:FD
beforeNMI = 0 and afterNMI = 0
C08C  C8        INY                             A:00 X:00 Y:77 P:25 SP:FD
beforeNMI = 0 and afterNMI = 0
C08D  D0 FA     BNE $C089                       A:00 X:00 Y:78 P:25 SP:FD
beforeNMI = 0 and afterNMI = 0
C089  99 00 00  STA $0000,Y @ 0078 = 00         A:00 X:00 Y:78 P:25 SP:FD
beforeNMI = 0 and afterNMI = 0
C08C  C8        INY                             A:00 X:00 Y:78 P:25 SP:FD
beforeNMI = 0 and afterNMI = 0
C08D  D0 FA     BNE $C089                       A:00 X:00 Y:79 P:25 SP:FD
beforeNMI = 0 and afterNMI = 0
C089  99 00 00  STA $0000,Y @ 0079 = 00         A:00 X:00 Y:79 P:25 SP:FD
beforeNMI = 0 and afterNMI = 0
C08C  C8        INY                             A:00 X:00 Y:79 P:25 SP:FD
beforeNMI = 0 and afterNMI = 0
C08D  D0 FA     BNE $C089                       A:00 X:00 Y:7A P:25 SP:FD
beforeNMI = 0 and afterNMI = 0
C089  99 00 00  STA $0000,Y @ 007A = 00         A:00 X:00 Y:7A P:25 SP:FD
beforeNMI = 0 and afterNMI = 0
C08C  C8        INY                             A:00 X:00 Y:7A P:25 SP:FD
beforeNMI = 0 and afterNMI = 0
C08D  D0 FA     BNE $C089                       A:00 X:00 Y:7B P:25 SP:FD
beforeNMI = 0 and afterNMI = 0
C089  99 00 00  STA $0000,Y @ 007B = 00         A:00 X:00 Y:7B P:25 SP:FD
beforeNMI = 0 and afterNMI = 0
C08C  C8        INY                             A:00 X:00 Y:7B P:25 SP:FD
beforeNMI = 0 and afterNMI = 0
C08D  D0 FA     BNE $C089                       A:00 X:00 Y:7C P:25 SP:FD
beforeNMI = 0 and afterNMI = 0
C089  99 00 00  STA $0000,Y @ 007C = 00         A:00 X:00 Y:7C P:25 SP:FD
beforeNMI = 0 and afterNMI = 0
C08C  C8        INY                             A:00 X:00 Y:7C P:25 SP:FD
beforeNMI = 0 and afterNMI = 0
C08D  D0 FA     BNE $C089                       A:00 X:00 Y:7D P:25 SP:FD
beforeNMI = 0 and afterNMI = 0
C089  99 00 00  STA $0000,Y @ 007D = 00         A:00 X:00 Y:7D P:25 SP:FD
beforeNMI = 0 and afterNMI = 0
C08C  C8        INY                             A:00 X:00 Y:7D P:25 SP:FD
beforeNMI = 0 and afterNMI = 0
C08D  D0 FA     BNE $C089                       A:00 X:00 Y:7E P:25 SP:FD
beforeNMI = 0 and afterNMI = 0
C089  99 00 00  STA $0000,Y @ 007E = 00         A:00 X:00 Y:7E P:25 SP:FD
beforeNMI = 0 and afterNMI = 0
C08C  C8        INY                             A:00 X:00 Y:7E P:25 SP:FD
beforeNMI = 0 and afterNMI = 0
C08D  D0 FA     BNE $C089                       A:00 X:00 Y:7F P:25 SP:FD
beforeNMI = 0 and afterNMI = 0
C089  99 00 00  STA $0000,Y @ 007F = 00         A:00 X:00 Y:7F P:25 SP:FD
beforeNMI = 0 and afterNMI = 0
C08C  C8        INY                             A:00 X:00 Y:7F P:25 SP:FD
beforeNMI = 0 and afterNMI = 0
C08D  D0 FA     BNE $C089                       A:00 X:00 Y:80 P:A5 SP:FD
beforeNMI = 0 and afterNMI = 0
C089  99 00 00  STA $0000,Y @ 0080 = 00         A:00 X:00 Y:80 P:A5 SP:FD
beforeNMI = 0 and afterNMI = 0
C08C  C8        INY                             A:00 X:00 Y:80 P:A5 SP:FD
beforeNMI = 0 and afterNMI = 0
C08D  D0 FA     BNE $C089                       A:00 X:00 Y:81 P:A5 SP:FD
beforeNMI = 0 and afterNMI = 0
C089  99 00 00  STA $0000,Y @ 0081 = 00         A:00 X:00 Y:81 P:A5 SP:FD
beforeNMI = 0 and afterNMI = 0
C08C  C8        INY                             A:00 X:00 Y:81 P:A5 SP:FD
beforeNMI = 0 and afterNMI = 0
C08D  D0 FA     BNE $C089                       A:00 X:00 Y:82 P:A5 SP:FD
beforeNMI = 0 and afterNMI = 0
C089  99 00 00  STA $0000,Y @ 0082 = 00         A:00 X:00 Y:82 P:A5 SP:FD
beforeNMI = 0 and afterNMI = 0
C08C  C8        INY                             A:00 X:00 Y:82 P:A5 SP:FD
beforeNMI = 0 and afterNMI = 0
C08D  D0 FA     BNE $C089                       A:00 X:00 Y:83 P:A5 SP:FD
beforeNMI = 0 and afterNMI = 0
C089  99 00 00  STA $0000,Y @ 0083 = 00         A:00 X:00 Y:83 P:A5 SP:FD
beforeNMI = 0 and afterNMI = 0
C08C  C8        INY                             A:00 X:00 Y:83 P:A5 SP:FD
beforeNMI = 0 and afterNMI = 0
C08D  D0 FA     BNE $C089                       A:00 X:00 Y:84 P:A5 SP:FD
beforeNMI = 0 and afterNMI = 0
C089  99 00 00  STA $0000,Y @ 0084 = 00         A:00 X:00 Y:84 P:A5 SP:FD
beforeNMI = 0 and afterNMI = 0
C08C  C8        INY                             A:00 X:00 Y:84 P:A5 SP:FD
beforeNMI = 0 and afterNMI = 0
C08D  D0 FA     BNE $C089                       A:00 X:00 Y:85 P:A5 SP:FD
beforeNMI = 0 and afterNMI = 0
C089  99 00 00  STA $0000,Y @ 0085 = 00         A:00 X:00 Y:85 P:A5 SP:FD
beforeNMI = 0 and afterNMI = 0
C08C  C8        INY                             A:00 X:00 Y:85 P:A5 SP:FD
beforeNMI = 0 and afterNMI = 0
C08D  D0 FA     BNE $C089                       A:00 X:00 Y:86 P:A5 SP:FD
beforeNMI = 0 and afterNMI = 0
C089  99 00 00  STA $0000,Y @ 0086 = 00         A:00 X:00 Y:86 P:A5 SP:FD
beforeNMI = 0 and afterNMI = 0
C08C  C8        INY                             A:00 X:00 Y:86 P:A5 SP:FD
beforeNMI = 0 and afterNMI = 0
C08D  D0 FA     BNE $C089                       A:00 X:00 Y:87 P:A5 SP:FD
beforeNMI = 0 and afterNMI = 0
C089  99 00 00  STA $0000,Y @ 0087 = 00         A:00 X:00 Y:87 P:A5 SP:FD
beforeNMI = 0 and afterNMI = 0
C08C  C8        INY                             A:00 X:00 Y:87 P:A5 SP:FD
beforeNMI = 0 and afterNMI = 0
C08D  D0 FA     BNE $C089                       A:00 X:00 Y:88 P:A5 SP:FD
beforeNMI = 0 and afterNMI = 0
C089  99 00 00  STA $0000,Y @ 0088 = 00         A:00 X:00 Y:88 P:A5 SP:FD
beforeNMI = 0 and afterNMI = 0
C08C  C8        INY                             A:00 X:00 Y:88 P:A5 SP:FD
beforeNMI = 0 and afterNMI = 0
C08D  D0 FA     BNE $C089                       A:00 X:00 Y:89 P:A5 SP:FD
beforeNMI = 0 and afterNMI = 0
C089  99 00 00  STA $0000,Y @ 0089 = 00         A:00 X:00 Y:89 P:A5 SP:FD
beforeNMI = 0 and afterNMI = 0
C08C  C8        INY                             A:00 X:00 Y:89 P:A5 SP:FD
beforeNMI = 0 and afterNMI = 0
C08D  D0 FA     BNE $C089                       A:00 X:00 Y:8A P:A5 SP:FD
beforeNMI = 0 and afterNMI = 0
C089  99 00 00  STA $0000,Y @ 008A = 00         A:00 X:00 Y:8A P:A5 SP:FD
beforeNMI = 0 and afterNMI = 0
C08C  C8        INY                             A:00 X:00 Y:8A P:A5 SP:FD
beforeNMI = 0 and afterNMI = 0
C08D  D0 FA     BNE $C089                       A:00 X:00 Y:8B P:A5 SP:FD
beforeNMI = 0 and afterNMI = 0
C089  99 00 00  STA $0000,Y @ 008B = 00         A:00 X:00 Y:8B P:A5 SP:FD
beforeNMI = 0 and afterNMI = 0
C08C  C8        INY                             A:00 X:00 Y:8B P:A5 SP:FD
beforeNMI = 0 and afterNMI = 0
C08D  D0 FA     BNE $C089                       A:00 X:00 Y:8C P:A5 SP:FD
beforeNMI = 0 and afterNMI = 0
C089  99 00 00  STA $0000,Y @ 008C = 00         A:00 X:00 Y:8C P:A5 SP:FD
beforeNMI = 0 and afterNMI = 0
C08C  C8        INY                             A:00 X:00 Y:8C P:A5 SP:FD
beforeNMI = 0 and afterNMI = 0
C08D  D0 FA     BNE $C089                       A:00 X:00 Y:8D P:A5 SP:FD
beforeNMI = 0 and afterNMI = 0
C089  99 00 00  STA $0000,Y @ 008D = 00         A:00 X:00 Y:8D P:A5 SP:FD
beforeNMI = 0 and afterNMI = 0
C08C  C8        INY                             A:00 X:00 Y:8D P:A5 SP:FD
beforeNMI = 0 and afterNMI = 0
C08D  D0 FA     BNE $C089                       A:00 X:00 Y:8E P:A5 SP:FD
beforeNMI = 0 and afterNMI = 0
C089  99 00 00  STA $0000,Y @ 008E = 00         A:00 X:00 Y:8E P:A5 SP:FD
beforeNMI = 0 and afterNMI = 0
C08C  C8        INY                             A:00 X:00 Y:8E P:A5 SP:FD
beforeNMI = 0 and afterNMI = 0
C08D  D0 FA     BNE $C089                       A:00 X:00 Y:8F P:A5 SP:FD
beforeNMI = 0 and afterNMI = 0
C089  99 00 00  STA $0000,Y @ 008F = 00         A:00 X:00 Y:8F P:A5 SP:FD
beforeNMI = 0 and afterNMI = 0
C08C  C8        INY                             A:00 X:00 Y:8F P:A5 SP:FD
beforeNMI = 0 and afterNMI = 0
C08D  D0 FA     BNE $C089                       A:00 X:00 Y:90 P:A5 SP:FD
beforeNMI = 0 and afterNMI = 0
C089  99 00 00  STA $0000,Y @ 0090 = 00         A:00 X:00 Y:90 P:A5 SP:FD
beforeNMI = 0 and afterNMI = 0
C08C  C8        INY                             A:00 X:00 Y:90 P:A5 SP:FD
beforeNMI = 0 and afterNMI = 0
C08D  D0 FA     BNE $C089                       A:00 X:00 Y:91 P:A5 SP:FD
beforeNMI = 0 and afterNMI = 0
C089  99 00 00  STA $0000,Y @ 0091 = 00         A:00 X:00 Y:91 P:A5 SP:FD
beforeNMI = 0 and afterNMI = 0
C08C  C8        INY                             A:00 X:00 Y:91 P:A5 SP:FD
beforeNMI = 0 and afterNMI = 0
C08D  D0 FA     BNE $C089                       A:00 X:00 Y:92 P:A5 SP:FD
beforeNMI = 0 and afterNMI = 0
C089  99 00 00  STA $0000,Y @ 0092 = 00         A:00 X:00 Y:92 P:A5 SP:FD
beforeNMI = 0 and afterNMI = 0
C08C  C8        INY                             A:00 X:00 Y:92 P:A5 SP:FD
beforeNMI = 0 and afterNMI = 0
C08D  D0 FA     BNE $C089                       A:00 X:00 Y:93 P:A5 SP:FD
beforeNMI = 0 and afterNMI = 0
C089  99 00 00  STA $0000,Y @ 0093 = 00         A:00 X:00 Y:93 P:A5 SP:FD
beforeNMI = 0 and afterNMI = 0
C08C  C8        INY                             A:00 X:00 Y:93 P:A5 SP:FD
beforeNMI = 0 and afterNMI = 0
C08D  D0 FA     BNE $C089                       A:00 X:00 Y:94 P:A5 SP:FD
beforeNMI = 0 and afterNMI = 0
C089  99 00 00  STA $0000,Y @ 0094 = 00         A:00 X:00 Y:94 P:A5 SP:FD
beforeNMI = 0 and afterNMI = 0
C08C  C8        INY                             A:00 X:00 Y:94 P:A5 SP:FD
beforeNMI = 0 and afterNMI = 0
C08D  D0 FA     BNE $C089                       A:00 X:00 Y:95 P:A5 SP:FD
beforeNMI = 0 and afterNMI = 0
C089  99 00 00  STA $0000,Y @ 0095 = 00         A:00 X:00 Y:95 P:A5 SP:FD
beforeNMI = 0 and afterNMI = 0
C08C  C8        INY                             A:00 X:00 Y:95 P:A5 SP:FD
beforeNMI = 0 and afterNMI = 0
C08D  D0 FA     BNE $C089                       A:00 X:00 Y:96 P:A5 SP:FD
beforeNMI = 0 and afterNMI = 0
C089  99 00 00  STA $0000,Y @ 0096 = 00         A:00 X:00 Y:96 P:A5 SP:FD
beforeNMI = 0 and afterNMI = 0
C08C  C8        INY                             A:00 X:00 Y:96 P:A5 SP:FD
beforeNMI = 0 and afterNMI = 0
C08D  D0 FA     BNE $C089                       A:00 X:00 Y:97 P:A5 SP:FD
beforeNMI = 0 and afterNMI = 0
C089  99 00 00  STA $0000,Y @ 0097 = 00         A:00 X:00 Y:97 P:A5 SP:FD
beforeNMI = 0 and afterNMI = 0
C08C  C8        INY                             A:00 X:00 Y:97 P:A5 SP:FD
beforeNMI = 0 and afterNMI = 0
C08D  D0 FA     BNE $C089                       A:00 X:00 Y:98 P:A5 SP:FD
beforeNMI = 0 and afterNMI = 0
C089  99 00 00  STA $0000,Y @ 0098 = 00         A:00 X:00 Y:98 P:A5 SP:FD
beforeNMI = 0 and afterNMI = 0
C08C  C8        INY                             A:00 X:00 Y:98 P:A5 SP:FD
beforeNMI = 0 and afterNMI = 0
C08D  D0 FA     BNE $C089                       A:00 X:00 Y:99 P:A5 SP:FD
beforeNMI = 0 and afterNMI = 0
C089  99 00 00  STA $0000,Y @ 0099 = 00         A:00 X:00 Y:99 P:A5 SP:FD
beforeNMI = 0 and afterNMI = 0
C08C  C8        INY                             A:00 X:00 Y:99 P:A5 SP:FD
beforeNMI = 0 and afterNMI = 0
C08D  D0 FA     BNE $C089                       A:00 X:00 Y:9A P:A5 SP:FD
beforeNMI = 0 and afterNMI = 0
C089  99 00 00  STA $0000,Y @ 009A = 00         A:00 X:00 Y:9A P:A5 SP:FD
beforeNMI = 0 and afterNMI = 0
C08C  C8        INY                             A:00 X:00 Y:9A P:A5 SP:FD
beforeNMI = 0 and afterNMI = 0
C08D  D0 FA     BNE $C089                       A:00 X:00 Y:9B P:A5 SP:FD
beforeNMI = 0 and afterNMI = 0
C089  99 00 00  STA $0000,Y @ 009B = 00         A:00 X:00 Y:9B P:A5 SP:FD
beforeNMI = 0 and afterNMI = 0
C08C  C8        INY                             A:00 X:00 Y:9B P:A5 SP:FD
beforeNMI = 0 and afterNMI = 0
C08D  D0 FA     BNE $C089                       A:00 X:00 Y:9C P:A5 SP:FD
beforeNMI = 0 and afterNMI = 0
C089  99 00 00  STA $0000,Y @ 009C = 00         A:00 X:00 Y:9C P:A5 SP:FD
beforeNMI = 0 and afterNMI = 0
C08C  C8        INY                             A:00 X:00 Y:9C P:A5 SP:FD
beforeNMI = 0 and afterNMI = 0
C08D  D0 FA     BNE $C089                       A:00 X:00 Y:9D P:A5 SP:FD
beforeNMI = 0 and afterNMI = 0
C089  99 00 00  STA $0000,Y @ 009D = 00         A:00 X:00 Y:9D P:A5 SP:FD
beforeNMI = 0 and afterNMI = 0
C08C  C8        INY                             A:00 X:00 Y:9D P:A5 SP:FD
beforeNMI = 0 and afterNMI = 0
C08D  D0 FA     BNE $C089                       A:00 X:00 Y:9E P:A5 SP:FD
beforeNMI = 0 and afterNMI = 0
C089  99 00 00  STA $0000,Y @ 009E = 00         A:00 X:00 Y:9E P:A5 SP:FD
beforeNMI = 0 and afterNMI = 0
C08C  C8        INY                             A:00 X:00 Y:9E P:A5 SP:FD
beforeNMI = 0 and afterNMI = 0
C08D  D0 FA     BNE $C089                       A:00 X:00 Y:9F P:A5 SP:FD
beforeNMI = 0 and afterNMI = 0
C089  99 00 00  STA $0000,Y @ 009F = 00         A:00 X:00 Y:9F P:A5 SP:FD
beforeNMI = 0 and afterNMI = 0
C08C  C8        INY                             A:00 X:00 Y:9F P:A5 SP:FD
beforeNMI = 0 and afterNMI = 0
C08D  D0 FA     BNE $C089                       A:00 X:00 Y:A0 P:A5 SP:FD
beforeNMI = 0 and afterNMI = 0
C089  99 00 00  STA $0000,Y @ 00A0 = 00         A:00 X:00 Y:A0 P:A5 SP:FD
beforeNMI = 0 and afterNMI = 0
C08C  C8        INY                             A:00 X:00 Y:A0 P:A5 SP:FD
beforeNMI = 0 and afterNMI = 0
C08D  D0 FA     BNE $C089                       A:00 X:00 Y:A1 P:A5 SP:FD
beforeNMI = 0 and afterNMI = 0
C089  99 00 00  STA $0000,Y @ 00A1 = 00         A:00 X:00 Y:A1 P:A5 SP:FD
beforeNMI = 0 and afterNMI = 0
C08C  C8        INY                             A:00 X:00 Y:A1 P:A5 SP:FD
beforeNMI = 0 and afterNMI = 0
C08D  D0 FA     BNE $C089                       A:00 X:00 Y:A2 P:A5 SP:FD
beforeNMI = 0 and afterNMI = 0
C089  99 00 00  STA $0000,Y @ 00A2 = 00         A:00 X:00 Y:A2 P:A5 SP:FD
beforeNMI = 0 and afterNMI = 0
C08C  C8        INY                             A:00 X:00 Y:A2 P:A5 SP:FD
beforeNMI = 0 and afterNMI = 0
C08D  D0 FA     BNE $C089                       A:00 X:00 Y:A3 P:A5 SP:FD
beforeNMI = 0 and afterNMI = 0
C089  99 00 00  STA $0000,Y @ 00A3 = 00         A:00 X:00 Y:A3 P:A5 SP:FD
beforeNMI = 0 and afterNMI = 0
C08C  C8        INY                             A:00 X:00 Y:A3 P:A5 SP:FD
beforeNMI = 0 and afterNMI = 0
C08D  D0 FA     BNE $C089                       A:00 X:00 Y:A4 P:A5 SP:FD
beforeNMI = 0 and afterNMI = 0
C089  99 00 00  STA $0000,Y @ 00A4 = 00         A:00 X:00 Y:A4 P:A5 SP:FD
beforeNMI = 0 and afterNMI = 0
C08C  C8        INY                             A:00 X:00 Y:A4 P:A5 SP:FD
beforeNMI = 0 and afterNMI = 0
C08D  D0 FA     BNE $C089                       A:00 X:00 Y:A5 P:A5 SP:FD
beforeNMI = 0 and afterNMI = 0
C089  99 00 00  STA $0000,Y @ 00A5 = 00         A:00 X:00 Y:A5 P:A5 SP:FD
beforeNMI = 0 and afterNMI = 0
C08C  C8        INY                             A:00 X:00 Y:A5 P:A5 SP:FD
beforeNMI = 0 and afterNMI = 0
C08D  D0 FA     BNE $C089                       A:00 X:00 Y:A6 P:A5 SP:FD
beforeNMI = 0 and afterNMI = 0
C089  99 00 00  STA $0000,Y @ 00A6 = 00         A:00 X:00 Y:A6 P:A5 SP:FD
beforeNMI = 0 and afterNMI = 0
C08C  C8        INY                             A:00 X:00 Y:A6 P:A5 SP:FD
beforeNMI = 0 and afterNMI = 0
C08D  D0 FA     BNE $C089                       A:00 X:00 Y:A7 P:A5 SP:FD
beforeNMI = 0 and afterNMI = 0
C089  99 00 00  STA $0000,Y @ 00A7 = 00         A:00 X:00 Y:A7 P:A5 SP:FD
beforeNMI = 0 and afterNMI = 0
C08C  C8        INY                             A:00 X:00 Y:A7 P:A5 SP:FD
beforeNMI = 0 and afterNMI = 0
C08D  D0 FA     BNE $C089                       A:00 X:00 Y:A8 P:A5 SP:FD
beforeNMI = 0 and afterNMI = 0
C089  99 00 00  STA $0000,Y @ 00A8 = 00         A:00 X:00 Y:A8 P:A5 SP:FD
beforeNMI = 0 and afterNMI = 0
C08C  C8        INY                             A:00 X:00 Y:A8 P:A5 SP:FD
beforeNMI = 0 and afterNMI = 0
C08D  D0 FA     BNE $C089                       A:00 X:00 Y:A9 P:A5 SP:FD
beforeNMI = 0 and afterNMI = 0
C089  99 00 00  STA $0000,Y @ 00A9 = 00         A:00 X:00 Y:A9 P:A5 SP:FD
beforeNMI = 0 and afterNMI = 0
C08C  C8        INY                             A:00 X:00 Y:A9 P:A5 SP:FD
beforeNMI = 0 and afterNMI = 0
C08D  D0 FA     BNE $C089                       A:00 X:00 Y:AA P:A5 SP:FD
beforeNMI = 0 and afterNMI = 0
C089  99 00 00  STA $0000,Y @ 00AA = 00         A:00 X:00 Y:AA P:A5 SP:FD
beforeNMI = 0 and afterNMI = 0
C08C  C8        INY                             A:00 X:00 Y:AA P:A5 SP:FD
beforeNMI = 0 and afterNMI = 0
C08D  D0 FA     BNE $C089                       A:00 X:00 Y:AB P:A5 SP:FD
beforeNMI = 0 and afterNMI = 0
C089  99 00 00  STA $0000,Y @ 00AB = 00         A:00 X:00 Y:AB P:A5 SP:FD
beforeNMI = 0 and afterNMI = 0
C08C  C8        INY                             A:00 X:00 Y:AB P:A5 SP:FD
beforeNMI = 0 and afterNMI = 0
C08D  D0 FA     BNE $C089                       A:00 X:00 Y:AC P:A5 SP:FD
beforeNMI = 0 and afterNMI = 0
C089  99 00 00  STA $0000,Y @ 00AC = 00         A:00 X:00 Y:AC P:A5 SP:FD
beforeNMI = 0 and afterNMI = 0
C08C  C8        INY                             A:00 X:00 Y:AC P:A5 SP:FD
beforeNMI = 0 and afterNMI = 0
C08D  D0 FA     BNE $C089                       A:00 X:00 Y:AD P:A5 SP:FD
beforeNMI = 0 and afterNMI = 0
C089  99 00 00  STA $0000,Y @ 00AD = 00         A:00 X:00 Y:AD P:A5 SP:FD
beforeNMI = 0 and afterNMI = 0
C08C  C8        INY                             A:00 X:00 Y:AD P:A5 SP:FD
beforeNMI = 0 and afterNMI = 0
C08D  D0 FA     BNE $C089                       A:00 X:00 Y:AE P:A5 SP:FD
beforeNMI = 0 and afterNMI = 0
C089  99 00 00  STA $0000,Y @ 00AE = 00         A:00 X:00 Y:AE P:A5 SP:FD
beforeNMI = 0 and afterNMI = 0
C08C  C8        INY                             A:00 X:00 Y:AE P:A5 SP:FD
beforeNMI = 0 and afterNMI = 0
C08D  D0 FA     BNE $C089                       A:00 X:00 Y:AF P:A5 SP:FD
beforeNMI = 0 and afterNMI = 0
C089  99 00 00  STA $0000,Y @ 00AF = 00         A:00 X:00 Y:AF P:A5 SP:FD
beforeNMI = 0 and afterNMI = 0
C08C  C8        INY                             A:00 X:00 Y:AF P:A5 SP:FD
beforeNMI = 0 and afterNMI = 0
C08D  D0 FA     BNE $C089                       A:00 X:00 Y:B0 P:A5 SP:FD
beforeNMI = 0 and afterNMI = 0
C089  99 00 00  STA $0000,Y @ 00B0 = 00         A:00 X:00 Y:B0 P:A5 SP:FD
beforeNMI = 0 and afterNMI = 0
C08C  C8        INY                             A:00 X:00 Y:B0 P:A5 SP:FD
beforeNMI = 0 and afterNMI = 0
C08D  D0 FA     BNE $C089                       A:00 X:00 Y:B1 P:A5 SP:FD
beforeNMI = 0 and afterNMI = 0
C089  99 00 00  STA $0000,Y @ 00B1 = 00         A:00 X:00 Y:B1 P:A5 SP:FD
beforeNMI = 0 and afterNMI = 0
C08C  C8        INY                             A:00 X:00 Y:B1 P:A5 SP:FD
beforeNMI = 0 and afterNMI = 0
C08D  D0 FA     BNE $C089                       A:00 X:00 Y:B2 P:A5 SP:FD
beforeNMI = 0 and afterNMI = 0
C089  99 00 00  STA $0000,Y @ 00B2 = 00         A:00 X:00 Y:B2 P:A5 SP:FD
beforeNMI = 0 and afterNMI = 0
C08C  C8        INY                             A:00 X:00 Y:B2 P:A5 SP:FD
beforeNMI = 0 and afterNMI = 0
C08D  D0 FA     BNE $C089                       A:00 X:00 Y:B3 P:A5 SP:FD
beforeNMI = 0 and afterNMI = 0
C089  99 00 00  STA $0000,Y @ 00B3 = 00         A:00 X:00 Y:B3 P:A5 SP:FD
beforeNMI = 0 and afterNMI = 0
C08C  C8        INY                             A:00 X:00 Y:B3 P:A5 SP:FD
beforeNMI = 0 and afterNMI = 0
C08D  D0 FA     BNE $C089                       A:00 X:00 Y:B4 P:A5 SP:FD
beforeNMI = 0 and afterNMI = 0
C089  99 00 00  STA $0000,Y @ 00B4 = 00         A:00 X:00 Y:B4 P:A5 SP:FD
beforeNMI = 0 and afterNMI = 0
C08C  C8        INY                             A:00 X:00 Y:B4 P:A5 SP:FD
beforeNMI = 0 and afterNMI = 0
C08D  D0 FA     BNE $C089                       A:00 X:00 Y:B5 P:A5 SP:FD
beforeNMI = 0 and afterNMI = 0
C089  99 00 00  STA $0000,Y @ 00B5 = 00         A:00 X:00 Y:B5 P:A5 SP:FD
beforeNMI = 0 and afterNMI = 0
C08C  C8        INY                             A:00 X:00 Y:B5 P:A5 SP:FD
beforeNMI = 0 and afterNMI = 0
C08D  D0 FA     BNE $C089                       A:00 X:00 Y:B6 P:A5 SP:FD
beforeNMI = 0 and afterNMI = 0
C089  99 00 00  STA $0000,Y @ 00B6 = 00         A:00 X:00 Y:B6 P:A5 SP:FD
beforeNMI = 0 and afterNMI = 0
C08C  C8        INY                             A:00 X:00 Y:B6 P:A5 SP:FD
beforeNMI = 0 and afterNMI = 0
C08D  D0 FA     BNE $C089                       A:00 X:00 Y:B7 P:A5 SP:FD
beforeNMI = 0 and afterNMI = 0
C089  99 00 00  STA $0000,Y @ 00B7 = 00         A:00 X:00 Y:B7 P:A5 SP:FD
beforeNMI = 0 and afterNMI = 0
C08C  C8        INY                             A:00 X:00 Y:B7 P:A5 SP:FD
beforeNMI = 0 and afterNMI = 0
C08D  D0 FA     BNE $C089                       A:00 X:00 Y:B8 P:A5 SP:FD
beforeNMI = 0 and afterNMI = 0
C089  99 00 00  STA $0000,Y @ 00B8 = 00         A:00 X:00 Y:B8 P:A5 SP:FD
beforeNMI = 0 and afterNMI = 0
C08C  C8        INY                             A:00 X:00 Y:B8 P:A5 SP:FD
beforeNMI = 0 and afterNMI = 0
C08D  D0 FA     BNE $C089                       A:00 X:00 Y:B9 P:A5 SP:FD
beforeNMI = 0 and afterNMI = 0
C089  99 00 00  STA $0000,Y @ 00B9 = 00         A:00 X:00 Y:B9 P:A5 SP:FD
beforeNMI = 0 and afterNMI = 0
C08C  C8        INY                             A:00 X:00 Y:B9 P:A5 SP:FD
beforeNMI = 0 and afterNMI = 0
C08D  D0 FA     BNE $C089                       A:00 X:00 Y:BA P:A5 SP:FD
beforeNMI = 0 and afterNMI = 0
C089  99 00 00  STA $0000,Y @ 00BA = 00         A:00 X:00 Y:BA P:A5 SP:FD
beforeNMI = 0 and afterNMI = 0
C08C  C8        INY                             A:00 X:00 Y:BA P:A5 SP:FD
beforeNMI = 0 and afterNMI = 0
C08D  D0 FA     BNE $C089                       A:00 X:00 Y:BB P:A5 SP:FD
beforeNMI = 0 and afterNMI = 0
C089  99 00 00  STA $0000,Y @ 00BB = 00         A:00 X:00 Y:BB P:A5 SP:FD
beforeNMI = 0 and afterNMI = 0
C08C  C8        INY                             A:00 X:00 Y:BB P:A5 SP:FD
beforeNMI = 0 and afterNMI = 0
C08D  D0 FA     BNE $C089                       A:00 X:00 Y:BC P:A5 SP:FD
beforeNMI = 0 and afterNMI = 0
C089  99 00 00  STA $0000,Y @ 00BC = 00         A:00 X:00 Y:BC P:A5 SP:FD
beforeNMI = 0 and afterNMI = 0
C08C  C8        INY                             A:00 X:00 Y:BC P:A5 SP:FD
beforeNMI = 0 and afterNMI = 0
C08D  D0 FA     BNE $C089                       A:00 X:00 Y:BD P:A5 SP:FD
beforeNMI = 0 and afterNMI = 0
C089  99 00 00  STA $0000,Y @ 00BD = 00         A:00 X:00 Y:BD P:A5 SP:FD
beforeNMI = 0 and afterNMI = 0
C08C  C8        INY                             A:00 X:00 Y:BD P:A5 SP:FD
beforeNMI = 0 and afterNMI = 0
C08D  D0 FA     BNE $C089                       A:00 X:00 Y:BE P:A5 SP:FD
beforeNMI = 0 and afterNMI = 0
C089  99 00 00  STA $0000,Y @ 00BE = 00         A:00 X:00 Y:BE P:A5 SP:FD
beforeNMI = 0 and afterNMI = 0
C08C  C8        INY                             A:00 X:00 Y:BE P:A5 SP:FD
beforeNMI = 0 and afterNMI = 0
C08D  D0 FA     BNE $C089                       A:00 X:00 Y:BF P:A5 SP:FD
beforeNMI = 0 and afterNMI = 0
C089  99 00 00  STA $0000,Y @ 00BF = 00         A:00 X:00 Y:BF P:A5 SP:FD
beforeNMI = 0 and afterNMI = 0
C08C  C8        INY                             A:00 X:00 Y:BF P:A5 SP:FD
beforeNMI = 0 and afterNMI = 0
C08D  D0 FA     BNE $C089                       A:00 X:00 Y:C0 P:A5 SP:FD
beforeNMI = 0 and afterNMI = 0
C089  99 00 00  STA $0000,Y @ 00C0 = 00         A:00 X:00 Y:C0 P:A5 SP:FD
beforeNMI = 0 and afterNMI = 0
C08C  C8        INY                             A:00 X:00 Y:C0 P:A5 SP:FD
beforeNMI = 0 and afterNMI = 0
C08D  D0 FA     BNE $C089                       A:00 X:00 Y:C1 P:A5 SP:FD
beforeNMI = 0 and afterNMI = 0
C089  99 00 00  STA $0000,Y @ 00C1 = 00         A:00 X:00 Y:C1 P:A5 SP:FD
beforeNMI = 0 and afterNMI = 0
C08C  C8        INY                             A:00 X:00 Y:C1 P:A5 SP:FD
beforeNMI = 0 and afterNMI = 0
C08D  D0 FA     BNE $C089                       A:00 X:00 Y:C2 P:A5 SP:FD
beforeNMI = 0 and afterNMI = 0
C089  99 00 00  STA $0000,Y @ 00C2 = 00         A:00 X:00 Y:C2 P:A5 SP:FD
beforeNMI = 0 and afterNMI = 0
C08C  C8        INY                             A:00 X:00 Y:C2 P:A5 SP:FD
beforeNMI = 0 and afterNMI = 0
C08D  D0 FA     BNE $C089                       A:00 X:00 Y:C3 P:A5 SP:FD
beforeNMI = 0 and afterNMI = 0
C089  99 00 00  STA $0000,Y @ 00C3 = 00         A:00 X:00 Y:C3 P:A5 SP:FD
beforeNMI = 0 and afterNMI = 0
C08C  C8        INY                             A:00 X:00 Y:C3 P:A5 SP:FD
beforeNMI = 0 and afterNMI = 0
C08D  D0 FA     BNE $C089                       A:00 X:00 Y:C4 P:A5 SP:FD
beforeNMI = 0 and afterNMI = 0
C089  99 00 00  STA $0000,Y @ 00C4 = 00         A:00 X:00 Y:C4 P:A5 SP:FD
beforeNMI = 0 and afterNMI = 0
C08C  C8        INY                             A:00 X:00 Y:C4 P:A5 SP:FD
beforeNMI = 0 and afterNMI = 0
C08D  D0 FA     BNE $C089                       A:00 X:00 Y:C5 P:A5 SP:FD
beforeNMI = 0 and afterNMI = 0
C089  99 00 00  STA $0000,Y @ 00C5 = 00         A:00 X:00 Y:C5 P:A5 SP:FD
beforeNMI = 0 and afterNMI = 0
C08C  C8        INY                             A:00 X:00 Y:C5 P:A5 SP:FD
beforeNMI = 0 and afterNMI = 0
C08D  D0 FA     BNE $C089                       A:00 X:00 Y:C6 P:A5 SP:FD
beforeNMI = 0 and afterNMI = 0
C089  99 00 00  STA $0000,Y @ 00C6 = 00         A:00 X:00 Y:C6 P:A5 SP:FD
beforeNMI = 0 and afterNMI = 0
C08C  C8        INY                             A:00 X:00 Y:C6 P:A5 SP:FD
beforeNMI = 0 and afterNMI = 0
C08D  D0 FA     BNE $C089                       A:00 X:00 Y:C7 P:A5 SP:FD
beforeNMI = 0 and afterNMI = 0
C089  99 00 00  STA $0000,Y @ 00C7 = 00         A:00 X:00 Y:C7 P:A5 SP:FD
beforeNMI = 0 and afterNMI = 0
C08C  C8        INY                             A:00 X:00 Y:C7 P:A5 SP:FD
beforeNMI = 0 and afterNMI = 0
C08D  D0 FA     BNE $C089                       A:00 X:00 Y:C8 P:A5 SP:FD
beforeNMI = 0 and afterNMI = 0
C089  99 00 00  STA $0000,Y @ 00C8 = 00         A:00 X:00 Y:C8 P:A5 SP:FD
beforeNMI = 0 and afterNMI = 0
C08C  C8        INY                             A:00 X:00 Y:C8 P:A5 SP:FD
beforeNMI = 0 and afterNMI = 0
C08D  D0 FA     BNE $C089                       A:00 X:00 Y:C9 P:A5 SP:FD
beforeNMI = 0 and afterNMI = 0
C089  99 00 00  STA $0000,Y @ 00C9 = 00         A:00 X:00 Y:C9 P:A5 SP:FD
beforeNMI = 0 and afterNMI = 0
C08C  C8        INY                             A:00 X:00 Y:C9 P:A5 SP:FD
beforeNMI = 0 and afterNMI = 0
C08D  D0 FA     BNE $C089                       A:00 X:00 Y:CA P:A5 SP:FD
beforeNMI = 0 and afterNMI = 0
C089  99 00 00  STA $0000,Y @ 00CA = 00         A:00 X:00 Y:CA P:A5 SP:FD
beforeNMI = 0 and afterNMI = 0
C08C  C8        INY                             A:00 X:00 Y:CA P:A5 SP:FD
beforeNMI = 0 and afterNMI = 0
C08D  D0 FA     BNE $C089                       A:00 X:00 Y:CB P:A5 SP:FD
beforeNMI = 0 and afterNMI = 0
C089  99 00 00  STA $0000,Y @ 00CB = 00         A:00 X:00 Y:CB P:A5 SP:FD
beforeNMI = 0 and afterNMI = 0
C08C  C8        INY                             A:00 X:00 Y:CB P:A5 SP:FD
beforeNMI = 0 and afterNMI = 0
C08D  D0 FA     BNE $C089                       A:00 X:00 Y:CC P:A5 SP:FD
beforeNMI = 0 and afterNMI = 0
C089  99 00 00  STA $0000,Y @ 00CC = 00         A:00 X:00 Y:CC P:A5 SP:FD
beforeNMI = 0 and afterNMI = 0
C08C  C8        INY                             A:00 X:00 Y:CC P:A5 SP:FD
beforeNMI = 0 and afterNMI = 0
C08D  D0 FA     BNE $C089                       A:00 X:00 Y:CD P:A5 SP:FD
beforeNMI = 0 and afterNMI = 0
C089  99 00 00  STA $0000,Y @ 00CD = 00         A:00 X:00 Y:CD P:A5 SP:FD
beforeNMI = 0 and afterNMI = 0
C08C  C8        INY                             A:00 X:00 Y:CD P:A5 SP:FD
beforeNMI = 0 and afterNMI = 0
C08D  D0 FA     BNE $C089                       A:00 X:00 Y:CE P:A5 SP:FD
beforeNMI = 0 and afterNMI = 0
C089  99 00 00  STA $0000,Y @ 00CE = 00         A:00 X:00 Y:CE P:A5 SP:FD
beforeNMI = 0 and afterNMI = 0
C08C  C8        INY                             A:00 X:00 Y:CE P:A5 SP:FD
beforeNMI = 0 and afterNMI = 0
C08D  D0 FA     BNE $C089                       A:00 X:00 Y:CF P:A5 SP:FD
beforeNMI = 0 and afterNMI = 0
C089  99 00 00  STA $0000,Y @ 00CF = 00         A:00 X:00 Y:CF P:A5 SP:FD
beforeNMI = 0 and afterNMI = 0
C08C  C8        INY                             A:00 X:00 Y:CF P:A5 SP:FD
beforeNMI = 0 and afterNMI = 0
C08D  D0 FA     BNE $C089                       A:00 X:00 Y:D0 P:A5 SP:FD
beforeNMI = 0 and afterNMI = 0
C089  99 00 00  STA $0000,Y @ 00D0 = 00         A:00 X:00 Y:D0 P:A5 SP:FD
beforeNMI = 0 and afterNMI = 0
C08C  C8        INY                             A:00 X:00 Y:D0 P:A5 SP:FD
beforeNMI = 0 and afterNMI = 0
C08D  D0 FA     BNE $C089                       A:00 X:00 Y:D1 P:A5 SP:FD
beforeNMI = 0 and afterNMI = 0
C089  99 00 00  STA $0000,Y @ 00D1 = 00         A:00 X:00 Y:D1 P:A5 SP:FD
beforeNMI = 0 and afterNMI = 0
C08C  C8        INY                             A:00 X:00 Y:D1 P:A5 SP:FD
beforeNMI = 0 and afterNMI = 0
C08D  D0 FA     BNE $C089                       A:00 X:00 Y:D2 P:A5 SP:FD
beforeNMI = 0 and afterNMI = 0
C089  99 00 00  STA $0000,Y @ 00D2 = 00         A:00 X:00 Y:D2 P:A5 SP:FD
beforeNMI = 0 and afterNMI = 0
C08C  C8        INY                             A:00 X:00 Y:D2 P:A5 SP:FD
beforeNMI = 0 and afterNMI = 0
C08D  D0 FA     BNE $C089                       A:00 X:00 Y:D3 P:A5 SP:FD
beforeNMI = 0 and afterNMI = 0
C089  99 00 00  STA $0000,Y @ 00D3 = 00         A:00 X:00 Y:D3 P:A5 SP:FD
beforeNMI = 0 and afterNMI = 0
C08C  C8        INY                             A:00 X:00 Y:D3 P:A5 SP:FD
beforeNMI = 0 and afterNMI = 0
C08D  D0 FA     BNE $C089                       A:00 X:00 Y:D4 P:A5 SP:FD
beforeNMI = 0 and afterNMI = 0
C089  99 00 00  STA $0000,Y @ 00D4 = 00         A:00 X:00 Y:D4 P:A5 SP:FD
beforeNMI = 0 and afterNMI = 0
C08C  C8        INY                             A:00 X:00 Y:D4 P:A5 SP:FD
beforeNMI = 0 and afterNMI = 0
C08D  D0 FA     BNE $C089                       A:00 X:00 Y:D5 P:A5 SP:FD
beforeNMI = 0 and afterNMI = 0
C089  99 00 00  STA $0000,Y @ 00D5 = 00         A:00 X:00 Y:D5 P:A5 SP:FD
beforeNMI = 0 and afterNMI = 0
C08C  C8        INY                             A:00 X:00 Y:D5 P:A5 SP:FD
beforeNMI = 0 and afterNMI = 0
C08D  D0 FA     BNE $C089                       A:00 X:00 Y:D6 P:A5 SP:FD
beforeNMI = 0 and afterNMI = 0
C089  99 00 00  STA $0000,Y @ 00D6 = 00         A:00 X:00 Y:D6 P:A5 SP:FD
beforeNMI = 0 and afterNMI = 0
C08C  C8        INY                             A:00 X:00 Y:D6 P:A5 SP:FD
beforeNMI = 0 and afterNMI = 0
C08D  D0 FA     BNE $C089                       A:00 X:00 Y:D7 P:A5 SP:FD
beforeNMI = 0 and afterNMI = 0
C089  99 00 00  STA $0000,Y @ 00D7 = 00         A:00 X:00 Y:D7 P:A5 SP:FD
beforeNMI = 0 and afterNMI = 0
C08C  C8        INY                             A:00 X:00 Y:D7 P:A5 SP:FD
beforeNMI = 0 and afterNMI = 0
C08D  D0 FA     BNE $C089                       A:00 X:00 Y:D8 P:A5 SP:FD
beforeNMI = 0 and afterNMI = 0
C089  99 00 00  STA $0000,Y @ 00D8 = 00         A:00 X:00 Y:D8 P:A5 SP:FD
beforeNMI = 0 and afterNMI = 0
C08C  C8        INY                             A:00 X:00 Y:D8 P:A5 SP:FD
beforeNMI = 0 and afterNMI = 0
C08D  D0 FA     BNE $C089                       A:00 X:00 Y:D9 P:A5 SP:FD
beforeNMI = 0 and afterNMI = 0
C089  99 00 00  STA $0000,Y @ 00D9 = 00         A:00 X:00 Y:D9 P:A5 SP:FD
beforeNMI = 0 and afterNMI = 0
C08C  C8        INY                             A:00 X:00 Y:D9 P:A5 SP:FD
beforeNMI = 0 and afterNMI = 0
C08D  D0 FA     BNE $C089                       A:00 X:00 Y:DA P:A5 SP:FD
beforeNMI = 0 and afterNMI = 0
C089  99 00 00  STA $0000,Y @ 00DA = 00         A:00 X:00 Y:DA P:A5 SP:FD
beforeNMI = 0 and afterNMI = 0
C08C  C8        INY                             A:00 X:00 Y:DA P:A5 SP:FD
beforeNMI = 0 and afterNMI = 0
C08D  D0 FA     BNE $C089                       A:00 X:00 Y:DB P:A5 SP:FD
beforeNMI = 0 and afterNMI = 0
C089  99 00 00  STA $0000,Y @ 00DB = 00         A:00 X:00 Y:DB P:A5 SP:FD
beforeNMI = 0 and afterNMI = 0
C08C  C8        INY                             A:00 X:00 Y:DB P:A5 SP:FD
beforeNMI = 0 and afterNMI = 0
C08D  D0 FA     BNE $C089                       A:00 X:00 Y:DC P:A5 SP:FD
beforeNMI = 0 and afterNMI = 0
C089  99 00 00  STA $0000,Y @ 00DC = 00         A:00 X:00 Y:DC P:A5 SP:FD
beforeNMI = 0 and afterNMI = 0
C08C  C8        INY                             A:00 X:00 Y:DC P:A5 SP:FD
beforeNMI = 0 and afterNMI = 0
C08D  D0 FA     BNE $C089                       A:00 X:00 Y:DD P:A5 SP:FD
beforeNMI = 0 and afterNMI = 0
C089  99 00 00  STA $0000,Y @ 00DD = 00         A:00 X:00 Y:DD P:A5 SP:FD
beforeNMI = 0 and afterNMI = 0
C08C  C8        INY                             A:00 X:00 Y:DD P:A5 SP:FD
beforeNMI = 0 and afterNMI = 0
C08D  D0 FA     BNE $C089                       A:00 X:00 Y:DE P:A5 SP:FD
beforeNMI = 0 and afterNMI = 0
C089  99 00 00  STA $0000,Y @ 00DE = 00         A:00 X:00 Y:DE P:A5 SP:FD
beforeNMI = 0 and afterNMI = 0
C08C  C8        INY                             A:00 X:00 Y:DE P:A5 SP:FD
beforeNMI = 0 and afterNMI = 0
C08D  D0 FA     BNE $C089                       A:00 X:00 Y:DF P:A5 SP:FD
beforeNMI = 0 and afterNMI = 0
C089  99 00 00  STA $0000,Y @ 00DF = 00         A:00 X:00 Y:DF P:A5 SP:FD
beforeNMI = 0 and afterNMI = 0
C08C  C8        INY                             A:00 X:00 Y:DF P:A5 SP:FD
beforeNMI = 0 and afterNMI = 0
C08D  D0 FA     BNE $C089                       A:00 X:00 Y:E0 P:A5 SP:FD
beforeNMI = 0 and afterNMI = 0
C089  99 00 00  STA $0000,Y @ 00E0 = 00         A:00 X:00 Y:E0 P:A5 SP:FD
beforeNMI = 0 and afterNMI = 0
C08C  C8        INY                             A:00 X:00 Y:E0 P:A5 SP:FD
beforeNMI = 0 and afterNMI = 0
C08D  D0 FA     BNE $C089                       A:00 X:00 Y:E1 P:A5 SP:FD
beforeNMI = 0 and afterNMI = 0
C089  99 00 00  STA $0000,Y @ 00E1 = 00         A:00 X:00 Y:E1 P:A5 SP:FD
beforeNMI = 0 and afterNMI = 0
C08C  C8        INY                             A:00 X:00 Y:E1 P:A5 SP:FD
beforeNMI = 0 and afterNMI = 0
C08D  D0 FA     BNE $C089                       A:00 X:00 Y:E2 P:A5 SP:FD
beforeNMI = 0 and afterNMI = 0
C089  99 00 00  STA $0000,Y @ 00E2 = 00         A:00 X:00 Y:E2 P:A5 SP:FD
beforeNMI = 0 and afterNMI = 0
C08C  C8        INY                             A:00 X:00 Y:E2 P:A5 SP:FD
beforeNMI = 0 and afterNMI = 0
C08D  D0 FA     BNE $C089                       A:00 X:00 Y:E3 P:A5 SP:FD
beforeNMI = 0 and afterNMI = 0
C089  99 00 00  STA $0000,Y @ 00E3 = 00         A:00 X:00 Y:E3 P:A5 SP:FD
beforeNMI = 0 and afterNMI = 0
C08C  C8        INY                             A:00 X:00 Y:E3 P:A5 SP:FD
beforeNMI = 0 and afterNMI = 0
C08D  D0 FA     BNE $C089                       A:00 X:00 Y:E4 P:A5 SP:FD
beforeNMI = 0 and afterNMI = 0
C089  99 00 00  STA $0000,Y @ 00E4 = 00         A:00 X:00 Y:E4 P:A5 SP:FD
beforeNMI = 0 and afterNMI = 0
C08C  C8        INY                             A:00 X:00 Y:E4 P:A5 SP:FD
beforeNMI = 0 and afterNMI = 0
C08D  D0 FA     BNE $C089                       A:00 X:00 Y:E5 P:A5 SP:FD
beforeNMI = 0 and afterNMI = 0
C089  99 00 00  STA $0000,Y @ 00E5 = 00         A:00 X:00 Y:E5 P:A5 SP:FD
beforeNMI = 0 and afterNMI = 0
C08C  C8        INY                             A:00 X:00 Y:E5 P:A5 SP:FD
beforeNMI = 0 and afterNMI = 0
C08D  D0 FA     BNE $C089                       A:00 X:00 Y:E6 P:A5 SP:FD
beforeNMI = 0 and afterNMI = 0
C089  99 00 00  STA $0000,Y @ 00E6 = 00         A:00 X:00 Y:E6 P:A5 SP:FD
beforeNMI = 0 and afterNMI = 0
C08C  C8        INY                             A:00 X:00 Y:E6 P:A5 SP:FD
beforeNMI = 0 and afterNMI = 0
C08D  D0 FA     BNE $C089                       A:00 X:00 Y:E7 P:A5 SP:FD
beforeNMI = 0 and afterNMI = 0
C089  99 00 00  STA $0000,Y @ 00E7 = 00         A:00 X:00 Y:E7 P:A5 SP:FD
beforeNMI = 0 and afterNMI = 0
C08C  C8        INY                             A:00 X:00 Y:E7 P:A5 SP:FD
beforeNMI = 0 and afterNMI = 0
C08D  D0 FA     BNE $C089                       A:00 X:00 Y:E8 P:A5 SP:FD
beforeNMI = 0 and afterNMI = 0
C089  99 00 00  STA $0000,Y @ 00E8 = 00         A:00 X:00 Y:E8 P:A5 SP:FD
beforeNMI = 0 and afterNMI = 0
C08C  C8        INY                             A:00 X:00 Y:E8 P:A5 SP:FD
beforeNMI = 0 and afterNMI = 0
C08D  D0 FA     BNE $C089                       A:00 X:00 Y:E9 P:A5 SP:FD
beforeNMI = 0 and afterNMI = 0
C089  99 00 00  STA $0000,Y @ 00E9 = 00         A:00 X:00 Y:E9 P:A5 SP:FD
beforeNMI = 0 and afterNMI = 0
C08C  C8        INY                             A:00 X:00 Y:E9 P:A5 SP:FD
beforeNMI = 0 and afterNMI = 0
C08D  D0 FA     BNE $C089                       A:00 X:00 Y:EA P:A5 SP:FD
beforeNMI = 0 and afterNMI = 0
C089  99 00 00  STA $0000,Y @ 00EA = 00         A:00 X:00 Y:EA P:A5 SP:FD
beforeNMI = 0 and afterNMI = 0
C08C  C8        INY                             A:00 X:00 Y:EA P:A5 SP:FD
beforeNMI = 0 and afterNMI = 0
C08D  D0 FA     BNE $C089                       A:00 X:00 Y:EB P:A5 SP:FD
beforeNMI = 0 and afterNMI = 0
C089  99 00 00  STA $0000,Y @ 00EB = 00         A:00 X:00 Y:EB P:A5 SP:FD
beforeNMI = 0 and afterNMI = 0
C08C  C8        INY                             A:00 X:00 Y:EB P:A5 SP:FD
beforeNMI = 0 and afterNMI = 0
C08D  D0 FA     BNE $C089                       A:00 X:00 Y:EC P:A5 SP:FD
beforeNMI = 0 and afterNMI = 0
C089  99 00 00  STA $0000,Y @ 00EC = 00         A:00 X:00 Y:EC P:A5 SP:FD
beforeNMI = 0 and afterNMI = 0
C08C  C8        INY                             A:00 X:00 Y:EC P:A5 SP:FD
beforeNMI = 0 and afterNMI = 0
C08D  D0 FA     BNE $C089                       A:00 X:00 Y:ED P:A5 SP:FD
beforeNMI = 0 and afterNMI = 0
C089  99 00 00  STA $0000,Y @ 00ED = 00         A:00 X:00 Y:ED P:A5 SP:FD
beforeNMI = 0 and afterNMI = 0
C08C  C8        INY                             A:00 X:00 Y:ED P:A5 SP:FD
beforeNMI = 0 and afterNMI = 0
C08D  D0 FA     BNE $C089                       A:00 X:00 Y:EE P:A5 SP:FD
beforeNMI = 0 and afterNMI = 0
C089  99 00 00  STA $0000,Y @ 00EE = 00         A:00 X:00 Y:EE P:A5 SP:FD
beforeNMI = 0 and afterNMI = 0
C08C  C8        INY                             A:00 X:00 Y:EE P:A5 SP:FD
beforeNMI = 0 and afterNMI = 0
C08D  D0 FA     BNE $C089                       A:00 X:00 Y:EF P:A5 SP:FD
beforeNMI = 0 and afterNMI = 0
C089  99 00 00  STA $0000,Y @ 00EF = 00         A:00 X:00 Y:EF P:A5 SP:FD
beforeNMI = 0 and afterNMI = 0
C08C  C8        INY                             A:00 X:00 Y:EF P:A5 SP:FD
beforeNMI = 0 and afterNMI = 0
C08D  D0 FA     BNE $C089                       A:00 X:00 Y:F0 P:A5 SP:FD
beforeNMI = 0 and afterNMI = 0
C089  99 00 00  STA $0000,Y @ 00F0 = 00         A:00 X:00 Y:F0 P:A5 SP:FD
beforeNMI = 0 and afterNMI = 0
C08C  C8        INY                             A:00 X:00 Y:F0 P:A5 SP:FD
beforeNMI = 0 and afterNMI = 0
C08D  D0 FA     BNE $C089                       A:00 X:00 Y:F1 P:A5 SP:FD
beforeNMI = 0 and afterNMI = 0
C089  99 00 00  STA $0000,Y @ 00F1 = 00         A:00 X:00 Y:F1 P:A5 SP:FD
beforeNMI = 0 and afterNMI = 0
C08C  C8        INY                             A:00 X:00 Y:F1 P:A5 SP:FD
beforeNMI = 0 and afterNMI = 0
C08D  D0 FA     BNE $C089                       A:00 X:00 Y:F2 P:A5 SP:FD
beforeNMI = 0 and afterNMI = 0
C089  99 00 00  STA $0000,Y @ 00F2 = 00         A:00 X:00 Y:F2 P:A5 SP:FD
beforeNMI = 0 and afterNMI = 0
C08C  C8        INY                             A:00 X:00 Y:F2 P:A5 SP:FD
beforeNMI = 0 and afterNMI = 0
C08D  D0 FA     BNE $C089                       A:00 X:00 Y:F3 P:A5 SP:FD
beforeNMI = 0 and afterNMI = 0
C089  99 00 00  STA $0000,Y @ 00F3 = 00         A:00 X:00 Y:F3 P:A5 SP:FD
beforeNMI = 0 and afterNMI = 0
C08C  C8        INY                             A:00 X:00 Y:F3 P:A5 SP:FD
beforeNMI = 0 and afterNMI = 0
C08D  D0 FA     BNE $C089                       A:00 X:00 Y:F4 P:A5 SP:FD
beforeNMI = 0 and afterNMI = 0
C089  99 00 00  STA $0000,Y @ 00F4 = 00         A:00 X:00 Y:F4 P:A5 SP:FD
beforeNMI = 0 and afterNMI = 0
C08C  C8        INY                             A:00 X:00 Y:F4 P:A5 SP:FD
beforeNMI = 0 and afterNMI = 0
C08D  D0 FA     BNE $C089                       A:00 X:00 Y:F5 P:A5 SP:FD
beforeNMI = 0 and afterNMI = 0
C089  99 00 00  STA $0000,Y @ 00F5 = 00         A:00 X:00 Y:F5 P:A5 SP:FD
beforeNMI = 0 and afterNMI = 0
C08C  C8        INY                             A:00 X:00 Y:F5 P:A5 SP:FD
beforeNMI = 0 and afterNMI = 0
C08D  D0 FA     BNE $C089                       A:00 X:00 Y:F6 P:A5 SP:FD
beforeNMI = 0 and afterNMI = 0
C089  99 00 00  STA $0000,Y @ 00F6 = 00         A:00 X:00 Y:F6 P:A5 SP:FD
beforeNMI = 0 and afterNMI = 0
C08C  C8        INY                             A:00 X:00 Y:F6 P:A5 SP:FD
beforeNMI = 0 and afterNMI = 0
C08D  D0 FA     BNE $C089                       A:00 X:00 Y:F7 P:A5 SP:FD
beforeNMI = 0 and afterNMI = 0
C089  99 00 00  STA $0000,Y @ 00F7 = 00         A:00 X:00 Y:F7 P:A5 SP:FD
beforeNMI = 0 and afterNMI = 0
C08C  C8        INY                             A:00 X:00 Y:F7 P:A5 SP:FD
beforeNMI = 0 and afterNMI = 0
C08D  D0 FA     BNE $C089                       A:00 X:00 Y:F8 P:A5 SP:FD
beforeNMI = 0 and afterNMI = 0
C089  99 00 00  STA $0000,Y @ 00F8 = 00         A:00 X:00 Y:F8 P:A5 SP:FD
beforeNMI = 0 and afterNMI = 0
C08C  C8        INY                             A:00 X:00 Y:F8 P:A5 SP:FD
beforeNMI = 0 and afterNMI = 0
C08D  D0 FA     BNE $C089                       A:00 X:00 Y:F9 P:A5 SP:FD
beforeNMI = 0 and afterNMI = 0
C089  99 00 00  STA $0000,Y @ 00F9 = 00         A:00 X:00 Y:F9 P:A5 SP:FD
beforeNMI = 0 and afterNMI = 0
C08C  C8        INY                             A:00 X:00 Y:F9 P:A5 SP:FD
beforeNMI = 0 and afterNMI = 0
C08D  D0 FA     BNE $C089                       A:00 X:00 Y:FA P:A5 SP:FD
beforeNMI = 0 and afterNMI = 0
C089  99 00 00  STA $0000,Y @ 00FA = 00         A:00 X:00 Y:FA P:A5 SP:FD
beforeNMI = 0 and afterNMI = 0
C08C  C8        INY                             A:00 X:00 Y:FA P:A5 SP:FD
beforeNMI = 0 and afterNMI = 0
C08D  D0 FA     BNE $C089                       A:00 X:00 Y:FB P:A5 SP:FD
beforeNMI = 0 and afterNMI = 0
C089  99 00 00  STA $0000,Y @ 00FB = 00         A:00 X:00 Y:FB P:A5 SP:FD
beforeNMI = 0 and afterNMI = 0
C08C  C8        INY                             A:00 X:00 Y:FB P:A5 SP:FD
beforeNMI = 0 and afterNMI = 0
C08D  D0 FA     BNE $C089                       A:00 X:00 Y:FC P:A5 SP:FD
beforeNMI = 0 and afterNMI = 0
C089  99 00 00  STA $0000,Y @ 00FC = 00         A:00 X:00 Y:FC P:A5 SP:FD
beforeNMI = 0 and afterNMI = 0
C08C  C8        INY                             A:00 X:00 Y:FC P:A5 SP:FD
beforeNMI = 0 and afterNMI = 0
C08D  D0 FA     BNE $C089                       A:00 X:00 Y:FD P:A5 SP:FD
beforeNMI = 0 and afterNMI = 0
C089  99 00 00  STA $0000,Y @ 00FD = 00         A:00 X:00 Y:FD P:A5 SP:FD
beforeNMI = 0 and afterNMI = 0
C08C  C8        INY                             A:00 X:00 Y:FD P:A5 SP:FD
beforeNMI = 0 and afterNMI = 0
C08D  D0 FA     BNE $C089                       A:00 X:00 Y:FE P:A5 SP:FD
beforeNMI = 0 and afterNMI = 0
C089  99 00 00  STA $0000,Y @ 00FE = 2F         A:00 X:00 Y:FE P:A5 SP:FD
beforeNMI = 0 and afterNMI = 0
C08C  C8        INY                             A:00 X:00 Y:FE P:A5 SP:FD
beforeNMI = 0 and afterNMI = 0
C08D  D0 FA     BNE $C089                       A:00 X:00 Y:FF P:A5 SP:FD
beforeNMI = 0 and afterNMI = 0
C089  99 00 00  STA $0000,Y @ 00FF = 00         A:00 X:00 Y:FF P:A5 SP:FD
beforeNMI = 0 and afterNMI = 0
C08C  C8        INY                             A:00 X:00 Y:FF P:A5 SP:FD
beforeNMI = 0 and afterNMI = 0
C08D  D0 FA     BNE $C089                       A:00 X:00 Y:00 P:27 SP:FD
beforeNMI = 0 and afterNMI = 0
C08F  A0 00     LDY #$00                        A:00 X:00 Y:00 P:27 SP:FD
beforeNMI = 0 and afterNMI = 0
C091  B9 EB C0  LDA $C0EB,Y @ C0EB = 48         A:00 X:00 Y:00 P:27 SP:FD
beforeNMI = 0 and afterNMI = 0
C094  99 52 00  STA $0052,Y @ 0052 = 00         A:48 X:00 Y:00 P:25 SP:FD
beforeNMI = 0 and afterNMI = 0
C097  C8        INY                             A:48 X:00 Y:00 P:25 SP:FD
beforeNMI = 0 and afterNMI = 0
C098  C0 0F     CPY #$0F                        A:48 X:00 Y:01 P:25 SP:FD
beforeNMI = 0 and afterNMI = 0
C09A  D0 F5     BNE $C091                       A:48 X:00 Y:01 P:A4 SP:FD
beforeNMI = 0 and afterNMI = 0
C091  B9 EB C0  LDA $C0EB,Y @ C0EC = 49         A:48 X:00 Y:01 P:A4 SP:FD
beforeNMI = 0 and afterNMI = 0
C094  99 52 00  STA $0052,Y @ 0053 = 00         A:49 X:00 Y:01 P:24 SP:FD
beforeNMI = 0 and afterNMI = 0
C097  C8        INY                             A:49 X:00 Y:01 P:24 SP:FD
beforeNMI = 0 and afterNMI = 0
C098  C0 0F     CPY #$0F                        A:49 X:00 Y:02 P:24 SP:FD
beforeNMI = 0 and afterNMI = 0
C09A  D0 F5     BNE $C091                       A:49 X:00 Y:02 P:A4 SP:FD
beforeNMI = 0 and afterNMI = 0
C091  B9 EB C0  LDA $C0EB,Y @ C0ED = 52         A:49 X:00 Y:02 P:A4 SP:FD
beforeNMI = 0 and afterNMI = 0
C094  99 52 00  STA $0052,Y @ 0054 = 00         A:52 X:00 Y:02 P:24 SP:FD
beforeNMI = 0 and afterNMI = 0
C097  C8        INY                             A:52 X:00 Y:02 P:24 SP:FD
beforeNMI = 0 and afterNMI = 0
C098  C0 0F     CPY #$0F                        A:52 X:00 Y:03 P:24 SP:FD
beforeNMI = 0 and afterNMI = 0
C09A  D0 F5     BNE $C091                       A:52 X:00 Y:03 P:A4 SP:FD
beforeNMI = 0 and afterNMI = 0
C091  B9 EB C0  LDA $C0EB,Y @ C0EE = 4F         A:52 X:00 Y:03 P:A4 SP:FD
beforeNMI = 0 and afterNMI = 0
C094  99 52 00  STA $0052,Y @ 0055 = 00         A:4F X:00 Y:03 P:24 SP:FD
beforeNMI = 0 and afterNMI = 0
C097  C8        INY                             A:4F X:00 Y:03 P:24 SP:FD
beforeNMI = 0 and afterNMI = 0
C098  C0 0F     CPY #$0F                        A:4F X:00 Y:04 P:24 SP:FD
beforeNMI = 0 and afterNMI = 0
C09A  D0 F5     BNE $C091                       A:4F X:00 Y:04 P:A4 SP:FD
beforeNMI = 0 and afterNMI = 0
C091  B9 EB C0  LDA $C0EB,Y @ C0EF = 4B         A:4F X:00 Y:04 P:A4 SP:FD
beforeNMI = 0 and afterNMI = 0
C094  99 52 00  STA $0052,Y @ 0056 = 00         A:4B X:00 Y:04 P:24 SP:FD
beforeNMI = 0 and afterNMI = 0
C097  C8        INY                             A:4B X:00 Y:04 P:24 SP:FD
beforeNMI = 0 and afterNMI = 0
C098  C0 0F     CPY #$0F                        A:4B X:00 Y:05 P:24 SP:FD
beforeNMI = 0 and afterNMI = 0
C09A  D0 F5     BNE $C091                       A:4B X:00 Y:05 P:A4 SP:FD
beforeNMI = 0 and afterNMI = 0
C091  B9 EB C0  LDA $C0EB,Y @ C0F0 = 49         A:4B X:00 Y:05 P:A4 SP:FD
beforeNMI = 0 and afterNMI = 0
C094  99 52 00  STA $0052,Y @ 0057 = 00         A:49 X:00 Y:05 P:24 SP:FD
beforeNMI = 0 and afterNMI = 0
C097  C8        INY                             A:49 X:00 Y:05 P:24 SP:FD
beforeNMI = 0 and afterNMI = 0
C098  C0 0F     CPY #$0F                        A:49 X:00 Y:06 P:24 SP:FD
beforeNMI = 0 and afterNMI = 0
C09A  D0 F5     BNE $C091                       A:49 X:00 Y:06 P:A4 SP:FD
beforeNMI = 0 and afterNMI = 0
C091  B9 EB C0  LDA $C0EB,Y @ C0F1 = 20         A:49 X:00 Y:06 P:A4 SP:FD
beforeNMI = 0 and afterNMI = 0
C094  99 52 00  STA $0052,Y @ 0058 = 00         A:20 X:00 Y:06 P:24 SP:FD
beforeNMI = 0 and afterNMI = 0
C097  C8        INY                             A:20 X:00 Y:06 P:24 SP:FD
beforeNMI = 0 and afterNMI = 0
C098  C0 0F     CPY #$0F                        A:20 X:00 Y:07 P:24 SP:FD
beforeNMI = 0 and afterNMI = 0
C09A  D0 F5     BNE $C091                       A:20 X:00 Y:07 P:A4 SP:FD
beforeNMI = 0 and afterNMI = 0
C091  B9 EB C0  LDA $C0EB,Y @ C0F2 = 41         A:20 X:00 Y:07 P:A4 SP:FD
beforeNMI = 0 and afterNMI = 0
C094  99 52 00  STA $0052,Y @ 0059 = 00         A:41 X:00 Y:07 P:24 SP:FD
beforeNMI = 0 and afterNMI = 0
C097  C8        INY                             A:41 X:00 Y:07 P:24 SP:FD
beforeNMI = 0 and afterNMI = 0
C098  C0 0F     CPY #$0F                        A:41 X:00 Y:08 P:24 SP:FD
beforeNMI = 0 and afterNMI = 0
C09A  D0 F5     BNE $C091                       A:41 X:00 Y:08 P:A4 SP:FD
beforeNMI = 0 and afterNMI = 0
C091  B9 EB C0  LDA $C0EB,Y @ C0F3 = 4F         A:41 X:00 Y:08 P:A4 SP:FD
beforeNMI = 0 and afterNMI = 0
C094  99 52 00  STA $0052,Y @ 005A = 00         A:4F X:00 Y:08 P:24 SP:FD
beforeNMI = 0 and afterNMI = 0
C097  C8        INY                             A:4F X:00 Y:08 P:24 SP:FD
beforeNMI = 0 and afterNMI = 0
C098  C0 0F     CPY #$0F                        A:4F X:00 Y:09 P:24 SP:FD
beforeNMI = 0 and afterNMI = 0
C09A  D0 F5     BNE $C091                       A:4F X:00 Y:09 P:A4 SP:FD
beforeNMI = 0 and afterNMI = 0
C091  B9 EB C0  LDA $C0EB,Y @ C0F4 = 59         A:4F X:00 Y:09 P:A4 SP:FD
beforeNMI = 0 and afterNMI = 0
C094  99 52 00  STA $0052,Y @ 005B = 00         A:59 X:00 Y:09 P:24 SP:FD
beforeNMI = 0 and afterNMI = 0
C097  C8        INY                             A:59 X:00 Y:09 P:24 SP:FD
beforeNMI = 0 and afterNMI = 0
C098  C0 0F     CPY #$0F                        A:59 X:00 Y:0A P:24 SP:FD
beforeNMI = 0 and afterNMI = 0
C09A  D0 F5     BNE $C091                       A:59 X:00 Y:0A P:A4 SP:FD
beforeNMI = 0 and afterNMI = 0
C091  B9 EB C0  LDA $C0EB,Y @ C0F5 = 41         A:59 X:00 Y:0A P:A4 SP:FD
beforeNMI = 0 and afterNMI = 0
C094  99 52 00  STA $0052,Y @ 005C = 00         A:41 X:00 Y:0A P:24 SP:FD
beforeNMI = 0 and afterNMI = 0
C097  C8        INY                             A:41 X:00 Y:0A P:24 SP:FD
beforeNMI = 0 and afterNMI = 0
C098  C0 0F     CPY #$0F                        A:41 X:00 Y:0B P:24 SP:FD
beforeNMI = 0 and afterNMI = 0
C09A  D0 F5     BNE $C091                       A:41 X:00 Y:0B P:A4 SP:FD
beforeNMI = 0 and afterNMI = 0
C091  B9 EB C0  LDA $C0EB,Y @ C0F6 = 47         A:41 X:00 Y:0B P:A4 SP:FD
beforeNMI = 0 and afterNMI = 0
C094  99 52 00  STA $0052,Y @ 005D = 00         A:47 X:00 Y:0B P:24 SP:FD
beforeNMI = 0 and afterNMI = 0
C097  C8        INY                             A:47 X:00 Y:0B P:24 SP:FD
beforeNMI = 0 and afterNMI = 0
C098  C0 0F     CPY #$0F                        A:47 X:00 Y:0C P:24 SP:FD
beforeNMI = 0 and afterNMI = 0
C09A  D0 F5     BNE $C091                       A:47 X:00 Y:0C P:A4 SP:FD
beforeNMI = 0 and afterNMI = 0
C091  B9 EB C0  LDA $C0EB,Y @ C0F7 = 49         A:47 X:00 Y:0C P:A4 SP:FD
beforeNMI = 0 and afterNMI = 0
C094  99 52 00  STA $0052,Y @ 005E = 00         A:49 X:00 Y:0C P:24 SP:FD
beforeNMI = 0 and afterNMI = 0
C097  C8        INY                             A:49 X:00 Y:0C P:24 SP:FD
beforeNMI = 0 and afterNMI = 0
C098  C0 0F     CPY #$0F                        A:49 X:00 Y:0D P:24 SP:FD
beforeNMI = 0 and afterNMI = 0
C09A  D0 F5     BNE $C091                       A:49 X:00 Y:0D P:A4 SP:FD
beforeNMI = 0 and afterNMI = 0
C091  B9 EB C0  LDA $C0EB,Y @ C0F8 = AA         A:49 X:00 Y:0D P:A4 SP:FD
beforeNMI = 0 and afterNMI = 0
C094  99 52 00  STA $0052,Y @ 005F = 00         A:AA X:00 Y:0D P:A4 SP:FD
beforeNMI = 0 and afterNMI = 0
C097  C8        INY                             A:AA X:00 Y:0D P:A4 SP:FD
beforeNMI = 0 and afterNMI = 0
C098  C0 0F     CPY #$0F                        A:AA X:00 Y:0E P:24 SP:FD
beforeNMI = 0 and afterNMI = 0
C09A  D0 F5     BNE $C091                       A:AA X:00 Y:0E P:A4 SP:FD
beforeNMI = 0 and afterNMI = 0
C091  B9 EB C0  LDA $C0EB,Y @ C0F9 = 55         A:AA X:00 Y:0E P:A4 SP:FD
beforeNMI = 0 and afterNMI = 0
C094  99 52 00  STA $0052,Y @ 0060 = 00         A:55 X:00 Y:0E P:24 SP:FD
beforeNMI = 0 and afterNMI = 0
C097  C8        INY                             A:55 X:00 Y:0E P:24 SP:FD
beforeNMI = 0 and afterNMI = 0
C098  C0 0F     CPY #$0F                        A:55 X:00 Y:0F P:24 SP:FD
beforeNMI = 0 and afterNMI = 0
C09A  D0 F5     BNE $C091                       A:55 X:00 Y:0F P:27 SP:FD
beforeNMI = 0 and afterNMI = 0
C09C  A9 01     LDA #$01                        A:55 X:00 Y:0F P:27 SP:FD
beforeNMI = 0 and afterNMI = 0
C09E  85 64     STA $64 = 00                    A:01 X:00 Y:0F P:25 SP:FD
beforeNMI = 0 and afterNMI = 0
C0A0  A0 00     LDY #$00                        A:01 X:00 Y:0F P:25 SP:FD
beforeNMI = 0 and afterNMI = 0
C0A2  84 3F     STY $3F = 00                    A:01 X:00 Y:00 P:27 SP:FD
beforeNMI = 0 and afterNMI = 0
C0A4  A9 07     LDA #$07                        A:01 X:00 Y:00 P:27 SP:FD
beforeNMI = 0 and afterNMI = 0
C0A6  85 45     STA $45 = 00                    A:07 X:00 Y:00 P:25 SP:FD
beforeNMI = 0 and afterNMI = 0
C0A8  A9 01     LDA #$01                        A:07 X:00 Y:00 P:25 SP:FD
beforeNMI = 0 and afterNMI = 0
C0AA  C5 47     CMP $47 = 00                    A:01 X:00 Y:00 P:25 SP:FD
beforeNMI = 0 and afterNMI = 0
C0AC  D0 19     BNE $C0C7                       A:01 X:00 Y:00 P:25 SP:FD
beforeNMI = 0 and afterNMI = 0
C0C7  A9 1F     LDA #$1F                        A:01 X:00 Y:00 P:25 SP:FD
beforeNMI = 0 and afterNMI = 0
APU not supported yetC0C9  8D 15 40  STA $4015 = 00                  A:1F X:00 Y:00 P:25 SP:FD
APU not supported yetbeforeNMI = 0 and afterNMI = 0
C0CC  A9 C0     LDA #$C0                        A:1F X:00 Y:00 P:25 SP:FD
beforeNMI = 0 and afterNMI = 0
APU not supported yetC0CE  8D 17 40  STA $4017 = 00                  A:C0 X:00 Y:00 P:A5 SP:FD
APU not supported yetbeforeNMI = 0 and afterNMI = 0
C0D1  20 4B EE  JSR $EE4B                       A:C0 X:00 Y:00 P:A5 SP:FD
beforeNMI = 0 and afterNMI = 0
EE4B  A9 00     LDA #$00                        A:C0 X:00 Y:00 P:A5 SP:FB
beforeNMI = 0 and afterNMI = 0
EE4D  85 F0     STA $F0 = 00                    A:00 X:00 Y:00 P:27 SP:FB
beforeNMI = 0 and afterNMI = 0
EE4F  A9 06     LDA #$06                        A:00 X:00 Y:00 P:27 SP:FB
beforeNMI = 0 and afterNMI = 0
EE51  85 F1     STA $F1 = 00                    A:06 X:00 Y:00 P:25 SP:FB
beforeNMI = 0 and afterNMI = 0
EE53  A9 20     LDA #$20                        A:06 X:00 Y:00 P:25 SP:FB
beforeNMI = 0 and afterNMI = 0
EE55  85 F2     STA $F2 = 00                    A:20 X:00 Y:00 P:25 SP:FB
beforeNMI = 0 and afterNMI = 0
EE57  A9 06     LDA #$06                        A:20 X:00 Y:00 P:25 SP:FB
beforeNMI = 0 and afterNMI = 0
EE59  85 F3     STA $F3 = 00                    A:06 X:00 Y:00 P:25 SP:FB
beforeNMI = 0 and afterNMI = 0
EE5B  AD BF F0  LDA $F0BF = C1                  A:06 X:00 Y:00 P:25 SP:FB
beforeNMI = 0 and afterNMI = 0
EE5E  85 F4     STA $F4 = 00                    A:C1 X:00 Y:00 P:A5 SP:FB
beforeNMI = 0 and afterNMI = 0
EE60  AD C0 F0  LDA $F0C0 = F0                  A:C1 X:00 Y:00 P:A5 SP:FB
beforeNMI = 0 and afterNMI = 0
EE63  85 F5     STA $F5 = 00                    A:F0 X:00 Y:00 P:A5 SP:FB
beforeNMI = 0 and afterNMI = 0
EE65  A9 40     LDA #$40                        A:F0 X:00 Y:00 P:A5 SP:FB
beforeNMI = 0 and afterNMI = 0
EE67  85 F7     STA $F7 = 00                    A:40 X:00 Y:00 P:25 SP:FB
beforeNMI = 0 and afterNMI = 0
EE69  A9 1F     LDA #$1F                        A:40 X:00 Y:00 P:25 SP:FB
beforeNMI = 0 and afterNMI = 0
APU not supported yetEE6B  8D 15 40  STA $4015 = 00                  A:1F X:00 Y:00 P:25 SP:FB
APU not supported yetbeforeNMI = 0 and afterNMI = 0
EE6E  A9 C0     LDA #$C0                        A:1F X:00 Y:00 P:25 SP:FB
beforeNMI = 0 and afterNMI = 0
APU not supported yetEE70  8D 17 40  STA $4017 = 00                  A:C0 X:00 Y:00 P:A5 SP:FB
APU not supported yetbeforeNMI = 0 and afterNMI = 0
EE73  A0 00     LDY #$00                        A:C0 X:00 Y:00 P:A5 SP:FB
beforeNMI = 0 and afterNMI = 0
EE75  A9 00     LDA #$00                        A:C0 X:00 Y:00 P:27 SP:FB
beforeNMI = 0 and afterNMI = 0
EE77  91 F0     STA ($F0),Y = 0600 @ 0600 = 00  A:00 X:00 Y:00 P:27 SP:FB
beforeNMI = 0 and afterNMI = 0
EE79  C8        INY                             A:00 X:00 Y:00 P:27 SP:FB
beforeNMI = 0 and afterNMI = 0
EE7A  C0 10     CPY #$10                        A:00 X:00 Y:01 P:25 SP:FB
beforeNMI = 0 and afterNMI = 0
EE7C  D0 F9     BNE $EE77                       A:00 X:00 Y:01 P:A4 SP:FB
beforeNMI = 0 and afterNMI = 0
EE77  91 F0     STA ($F0),Y = 0600 @ 0601 = 00  A:00 X:00 Y:01 P:A4 SP:FB
beforeNMI = 0 and afterNMI = 0
EE79  C8        INY                             A:00 X:00 Y:01 P:A4 SP:FB
beforeNMI = 0 and afterNMI = 0
EE7A  C0 10     CPY #$10                        A:00 X:00 Y:02 P:24 SP:FB
beforeNMI = 0 and afterNMI = 0
EE7C  D0 F9     BNE $EE77                       A:00 X:00 Y:02 P:A4 SP:FB
beforeNMI = 0 and afterNMI = 0
EE77  91 F0     STA ($F0),Y = 0600 @ 0602 = 00  A:00 X:00 Y:02 P:A4 SP:FB
beforeNMI = 0 and afterNMI = 0
EE79  C8        INY                             A:00 X:00 Y:02 P:A4 SP:FB
beforeNMI = 0 and afterNMI = 0
EE7A  C0 10     CPY #$10                        A:00 X:00 Y:03 P:24 SP:FB
beforeNMI = 0 and afterNMI = 0
EE7C  D0 F9     BNE $EE77                       A:00 X:00 Y:03 P:A4 SP:FB
beforeNMI = 0 and afterNMI = 0
EE77  91 F0     STA ($F0),Y = 0600 @ 0603 = 00  A:00 X:00 Y:03 P:A4 SP:FB
beforeNMI = 0 and afterNMI = 0
EE79  C8        INY                             A:00 X:00 Y:03 P:A4 SP:FB
beforeNMI = 0 and afterNMI = 0
EE7A  C0 10     CPY #$10                        A:00 X:00 Y:04 P:24 SP:FB
beforeNMI = 0 and afterNMI = 0
EE7C  D0 F9     BNE $EE77                       A:00 X:00 Y:04 P:A4 SP:FB
beforeNMI = 0 and afterNMI = 0
EE77  91 F0     STA ($F0),Y = 0600 @ 0604 = 00  A:00 X:00 Y:04 P:A4 SP:FB
beforeNMI = 0 and afterNMI = 0
EE79  C8        INY                             A:00 X:00 Y:04 P:A4 SP:FB
beforeNMI = 0 and afterNMI = 0
EE7A  C0 10     CPY #$10                        A:00 X:00 Y:05 P:24 SP:FB
beforeNMI = 0 and afterNMI = 0
EE7C  D0 F9     BNE $EE77                       A:00 X:00 Y:05 P:A4 SP:FB
beforeNMI = 0 and afterNMI = 0
EE77  91 F0     STA ($F0),Y = 0600 @ 0605 = 00  A:00 X:00 Y:05 P:A4 SP:FB
beforeNMI = 0 and afterNMI = 0
EE79  C8        INY                             A:00 X:00 Y:05 P:A4 SP:FB
beforeNMI = 0 and afterNMI = 0
EE7A  C0 10     CPY #$10                        A:00 X:00 Y:06 P:24 SP:FB
beforeNMI = 0 and afterNMI = 0
EE7C  D0 F9     BNE $EE77                       A:00 X:00 Y:06 P:A4 SP:FB
beforeNMI = 0 and afterNMI = 0
EE77  91 F0     STA ($F0),Y = 0600 @ 0606 = 00  A:00 X:00 Y:06 P:A4 SP:FB
beforeNMI = 0 and afterNMI = 0
EE79  C8        INY                             A:00 X:00 Y:06 P:A4 SP:FB
beforeNMI = 0 and afterNMI = 0
EE7A  C0 10     CPY #$10                        A:00 X:00 Y:07 P:24 SP:FB
beforeNMI = 0 and afterNMI = 0
EE7C  D0 F9     BNE $EE77                       A:00 X:00 Y:07 P:A4 SP:FB
beforeNMI = 0 and afterNMI = 0
EE77  91 F0     STA ($F0),Y = 0600 @ 0607 = 00  A:00 X:00 Y:07 P:A4 SP:FB
beforeNMI = 0 and afterNMI = 0
EE79  C8        INY                             A:00 X:00 Y:07 P:A4 SP:FB
beforeNMI = 0 and afterNMI = 0
EE7A  C0 10     CPY #$10                        A:00 X:00 Y:08 P:24 SP:FB
beforeNMI = 0 and afterNMI = 0
EE7C  D0 F9     BNE $EE77                       A:00 X:00 Y:08 P:A4 SP:FB
beforeNMI = 0 and afterNMI = 0
EE77  91 F0     STA ($F0),Y = 0600 @ 0608 = 00  A:00 X:00 Y:08 P:A4 SP:FB
beforeNMI = 0 and afterNMI = 0
EE79  C8        INY                             A:00 X:00 Y:08 P:A4 SP:FB
beforeNMI = 0 and afterNMI = 0
EE7A  C0 10     CPY #$10                        A:00 X:00 Y:09 P:24 SP:FB
beforeNMI = 0 and afterNMI = 0
EE7C  D0 F9     BNE $EE77                       A:00 X:00 Y:09 P:A4 SP:FB
beforeNMI = 0 and afterNMI = 0
EE77  91 F0     STA ($F0),Y = 0600 @ 0609 = 00  A:00 X:00 Y:09 P:A4 SP:FB
beforeNMI = 0 and afterNMI = 0
EE79  C8        INY                             A:00 X:00 Y:09 P:A4 SP:FB
beforeNMI = 0 and afterNMI = 0
EE7A  C0 10     CPY #$10                        A:00 X:00 Y:0A P:24 SP:FB
beforeNMI = 0 and afterNMI = 0
EE7C  D0 F9     BNE $EE77                       A:00 X:00 Y:0A P:A4 SP:FB
beforeNMI = 0 and afterNMI = 0
EE77  91 F0     STA ($F0),Y = 0600 @ 060A = 00  A:00 X:00 Y:0A P:A4 SP:FB
beforeNMI = 0 and afterNMI = 0
EE79  C8        INY                             A:00 X:00 Y:0A P:A4 SP:FB
beforeNMI = 0 and afterNMI = 0
EE7A  C0 10     CPY #$10                        A:00 X:00 Y:0B P:24 SP:FB
beforeNMI = 0 and afterNMI = 0
EE7C  D0 F9     BNE $EE77                       A:00 X:00 Y:0B P:A4 SP:FB
beforeNMI = 0 and afterNMI = 0
EE77  91 F0     STA ($F0),Y = 0600 @ 060B = 00  A:00 X:00 Y:0B P:A4 SP:FB
beforeNMI = 0 and afterNMI = 0
EE79  C8        INY                             A:00 X:00 Y:0B P:A4 SP:FB
beforeNMI = 0 and afterNMI = 0
EE7A  C0 10     CPY #$10                        A:00 X:00 Y:0C P:24 SP:FB
beforeNMI = 0 and afterNMI = 0
EE7C  D0 F9     BNE $EE77                       A:00 X:00 Y:0C P:A4 SP:FB
beforeNMI = 0 and afterNMI = 0
EE77  91 F0     STA ($F0),Y = 0600 @ 060C = 00  A:00 X:00 Y:0C P:A4 SP:FB
beforeNMI = 0 and afterNMI = 0
EE79  C8        INY                             A:00 X:00 Y:0C P:A4 SP:FB
beforeNMI = 0 and afterNMI = 0
EE7A  C0 10     CPY #$10                        A:00 X:00 Y:0D P:24 SP:FB
beforeNMI = 0 and afterNMI = 0
EE7C  D0 F9     BNE $EE77                       A:00 X:00 Y:0D P:A4 SP:FB
beforeNMI = 0 and afterNMI = 0
EE77  91 F0     STA ($F0),Y = 0600 @ 060D = 00  A:00 X:00 Y:0D P:A4 SP:FB
beforeNMI = 0 and afterNMI = 0
EE79  C8        INY                             A:00 X:00 Y:0D P:A4 SP:FB
beforeNMI = 0 and afterNMI = 0
EE7A  C0 10     CPY #$10                        A:00 X:00 Y:0E P:24 SP:FB
beforeNMI = 0 and afterNMI = 0
EE7C  D0 F9     BNE $EE77                       A:00 X:00 Y:0E P:A4 SP:FB
beforeNMI = 0 and afterNMI = 0
EE77  91 F0     STA ($F0),Y = 0600 @ 060E = 00  A:00 X:00 Y:0E P:A4 SP:FB
beforeNMI = 0 and afterNMI = 0
EE79  C8        INY                             A:00 X:00 Y:0E P:A4 SP:FB
beforeNMI = 0 and afterNMI = 0
EE7A  C0 10     CPY #$10                        A:00 X:00 Y:0F P:24 SP:FB
beforeNMI = 0 and afterNMI = 0
EE7C  D0 F9     BNE $EE77                       A:00 X:00 Y:0F P:A4 SP:FB
beforeNMI = 0 and afterNMI = 0
EE77  91 F0     STA ($F0),Y = 0600 @ 060F = 00  A:00 X:00 Y:0F P:A4 SP:FB
beforeNMI = 0 and afterNMI = 0
EE79  C8        INY                             A:00 X:00 Y:0F P:A4 SP:FB
beforeNMI = 0 and afterNMI = 0
EE7A  C0 10     CPY #$10                        A:00 X:00 Y:10 P:24 SP:FB
beforeNMI = 0 and afterNMI = 0
EE7C  D0 F9     BNE $EE77                       A:00 X:00 Y:10 P:27 SP:FB
beforeNMI = 0 and afterNMI = 0
EE7E  A0 00     LDY #$00                        A:00 X:00 Y:10 P:27 SP:FB
beforeNMI = 0 and afterNMI = 0
EE80  A2 10     LDX #$10                        A:00 X:00 Y:00 P:27 SP:FB
beforeNMI = 0 and afterNMI = 0
EE82  A9 00     LDA #$00                        A:00 X:10 Y:00 P:25 SP:FB
beforeNMI = 0 and afterNMI = 0
EE84  91 F2     STA ($F2),Y = 0620 @ 0620 = 00  A:00 X:10 Y:00 P:27 SP:FB
beforeNMI = 0 and afterNMI = 0
EE86  98        TYA                             A:00 X:10 Y:00 P:27 SP:FB
beforeNMI = 0 and afterNMI = 0
EE87  18        CLC                             A:00 X:10 Y:00 P:27 SP:FB
beforeNMI = 0 and afterNMI = 0
EE88  69 08     ADC #$08                        A:00 X:10 Y:00 P:26 SP:FB
beforeNMI = 0 and afterNMI = 0
EE8A  A8        TAY                             A:08 X:10 Y:00 P:24 SP:FB
beforeNMI = 0 and afterNMI = 0
EE8B  CA        DEX                             A:08 X:10 Y:08 P:24 SP:FB
beforeNMI = 0 and afterNMI = 0
EE8C  D0 F4     BNE $EE82                       A:08 X:0F Y:08 P:24 SP:FB
beforeNMI = 0 and afterNMI = 0
EE82  A9 00     LDA #$00                        A:08 X:0F Y:08 P:24 SP:FB
beforeNMI = 0 and afterNMI = 0
EE84  91 F2     STA ($F2),Y = 0620 @ 0628 = 00  A:00 X:0F Y:08 P:26 SP:FB
beforeNMI = 0 and afterNMI = 0
EE86  98        TYA                             A:00 X:0F Y:08 P:26 SP:FB
beforeNMI = 0 and afterNMI = 0
EE87  18        CLC                             A:08 X:0F Y:08 P:24 SP:FB
beforeNMI = 0 and afterNMI = 0
EE88  69 08     ADC #$08                        A:08 X:0F Y:08 P:24 SP:FB
beforeNMI = 0 and afterNMI = 0
EE8A  A8        TAY                             A:10 X:0F Y:08 P:24 SP:FB
beforeNMI = 0 and afterNMI = 0
EE8B  CA        DEX                             A:10 X:0F Y:10 P:24 SP:FB
beforeNMI = 0 and afterNMI = 0
EE8C  D0 F4     BNE $EE82                       A:10 X:0E Y:10 P:24 SP:FB
beforeNMI = 0 and afterNMI = 0
EE82  A9 00     LDA #$00                        A:10 X:0E Y:10 P:24 SP:FB
beforeNMI = 0 and afterNMI = 0
EE84  91 F2     STA ($F2),Y = 0620 @ 0630 = 00  A:00 X:0E Y:10 P:26 SP:FB
beforeNMI = 0 and afterNMI = 0
EE86  98        TYA                             A:00 X:0E Y:10 P:26 SP:FB
beforeNMI = 0 and afterNMI = 0
EE87  18        CLC                             A:10 X:0E Y:10 P:24 SP:FB
beforeNMI = 0 and afterNMI = 0
EE88  69 08     ADC #$08                        A:10 X:0E Y:10 P:24 SP:FB
beforeNMI = 0 and afterNMI = 0
EE8A  A8        TAY                             A:18 X:0E Y:10 P:24 SP:FB
beforeNMI = 0 and afterNMI = 0
EE8B  CA        DEX                             A:18 X:0E Y:18 P:24 SP:FB
beforeNMI = 0 and afterNMI = 0
EE8C  D0 F4     BNE $EE82                       A:18 X:0D Y:18 P:24 SP:FB
beforeNMI = 0 and afterNMI = 0
EE82  A9 00     LDA #$00                        A:18 X:0D Y:18 P:24 SP:FB
beforeNMI = 0 and afterNMI = 0
EE84  91 F2     STA ($F2),Y = 0620 @ 0638 = 00  A:00 X:0D Y:18 P:26 SP:FB
beforeNMI = 0 and afterNMI = 0
EE86  98        TYA                             A:00 X:0D Y:18 P:26 SP:FB
beforeNMI = 0 and afterNMI = 0
EE87  18        CLC                             A:18 X:0D Y:18 P:24 SP:FB
beforeNMI = 0 and afterNMI = 0
EE88  69 08     ADC #$08                        A:18 X:0D Y:18 P:24 SP:FB
beforeNMI = 0 and afterNMI = 0
EE8A  A8        TAY                             A:20 X:0D Y:18 P:24 SP:FB
beforeNMI = 0 and afterNMI = 0
EE8B  CA        DEX                             A:20 X:0D Y:20 P:24 SP:FB
beforeNMI = 0 and afterNMI = 0
EE8C  D0 F4     BNE $EE82                       A:20 X:0C Y:20 P:24 SP:FB
beforeNMI = 0 and afterNMI = 0
EE82  A9 00     LDA #$00                        A:20 X:0C Y:20 P:24 SP:FB
beforeNMI = 0 and afterNMI = 0
EE84  91 F2     STA ($F2),Y = 0620 @ 0640 = 00  A:00 X:0C Y:20 P:26 SP:FB
beforeNMI = 0 and afterNMI = 0
EE86  98        TYA                             A:00 X:0C Y:20 P:26 SP:FB
beforeNMI = 0 and afterNMI = 0
EE87  18        CLC                             A:20 X:0C Y:20 P:24 SP:FB
beforeNMI = 0 and afterNMI = 0
EE88  69 08     ADC #$08                        A:20 X:0C Y:20 P:24 SP:FB
beforeNMI = 0 and afterNMI = 0
EE8A  A8        TAY                             A:28 X:0C Y:20 P:24 SP:FB
beforeNMI = 0 and afterNMI = 0
EE8B  CA        DEX                             A:28 X:0C Y:28 P:24 SP:FB
beforeNMI = 0 and afterNMI = 0
EE8C  D0 F4     BNE $EE82                       A:28 X:0B Y:28 P:24 SP:FB
beforeNMI = 0 and afterNMI = 0
EE82  A9 00     LDA #$00                        A:28 X:0B Y:28 P:24 SP:FB
beforeNMI = 0 and afterNMI = 0
EE84  91 F2     STA ($F2),Y = 0620 @ 0648 = 00  A:00 X:0B Y:28 P:26 SP:FB
beforeNMI = 0 and afterNMI = 0
EE86  98        TYA                             A:00 X:0B Y:28 P:26 SP:FB
beforeNMI = 0 and afterNMI = 0
EE87  18        CLC                             A:28 X:0B Y:28 P:24 SP:FB
beforeNMI = 0 and afterNMI = 0
EE88  69 08     ADC #$08                        A:28 X:0B Y:28 P:24 SP:FB
beforeNMI = 0 and afterNMI = 0
EE8A  A8        TAY                             A:30 X:0B Y:28 P:24 SP:FB
beforeNMI = 0 and afterNMI = 0
EE8B  CA        DEX                             A:30 X:0B Y:30 P:24 SP:FB
beforeNMI = 0 and afterNMI = 0
EE8C  D0 F4     BNE $EE82                       A:30 X:0A Y:30 P:24 SP:FB
beforeNMI = 0 and afterNMI = 0
EE82  A9 00     LDA #$00                        A:30 X:0A Y:30 P:24 SP:FB
beforeNMI = 0 and afterNMI = 0
EE84  91 F2     STA ($F2),Y = 0620 @ 0650 = 00  A:00 X:0A Y:30 P:26 SP:FB
beforeNMI = 0 and afterNMI = 0
EE86  98        TYA                             A:00 X:0A Y:30 P:26 SP:FB
beforeNMI = 0 and afterNMI = 0
EE87  18        CLC                             A:30 X:0A Y:30 P:24 SP:FB
beforeNMI = 0 and afterNMI = 0
EE88  69 08     ADC #$08                        A:30 X:0A Y:30 P:24 SP:FB
beforeNMI = 0 and afterNMI = 0
EE8A  A8        TAY                             A:38 X:0A Y:30 P:24 SP:FB
beforeNMI = 0 and afterNMI = 0
EE8B  CA        DEX                             A:38 X:0A Y:38 P:24 SP:FB
beforeNMI = 0 and afterNMI = 0
EE8C  D0 F4     BNE $EE82                       A:38 X:09 Y:38 P:24 SP:FB
beforeNMI = 0 and afterNMI = 0
EE82  A9 00     LDA #$00                        A:38 X:09 Y:38 P:24 SP:FB
beforeNMI = 0 and afterNMI = 0
EE84  91 F2     STA ($F2),Y = 0620 @ 0658 = 00  A:00 X:09 Y:38 P:26 SP:FB
beforeNMI = 0 and afterNMI = 0
EE86  98        TYA                             A:00 X:09 Y:38 P:26 SP:FB
beforeNMI = 0 and afterNMI = 0
EE87  18        CLC                             A:38 X:09 Y:38 P:24 SP:FB
beforeNMI = 0 and afterNMI = 0
EE88  69 08     ADC #$08                        A:38 X:09 Y:38 P:24 SP:FB
beforeNMI = 0 and afterNMI = 0
EE8A  A8        TAY                             A:40 X:09 Y:38 P:24 SP:FB
beforeNMI = 0 and afterNMI = 0
EE8B  CA        DEX                             A:40 X:09 Y:40 P:24 SP:FB
beforeNMI = 0 and afterNMI = 0
EE8C  D0 F4     BNE $EE82                       A:40 X:08 Y:40 P:24 SP:FB
beforeNMI = 0 and afterNMI = 0
EE82  A9 00     LDA #$00                        A:40 X:08 Y:40 P:24 SP:FB
beforeNMI = 0 and afterNMI = 0
EE84  91 F2     STA ($F2),Y = 0620 @ 0660 = 00  A:00 X:08 Y:40 P:26 SP:FB
beforeNMI = 0 and afterNMI = 0
EE86  98        TYA                             A:00 X:08 Y:40 P:26 SP:FB
beforeNMI = 0 and afterNMI = 0
EE87  18        CLC                             A:40 X:08 Y:40 P:24 SP:FB
beforeNMI = 0 and afterNMI = 0
EE88  69 08     ADC #$08                        A:40 X:08 Y:40 P:24 SP:FB
beforeNMI = 0 and afterNMI = 0
EE8A  A8        TAY                             A:48 X:08 Y:40 P:24 SP:FB
beforeNMI = 0 and afterNMI = 0
EE8B  CA        DEX                             A:48 X:08 Y:48 P:24 SP:FB
beforeNMI = 0 and afterNMI = 0
EE8C  D0 F4     BNE $EE82                       A:48 X:07 Y:48 P:24 SP:FB
beforeNMI = 0 and afterNMI = 0
EE82  A9 00     LDA #$00                        A:48 X:07 Y:48 P:24 SP:FB
beforeNMI = 0 and afterNMI = 0
EE84  91 F2     STA ($F2),Y = 0620 @ 0668 = 00  A:00 X:07 Y:48 P:26 SP:FB
beforeNMI = 0 and afterNMI = 0
EE86  98        TYA                             A:00 X:07 Y:48 P:26 SP:FB
beforeNMI = 0 and afterNMI = 0
EE87  18        CLC                             A:48 X:07 Y:48 P:24 SP:FB
beforeNMI = 0 and afterNMI = 0
EE88  69 08     ADC #$08                        A:48 X:07 Y:48 P:24 SP:FB
beforeNMI = 0 and afterNMI = 0
EE8A  A8        TAY                             A:50 X:07 Y:48 P:24 SP:FB
beforeNMI = 0 and afterNMI = 0
EE8B  CA        DEX                             A:50 X:07 Y:50 P:24 SP:FB
beforeNMI = 0 and afterNMI = 0
EE8C  D0 F4     BNE $EE82                       A:50 X:06 Y:50 P:24 SP:FB
beforeNMI = 0 and afterNMI = 0
EE82  A9 00     LDA #$00                        A:50 X:06 Y:50 P:24 SP:FB
beforeNMI = 0 and afterNMI = 0
EE84  91 F2     STA ($F2),Y = 0620 @ 0670 = 00  A:00 X:06 Y:50 P:26 SP:FB
beforeNMI = 0 and afterNMI = 0
EE86  98        TYA                             A:00 X:06 Y:50 P:26 SP:FB
beforeNMI = 0 and afterNMI = 0
EE87  18        CLC                             A:50 X:06 Y:50 P:24 SP:FB
beforeNMI = 0 and afterNMI = 0
EE88  69 08     ADC #$08                        A:50 X:06 Y:50 P:24 SP:FB
beforeNMI = 0 and afterNMI = 0
EE8A  A8        TAY                             A:58 X:06 Y:50 P:24 SP:FB
beforeNMI = 0 and afterNMI = 0
EE8B  CA        DEX                             A:58 X:06 Y:58 P:24 SP:FB
beforeNMI = 0 and afterNMI = 0
EE8C  D0 F4     BNE $EE82                       A:58 X:05 Y:58 P:24 SP:FB
beforeNMI = 0 and afterNMI = 0
EE82  A9 00     LDA #$00                        A:58 X:05 Y:58 P:24 SP:FB
beforeNMI = 0 and afterNMI = 0
EE84  91 F2     STA ($F2),Y = 0620 @ 0678 = 00  A:00 X:05 Y:58 P:26 SP:FB
beforeNMI = 0 and afterNMI = 0
EE86  98        TYA                             A:00 X:05 Y:58 P:26 SP:FB
beforeNMI = 0 and afterNMI = 0
EE87  18        CLC                             A:58 X:05 Y:58 P:24 SP:FB
beforeNMI = 0 and afterNMI = 0
EE88  69 08     ADC #$08                        A:58 X:05 Y:58 P:24 SP:FB
beforeNMI = 0 and afterNMI = 0
EE8A  A8        TAY                             A:60 X:05 Y:58 P:24 SP:FB
beforeNMI = 0 and afterNMI = 0
EE8B  CA        DEX                             A:60 X:05 Y:60 P:24 SP:FB
beforeNMI = 0 and afterNMI = 0
EE8C  D0 F4     BNE $EE82                       A:60 X:04 Y:60 P:24 SP:FB
beforeNMI = 0 and afterNMI = 0
EE82  A9 00     LDA #$00                        A:60 X:04 Y:60 P:24 SP:FB
beforeNMI = 0 and afterNMI = 0
EE84  91 F2     STA ($F2),Y = 0620 @ 0680 = 00  A:00 X:04 Y:60 P:26 SP:FB
beforeNMI = 0 and afterNMI = 0
EE86  98        TYA                             A:00 X:04 Y:60 P:26 SP:FB
beforeNMI = 0 and afterNMI = 0
EE87  18        CLC                             A:60 X:04 Y:60 P:24 SP:FB
beforeNMI = 0 and afterNMI = 0
EE88  69 08     ADC #$08                        A:60 X:04 Y:60 P:24 SP:FB
beforeNMI = 0 and afterNMI = 0
EE8A  A8        TAY                             A:68 X:04 Y:60 P:24 SP:FB
beforeNMI = 0 and afterNMI = 0
EE8B  CA        DEX                             A:68 X:04 Y:68 P:24 SP:FB
beforeNMI = 0 and afterNMI = 0
EE8C  D0 F4     BNE $EE82                       A:68 X:03 Y:68 P:24 SP:FB
beforeNMI = 0 and afterNMI = 0
EE82  A9 00     LDA #$00                        A:68 X:03 Y:68 P:24 SP:FB
beforeNMI = 0 and afterNMI = 0
EE84  91 F2     STA ($F2),Y = 0620 @ 0688 = 00  A:00 X:03 Y:68 P:26 SP:FB
beforeNMI = 0 and afterNMI = 0
EE86  98        TYA                             A:00 X:03 Y:68 P:26 SP:FB
beforeNMI = 0 and afterNMI = 0
EE87  18        CLC                             A:68 X:03 Y:68 P:24 SP:FB
beforeNMI = 0 and afterNMI = 0
EE88  69 08     ADC #$08                        A:68 X:03 Y:68 P:24 SP:FB
beforeNMI = 0 and afterNMI = 0
EE8A  A8        TAY                             A:70 X:03 Y:68 P:24 SP:FB
beforeNMI = 0 and afterNMI = 0
EE8B  CA        DEX                             A:70 X:03 Y:70 P:24 SP:FB
beforeNMI = 0 and afterNMI = 0
EE8C  D0 F4     BNE $EE82                       A:70 X:02 Y:70 P:24 SP:FB
beforeNMI = 0 and afterNMI = 0
EE82  A9 00     LDA #$00                        A:70 X:02 Y:70 P:24 SP:FB
beforeNMI = 0 and afterNMI = 0
EE84  91 F2     STA ($F2),Y = 0620 @ 0690 = 00  A:00 X:02 Y:70 P:26 SP:FB
beforeNMI = 0 and afterNMI = 0
EE86  98        TYA                             A:00 X:02 Y:70 P:26 SP:FB
beforeNMI = 0 and afterNMI = 0
EE87  18        CLC                             A:70 X:02 Y:70 P:24 SP:FB
beforeNMI = 0 and afterNMI = 0
EE88  69 08     ADC #$08                        A:70 X:02 Y:70 P:24 SP:FB
beforeNMI = 0 and afterNMI = 0
EE8A  A8        TAY                             A:78 X:02 Y:70 P:24 SP:FB
beforeNMI = 0 and afterNMI = 0
EE8B  CA        DEX                             A:78 X:02 Y:78 P:24 SP:FB
beforeNMI = 0 and afterNMI = 0
EE8C  D0 F4     BNE $EE82                       A:78 X:01 Y:78 P:24 SP:FB
beforeNMI = 0 and afterNMI = 0
EE82  A9 00     LDA #$00                        A:78 X:01 Y:78 P:24 SP:FB
beforeNMI = 0 and afterNMI = 0
EE84  91 F2     STA ($F2),Y = 0620 @ 0698 = 00  A:00 X:01 Y:78 P:26 SP:FB
beforeNMI = 0 and afterNMI = 0
EE86  98        TYA                             A:00 X:01 Y:78 P:26 SP:FB
beforeNMI = 0 and afterNMI = 0
EE87  18        CLC                             A:78 X:01 Y:78 P:24 SP:FB
beforeNMI = 0 and afterNMI = 0
EE88  69 08     ADC #$08                        A:78 X:01 Y:78 P:24 SP:FB
beforeNMI = 0 and afterNMI = 0
EE8A  A8        TAY                             A:80 X:01 Y:78 P:E4 SP:FB
beforeNMI = 0 and afterNMI = 0
EE8B  CA        DEX                             A:80 X:01 Y:80 P:E4 SP:FB
beforeNMI = 0 and afterNMI = 0
EE8C  D0 F4     BNE $EE82                       A:80 X:00 Y:80 P:66 SP:FB
beforeNMI = 0 and afterNMI = 0
EE8E  60        RTS                             A:80 X:00 Y:80 P:66 SP:FB
beforeNMI = 0 and afterNMI = 0
C0D4  20 73 EE  JSR $EE73                       A:80 X:00 Y:80 P:66 SP:FD
beforeNMI = 0 and afterNMI = 0
EE73  A0 00     LDY #$00                        A:80 X:00 Y:80 P:66 SP:FB
beforeNMI = 0 and afterNMI = 0
EE75  A9 00     LDA #$00                        A:80 X:00 Y:00 P:66 SP:FB
beforeNMI = 0 and afterNMI = 0
EE77  91 F0     STA ($F0),Y = 0600 @ 0600 = 00  A:00 X:00 Y:00 P:66 SP:FB
beforeNMI = 0 and afterNMI = 0
EE79  C8        INY                             A:00 X:00 Y:00 P:66 SP:FB
beforeNMI = 0 and afterNMI = 0
EE7A  C0 10     CPY #$10                        A:00 X:00 Y:01 P:64 SP:FB
beforeNMI = 0 and afterNMI = 0
EE7C  D0 F9     BNE $EE77                       A:00 X:00 Y:01 P:E4 SP:FB
beforeNMI = 0 and afterNMI = 0
EE77  91 F0     STA ($F0),Y = 0600 @ 0601 = 00  A:00 X:00 Y:01 P:E4 SP:FB
beforeNMI = 0 and afterNMI = 0
EE79  C8        INY                             A:00 X:00 Y:01 P:E4 SP:FB
beforeNMI = 0 and afterNMI = 0
EE7A  C0 10     CPY #$10                        A:00 X:00 Y:02 P:64 SP:FB
beforeNMI = 0 and afterNMI = 0
EE7C  D0 F9     BNE $EE77                       A:00 X:00 Y:02 P:E4 SP:FB
beforeNMI = 0 and afterNMI = 0
EE77  91 F0     STA ($F0),Y = 0600 @ 0602 = 00  A:00 X:00 Y:02 P:E4 SP:FB
beforeNMI = 0 and afterNMI = 0
EE79  C8        INY                             A:00 X:00 Y:02 P:E4 SP:FB
beforeNMI = 0 and afterNMI = 0
EE7A  C0 10     CPY #$10                        A:00 X:00 Y:03 P:64 SP:FB
beforeNMI = 0 and afterNMI = 0
EE7C  D0 F9     BNE $EE77                       A:00 X:00 Y:03 P:E4 SP:FB
beforeNMI = 0 and afterNMI = 0
EE77  91 F0     STA ($F0),Y = 0600 @ 0603 = 00  A:00 X:00 Y:03 P:E4 SP:FB
beforeNMI = 0 and afterNMI = 0
EE79  C8        INY                             A:00 X:00 Y:03 P:E4 SP:FB
beforeNMI = 0 and afterNMI = 0
EE7A  C0 10     CPY #$10                        A:00 X:00 Y:04 P:64 SP:FB
beforeNMI = 0 and afterNMI = 0
EE7C  D0 F9     BNE $EE77                       A:00 X:00 Y:04 P:E4 SP:FB
beforeNMI = 0 and afterNMI = 0
EE77  91 F0     STA ($F0),Y = 0600 @ 0604 = 00  A:00 X:00 Y:04 P:E4 SP:FB
beforeNMI = 0 and afterNMI = 0
EE79  C8        INY                             A:00 X:00 Y:04 P:E4 SP:FB
beforeNMI = 0 and afterNMI = 0
EE7A  C0 10     CPY #$10                        A:00 X:00 Y:05 P:64 SP:FB
beforeNMI = 0 and afterNMI = 0
EE7C  D0 F9     BNE $EE77                       A:00 X:00 Y:05 P:E4 SP:FB
beforeNMI = 0 and afterNMI = 0
EE77  91 F0     STA ($F0),Y = 0600 @ 0605 = 00  A:00 X:00 Y:05 P:E4 SP:FB
beforeNMI = 0 and afterNMI = 0
EE79  C8        INY                             A:00 X:00 Y:05 P:E4 SP:FB
beforeNMI = 0 and afterNMI = 0
EE7A  C0 10     CPY #$10                        A:00 X:00 Y:06 P:64 SP:FB
beforeNMI = 0 and afterNMI = 0
EE7C  D0 F9     BNE $EE77                       A:00 X:00 Y:06 P:E4 SP:FB
beforeNMI = 0 and afterNMI = 0
EE77  91 F0     STA ($F0),Y = 0600 @ 0606 = 00  A:00 X:00 Y:06 P:E4 SP:FB
beforeNMI = 0 and afterNMI = 0
EE79  C8        INY                             A:00 X:00 Y:06 P:E4 SP:FB
beforeNMI = 0 and afterNMI = 0
EE7A  C0 10     CPY #$10                        A:00 X:00 Y:07 P:64 SP:FB
beforeNMI = 0 and afterNMI = 0
EE7C  D0 F9     BNE $EE77                       A:00 X:00 Y:07 P:E4 SP:FB
beforeNMI = 0 and afterNMI = 0
EE77  91 F0     STA ($F0),Y = 0600 @ 0607 = 00  A:00 X:00 Y:07 P:E4 SP:FB
beforeNMI = 0 and afterNMI = 0
EE79  C8        INY                             A:00 X:00 Y:07 P:E4 SP:FB
beforeNMI = 0 and afterNMI = 0
EE7A  C0 10     CPY #$10                        A:00 X:00 Y:08 P:64 SP:FB
beforeNMI = 0 and afterNMI = 0
EE7C  D0 F9     BNE $EE77                       A:00 X:00 Y:08 P:E4 SP:FB
beforeNMI = 0 and afterNMI = 0
EE77  91 F0     STA ($F0),Y = 0600 @ 0608 = 00  A:00 X:00 Y:08 P:E4 SP:FB
beforeNMI = 0 and afterNMI = 0
EE79  C8        INY                             A:00 X:00 Y:08 P:E4 SP:FB
beforeNMI = 0 and afterNMI = 0
EE7A  C0 10     CPY #$10                        A:00 X:00 Y:09 P:64 SP:FB
beforeNMI = 0 and afterNMI = 0
EE7C  D0 F9     BNE $EE77                       A:00 X:00 Y:09 P:E4 SP:FB
beforeNMI = 0 and afterNMI = 0
EE77  91 F0     STA ($F0),Y = 0600 @ 0609 = 00  A:00 X:00 Y:09 P:E4 SP:FB
beforeNMI = 0 and afterNMI = 0
EE79  C8        INY                             A:00 X:00 Y:09 P:E4 SP:FB
beforeNMI = 0 and afterNMI = 0
EE7A  C0 10     CPY #$10                        A:00 X:00 Y:0A P:64 SP:FB
beforeNMI = 0 and afterNMI = 0
EE7C  D0 F9     BNE $EE77                       A:00 X:00 Y:0A P:E4 SP:FB
beforeNMI = 0 and afterNMI = 0
EE77  91 F0     STA ($F0),Y = 0600 @ 060A = 00  A:00 X:00 Y:0A P:E4 SP:FB
beforeNMI = 0 and afterNMI = 0
EE79  C8        INY                             A:00 X:00 Y:0A P:E4 SP:FB
beforeNMI = 0 and afterNMI = 0
EE7A  C0 10     CPY #$10                        A:00 X:00 Y:0B P:64 SP:FB
beforeNMI = 0 and afterNMI = 0
EE7C  D0 F9     BNE $EE77                       A:00 X:00 Y:0B P:E4 SP:FB
beforeNMI = 0 and afterNMI = 0
EE77  91 F0     STA ($F0),Y = 0600 @ 060B = 00  A:00 X:00 Y:0B P:E4 SP:FB
beforeNMI = 0 and afterNMI = 0
EE79  C8        INY                             A:00 X:00 Y:0B P:E4 SP:FB
beforeNMI = 0 and afterNMI = 0
EE7A  C0 10     CPY #$10                        A:00 X:00 Y:0C P:64 SP:FB
beforeNMI = 0 and afterNMI = 0
EE7C  D0 F9     BNE $EE77                       A:00 X:00 Y:0C P:E4 SP:FB
beforeNMI = 0 and afterNMI = 0
EE77  91 F0     STA ($F0),Y = 0600 @ 060C = 00  A:00 X:00 Y:0C P:E4 SP:FB
beforeNMI = 0 and afterNMI = 0
EE79  C8        INY                             A:00 X:00 Y:0C P:E4 SP:FB
beforeNMI = 0 and afterNMI = 0
EE7A  C0 10     CPY #$10                        A:00 X:00 Y:0D P:64 SP:FB
beforeNMI = 0 and afterNMI = 0
EE7C  D0 F9     BNE $EE77                       A:00 X:00 Y:0D P:E4 SP:FB
beforeNMI = 0 and afterNMI = 0
EE77  91 F0     STA ($F0),Y = 0600 @ 060D = 00  A:00 X:00 Y:0D P:E4 SP:FB
beforeNMI = 0 and afterNMI = 0
EE79  C8        INY                             A:00 X:00 Y:0D P:E4 SP:FB
beforeNMI = 0 and afterNMI = 0
EE7A  C0 10     CPY #$10                        A:00 X:00 Y:0E P:64 SP:FB
beforeNMI = 0 and afterNMI = 0
EE7C  D0 F9     BNE $EE77                       A:00 X:00 Y:0E P:E4 SP:FB
beforeNMI = 0 and afterNMI = 0
EE77  91 F0     STA ($F0),Y = 0600 @ 060E = 00  A:00 X:00 Y:0E P:E4 SP:FB
beforeNMI = 0 and afterNMI = 0
EE79  C8        INY                             A:00 X:00 Y:0E P:E4 SP:FB
beforeNMI = 0 and afterNMI = 0
EE7A  C0 10     CPY #$10                        A:00 X:00 Y:0F P:64 SP:FB
beforeNMI = 0 and afterNMI = 0
EE7C  D0 F9     BNE $EE77                       A:00 X:00 Y:0F P:E4 SP:FB
beforeNMI = 0 and afterNMI = 0
EE77  91 F0     STA ($F0),Y = 0600 @ 060F = 00  A:00 X:00 Y:0F P:E4 SP:FB
beforeNMI = 0 and afterNMI = 0
EE79  C8        INY                             A:00 X:00 Y:0F P:E4 SP:FB
beforeNMI = 0 and afterNMI = 0
EE7A  C0 10     CPY #$10                        A:00 X:00 Y:10 P:64 SP:FB
beforeNMI = 0 and afterNMI = 0
EE7C  D0 F9     BNE $EE77                       A:00 X:00 Y:10 P:67 SP:FB
beforeNMI = 0 and afterNMI = 0
EE7E  A0 00     LDY #$00                        A:00 X:00 Y:10 P:67 SP:FB
beforeNMI = 0 and afterNMI = 0
EE80  A2 10     LDX #$10                        A:00 X:00 Y:00 P:67 SP:FB
beforeNMI = 0 and afterNMI = 0
EE82  A9 00     LDA #$00                        A:00 X:10 Y:00 P:65 SP:FB
beforeNMI = 0 and afterNMI = 0
EE84  91 F2     STA ($F2),Y = 0620 @ 0620 = 00  A:00 X:10 Y:00 P:67 SP:FB
beforeNMI = 0 and afterNMI = 0
EE86  98        TYA                             A:00 X:10 Y:00 P:67 SP:FB
beforeNMI = 0 and afterNMI = 0
EE87  18        CLC                             A:00 X:10 Y:00 P:67 SP:FB
beforeNMI = 0 and afterNMI = 0
EE88  69 08     ADC #$08                        A:00 X:10 Y:00 P:66 SP:FB
beforeNMI = 0 and afterNMI = 0
EE8A  A8        TAY                             A:08 X:10 Y:00 P:24 SP:FB
beforeNMI = 0 and afterNMI = 0
EE8B  CA        DEX                             A:08 X:10 Y:08 P:24 SP:FB
beforeNMI = 0 and afterNMI = 0
EE8C  D0 F4     BNE $EE82                       A:08 X:0F Y:08 P:24 SP:FB
beforeNMI = 0 and afterNMI = 0
EE82  A9 00     LDA #$00                        A:08 X:0F Y:08 P:24 SP:FB
beforeNMI = 0 and afterNMI = 0
EE84  91 F2     STA ($F2),Y = 0620 @ 0628 = 00  A:00 X:0F Y:08 P:26 SP:FB
beforeNMI = 0 and afterNMI = 0
EE86  98        TYA                             A:00 X:0F Y:08 P:26 SP:FB
beforeNMI = 0 and afterNMI = 0
EE87  18        CLC                             A:08 X:0F Y:08 P:24 SP:FB
beforeNMI = 0 and afterNMI = 0
EE88  69 08     ADC #$08                        A:08 X:0F Y:08 P:24 SP:FB
beforeNMI = 0 and afterNMI = 0
EE8A  A8        TAY                             A:10 X:0F Y:08 P:24 SP:FB
beforeNMI = 0 and afterNMI = 0
EE8B  CA        DEX                             A:10 X:0F Y:10 P:24 SP:FB
beforeNMI = 0 and afterNMI = 0
EE8C  D0 F4     BNE $EE82                       A:10 X:0E Y:10 P:24 SP:FB
beforeNMI = 0 and afterNMI = 0
EE82  A9 00     LDA #$00                        A:10 X:0E Y:10 P:24 SP:FB
beforeNMI = 0 and afterNMI = 0
EE84  91 F2     STA ($F2),Y = 0620 @ 0630 = 00  A:00 X:0E Y:10 P:26 SP:FB
beforeNMI = 0 and afterNMI = 0
EE86  98        TYA                             A:00 X:0E Y:10 P:26 SP:FB
beforeNMI = 0 and afterNMI = 0
EE87  18        CLC                             A:10 X:0E Y:10 P:24 SP:FB
beforeNMI = 0 and afterNMI = 0
EE88  69 08     ADC #$08                        A:10 X:0E Y:10 P:24 SP:FB
beforeNMI = 0 and afterNMI = 0
EE8A  A8        TAY                             A:18 X:0E Y:10 P:24 SP:FB
beforeNMI = 0 and afterNMI = 0
EE8B  CA        DEX                             A:18 X:0E Y:18 P:24 SP:FB
beforeNMI = 0 and afterNMI = 0
EE8C  D0 F4     BNE $EE82                       A:18 X:0D Y:18 P:24 SP:FB
beforeNMI = 0 and afterNMI = 0
EE82  A9 00     LDA #$00                        A:18 X:0D Y:18 P:24 SP:FB
beforeNMI = 0 and afterNMI = 0
EE84  91 F2     STA ($F2),Y = 0620 @ 0638 = 00  A:00 X:0D Y:18 P:26 SP:FB
beforeNMI = 0 and afterNMI = 0
EE86  98        TYA                             A:00 X:0D Y:18 P:26 SP:FB
beforeNMI = 0 and afterNMI = 0
EE87  18        CLC                             A:18 X:0D Y:18 P:24 SP:FB
beforeNMI = 0 and afterNMI = 0
EE88  69 08     ADC #$08                        A:18 X:0D Y:18 P:24 SP:FB
beforeNMI = 0 and afterNMI = 0
EE8A  A8        TAY                             A:20 X:0D Y:18 P:24 SP:FB
beforeNMI = 0 and afterNMI = 0
EE8B  CA        DEX                             A:20 X:0D Y:20 P:24 SP:FB
beforeNMI = 0 and afterNMI = 0
EE8C  D0 F4     BNE $EE82                       A:20 X:0C Y:20 P:24 SP:FB
beforeNMI = 0 and afterNMI = 0
EE82  A9 00     LDA #$00                        A:20 X:0C Y:20 P:24 SP:FB
beforeNMI = 0 and afterNMI = 0
EE84  91 F2     STA ($F2),Y = 0620 @ 0640 = 00  A:00 X:0C Y:20 P:26 SP:FB
beforeNMI = 0 and afterNMI = 0
EE86  98        TYA                             A:00 X:0C Y:20 P:26 SP:FB
beforeNMI = 0 and afterNMI = 0
EE87  18        CLC                             A:20 X:0C Y:20 P:24 SP:FB
beforeNMI = 0 and afterNMI = 0
EE88  69 08     ADC #$08                        A:20 X:0C Y:20 P:24 SP:FB
beforeNMI = 0 and afterNMI = 0
EE8A  A8        TAY                             A:28 X:0C Y:20 P:24 SP:FB
beforeNMI = 0 and afterNMI = 0
EE8B  CA        DEX                             A:28 X:0C Y:28 P:24 SP:FB
beforeNMI = 0 and afterNMI = 0
EE8C  D0 F4     BNE $EE82                       A:28 X:0B Y:28 P:24 SP:FB
beforeNMI = 0 and afterNMI = 0
EE82  A9 00     LDA #$00                        A:28 X:0B Y:28 P:24 SP:FB
beforeNMI = 0 and afterNMI = 0
EE84  91 F2     STA ($F2),Y = 0620 @ 0648 = 00  A:00 X:0B Y:28 P:26 SP:FB
beforeNMI = 0 and afterNMI = 0
EE86  98        TYA                             A:00 X:0B Y:28 P:26 SP:FB
beforeNMI = 0 and afterNMI = 0
EE87  18        CLC                             A:28 X:0B Y:28 P:24 SP:FB
beforeNMI = 0 and afterNMI = 0
EE88  69 08     ADC #$08                        A:28 X:0B Y:28 P:24 SP:FB
beforeNMI = 0 and afterNMI = 0
EE8A  A8        TAY                             A:30 X:0B Y:28 P:24 SP:FB
beforeNMI = 0 and afterNMI = 0
EE8B  CA        DEX                             A:30 X:0B Y:30 P:24 SP:FB
beforeNMI = 0 and afterNMI = 0
EE8C  D0 F4     BNE $EE82                       A:30 X:0A Y:30 P:24 SP:FB
beforeNMI = 0 and afterNMI = 0
EE82  A9 00     LDA #$00                        A:30 X:0A Y:30 P:24 SP:FB
beforeNMI = 0 and afterNMI = 0
EE84  91 F2     STA ($F2),Y = 0620 @ 0650 = 00  A:00 X:0A Y:30 P:26 SP:FB
beforeNMI = 0 and afterNMI = 0
EE86  98        TYA                             A:00 X:0A Y:30 P:26 SP:FB
beforeNMI = 0 and afterNMI = 0
EE87  18        CLC                             A:30 X:0A Y:30 P:24 SP:FB
beforeNMI = 0 and afterNMI = 0
EE88  69 08     ADC #$08                        A:30 X:0A Y:30 P:24 SP:FB
beforeNMI = 0 and afterNMI = 0
EE8A  A8        TAY                             A:38 X:0A Y:30 P:24 SP:FB
beforeNMI = 0 and afterNMI = 0
EE8B  CA        DEX                             A:38 X:0A Y:38 P:24 SP:FB
beforeNMI = 0 and afterNMI = 0
EE8C  D0 F4     BNE $EE82                       A:38 X:09 Y:38 P:24 SP:FB
beforeNMI = 0 and afterNMI = 0
EE82  A9 00     LDA #$00                        A:38 X:09 Y:38 P:24 SP:FB
beforeNMI = 0 and afterNMI = 0
EE84  91 F2     STA ($F2),Y = 0620 @ 0658 = 00  A:00 X:09 Y:38 P:26 SP:FB
beforeNMI = 0 and afterNMI = 0
EE86  98        TYA                             A:00 X:09 Y:38 P:26 SP:FB
beforeNMI = 0 and afterNMI = 0
EE87  18        CLC                             A:38 X:09 Y:38 P:24 SP:FB
beforeNMI = 0 and afterNMI = 0
EE88  69 08     ADC #$08                        A:38 X:09 Y:38 P:24 SP:FB
beforeNMI = 0 and afterNMI = 0
EE8A  A8        TAY                             A:40 X:09 Y:38 P:24 SP:FB
beforeNMI = 0 and afterNMI = 0
EE8B  CA        DEX                             A:40 X:09 Y:40 P:24 SP:FB
beforeNMI = 0 and afterNMI = 0
EE8C  D0 F4     BNE $EE82                       A:40 X:08 Y:40 P:24 SP:FB
beforeNMI = 0 and afterNMI = 0
EE82  A9 00     LDA #$00                        A:40 X:08 Y:40 P:24 SP:FB
beforeNMI = 0 and afterNMI = 0
EE84  91 F2     STA ($F2),Y = 0620 @ 0660 = 00  A:00 X:08 Y:40 P:26 SP:FB
beforeNMI = 0 and afterNMI = 0
EE86  98        TYA                             A:00 X:08 Y:40 P:26 SP:FB
beforeNMI = 0 and afterNMI = 0
EE87  18        CLC                             A:40 X:08 Y:40 P:24 SP:FB
beforeNMI = 0 and afterNMI = 0
EE88  69 08     ADC #$08                        A:40 X:08 Y:40 P:24 SP:FB
beforeNMI = 0 and afterNMI = 0
EE8A  A8        TAY                             A:48 X:08 Y:40 P:24 SP:FB
beforeNMI = 0 and afterNMI = 0
EE8B  CA        DEX                             A:48 X:08 Y:48 P:24 SP:FB
beforeNMI = 0 and afterNMI = 0
EE8C  D0 F4     BNE $EE82                       A:48 X:07 Y:48 P:24 SP:FB
beforeNMI = 0 and afterNMI = 0
EE82  A9 00     LDA #$00                        A:48 X:07 Y:48 P:24 SP:FB
beforeNMI = 0 and afterNMI = 0
EE84  91 F2     STA ($F2),Y = 0620 @ 0668 = 00  A:00 X:07 Y:48 P:26 SP:FB
beforeNMI = 0 and afterNMI = 0
EE86  98        TYA                             A:00 X:07 Y:48 P:26 SP:FB
beforeNMI = 0 and afterNMI = 0
EE87  18        CLC                             A:48 X:07 Y:48 P:24 SP:FB
beforeNMI = 0 and afterNMI = 0
EE88  69 08     ADC #$08                        A:48 X:07 Y:48 P:24 SP:FB
beforeNMI = 0 and afterNMI = 0
EE8A  A8        TAY                             A:50 X:07 Y:48 P:24 SP:FB
beforeNMI = 0 and afterNMI = 0
EE8B  CA        DEX                             A:50 X:07 Y:50 P:24 SP:FB
beforeNMI = 0 and afterNMI = 0
EE8C  D0 F4     BNE $EE82                       A:50 X:06 Y:50 P:24 SP:FB
beforeNMI = 0 and afterNMI = 0
EE82  A9 00     LDA #$00                        A:50 X:06 Y:50 P:24 SP:FB
beforeNMI = 0 and afterNMI = 0
EE84  91 F2     STA ($F2),Y = 0620 @ 0670 = 00  A:00 X:06 Y:50 P:26 SP:FB
beforeNMI = 0 and afterNMI = 0
EE86  98        TYA                             A:00 X:06 Y:50 P:26 SP:FB
beforeNMI = 0 and afterNMI = 0
EE87  18        CLC                             A:50 X:06 Y:50 P:24 SP:FB
beforeNMI = 0 and afterNMI = 0
EE88  69 08     ADC #$08                        A:50 X:06 Y:50 P:24 SP:FB
beforeNMI = 0 and afterNMI = 0
EE8A  A8        TAY                             A:58 X:06 Y:50 P:24 SP:FB
beforeNMI = 0 and afterNMI = 0
EE8B  CA        DEX                             A:58 X:06 Y:58 P:24 SP:FB
beforeNMI = 0 and afterNMI = 0
EE8C  D0 F4     BNE $EE82                       A:58 X:05 Y:58 P:24 SP:FB
beforeNMI = 0 and afterNMI = 0
EE82  A9 00     LDA #$00                        A:58 X:05 Y:58 P:24 SP:FB
beforeNMI = 0 and afterNMI = 0
EE84  91 F2     STA ($F2),Y = 0620 @ 0678 = 00  A:00 X:05 Y:58 P:26 SP:FB
beforeNMI = 0 and afterNMI = 0
EE86  98        TYA                             A:00 X:05 Y:58 P:26 SP:FB
beforeNMI = 0 and afterNMI = 0
EE87  18        CLC                             A:58 X:05 Y:58 P:24 SP:FB
beforeNMI = 0 and afterNMI = 0
EE88  69 08     ADC #$08                        A:58 X:05 Y:58 P:24 SP:FB
beforeNMI = 0 and afterNMI = 0
EE8A  A8        TAY                             A:60 X:05 Y:58 P:24 SP:FB
beforeNMI = 0 and afterNMI = 0
EE8B  CA        DEX                             A:60 X:05 Y:60 P:24 SP:FB
beforeNMI = 0 and afterNMI = 0
EE8C  D0 F4     BNE $EE82                       A:60 X:04 Y:60 P:24 SP:FB
beforeNMI = 0 and afterNMI = 0
EE82  A9 00     LDA #$00                        A:60 X:04 Y:60 P:24 SP:FB
beforeNMI = 0 and afterNMI = 0
EE84  91 F2     STA ($F2),Y = 0620 @ 0680 = 00  A:00 X:04 Y:60 P:26 SP:FB
beforeNMI = 0 and afterNMI = 0
EE86  98        TYA                             A:00 X:04 Y:60 P:26 SP:FB
beforeNMI = 0 and afterNMI = 0
EE87  18        CLC                             A:60 X:04 Y:60 P:24 SP:FB
beforeNMI = 0 and afterNMI = 0
EE88  69 08     ADC #$08                        A:60 X:04 Y:60 P:24 SP:FB
beforeNMI = 0 and afterNMI = 0
EE8A  A8        TAY                             A:68 X:04 Y:60 P:24 SP:FB
beforeNMI = 0 and afterNMI = 0
EE8B  CA        DEX                             A:68 X:04 Y:68 P:24 SP:FB
beforeNMI = 0 and afterNMI = 0
EE8C  D0 F4     BNE $EE82                       A:68 X:03 Y:68 P:24 SP:FB
beforeNMI = 0 and afterNMI = 0
EE82  A9 00     LDA #$00                        A:68 X:03 Y:68 P:24 SP:FB
beforeNMI = 0 and afterNMI = 0
EE84  91 F2     STA ($F2),Y = 0620 @ 0688 = 00  A:00 X:03 Y:68 P:26 SP:FB
beforeNMI = 0 and afterNMI = 0
EE86  98        TYA                             A:00 X:03 Y:68 P:26 SP:FB
beforeNMI = 0 and afterNMI = 0
EE87  18        CLC                             A:68 X:03 Y:68 P:24 SP:FB
beforeNMI = 0 and afterNMI = 0
EE88  69 08     ADC #$08                        A:68 X:03 Y:68 P:24 SP:FB
beforeNMI = 0 and afterNMI = 0
EE8A  A8        TAY                             A:70 X:03 Y:68 P:24 SP:FB
beforeNMI = 0 and afterNMI = 0
EE8B  CA        DEX                             A:70 X:03 Y:70 P:24 SP:FB
beforeNMI = 0 and afterNMI = 0
EE8C  D0 F4     BNE $EE82                       A:70 X:02 Y:70 P:24 SP:FB
beforeNMI = 0 and afterNMI = 0
EE82  A9 00     LDA #$00                        A:70 X:02 Y:70 P:24 SP:FB
beforeNMI = 0 and afterNMI = 0
EE84  91 F2     STA ($F2),Y = 0620 @ 0690 = 00  A:00 X:02 Y:70 P:26 SP:FB
beforeNMI = 0 and afterNMI = 0
EE86  98        TYA                             A:00 X:02 Y:70 P:26 SP:FB
beforeNMI = 0 and afterNMI = 0
EE87  18        CLC                             A:70 X:02 Y:70 P:24 SP:FB
beforeNMI = 0 and afterNMI = 0
EE88  69 08     ADC #$08                        A:70 X:02 Y:70 P:24 SP:FB
beforeNMI = 0 and afterNMI = 0
EE8A  A8        TAY                             A:78 X:02 Y:70 P:24 SP:FB
beforeNMI = 0 and afterNMI = 0
EE8B  CA        DEX                             A:78 X:02 Y:78 P:24 SP:FB
beforeNMI = 0 and afterNMI = 0
EE8C  D0 F4     BNE $EE82                       A:78 X:01 Y:78 P:24 SP:FB
beforeNMI = 0 and afterNMI = 0
EE82  A9 00     LDA #$00                        A:78 X:01 Y:78 P:24 SP:FB
beforeNMI = 0 and afterNMI = 0
EE84  91 F2     STA ($F2),Y = 0620 @ 0698 = 00  A:00 X:01 Y:78 P:26 SP:FB
beforeNMI = 0 and afterNMI = 0
EE86  98        TYA                             A:00 X:01 Y:78 P:26 SP:FB
beforeNMI = 0 and afterNMI = 0
EE87  18        CLC                             A:78 X:01 Y:78 P:24 SP:FB
beforeNMI = 0 and afterNMI = 0
EE88  69 08     ADC #$08                        A:78 X:01 Y:78 P:24 SP:FB
beforeNMI = 0 and afterNMI = 0
EE8A  A8        TAY                             A:80 X:01 Y:78 P:E4 SP:FB
beforeNMI = 0 and afterNMI = 0
EE8B  CA        DEX                             A:80 X:01 Y:80 P:E4 SP:FB
beforeNMI = 0 and afterNMI = 0
EE8C  D0 F4     BNE $EE82                       A:80 X:00 Y:80 P:66 SP:FB
beforeNMI = 0 and afterNMI = 0
EE8E  60        RTS                             A:80 X:00 Y:80 P:66 SP:FB
beforeNMI = 0 and afterNMI = 0
C0D7  A9 88     LDA #$88                        A:80 X:00 Y:80 P:66 SP:FD
beforeNMI = 0 and afterNMI = 0
C0D9  85 43     STA $43 = 00                    A:88 X:00 Y:80 P:E4 SP:FD
beforeNMI = 0 and afterNMI = 0
Reading from write only PPU memory at 2000
C0DB  8D 00 20  STA $2000 = 00                  A:88 X:00 Y:80 P:E4 SP:FD
beforeNMI = 0 and afterNMI = 0
C0DE  A9 FF     LDA #$FF                        A:88 X:00 Y:80 P:E4 SP:FD
beforeNMI = 0 and afterNMI = 0
C0E0  85 48     STA $48 = 00                    A:FF X:00 Y:80 P:E4 SP:FD
beforeNMI = 0 and afterNMI = 0
C0E2  8D 3F 02  STA $023F = 00                  A:FF X:00 Y:80 P:E4 SP:FD
beforeNMI = 0 and afterNMI = 0
C0E5  8D 4B 02  STA $024B = 00                  A:FF X:00 Y:80 P:E4 SP:FD
beforeNMI = 0 and afterNMI = 0
C0E8  4C D3 C1  JMP $C1D3                       A:FF X:00 Y:80 P:E4 SP:FD
beforeNMI = 0 and afterNMI = 0
C1D3  A9 01     LDA #$01                        A:FF X:00 Y:80 P:E4 SP:FD
beforeNMI = 0 and afterNMI = 0
C1D5  85 40     STA $40 = 00                    A:01 X:00 Y:80 P:64 SP:FD
beforeNMI = 0 and afterNMI = 0
C1D7  A5 40     LDA $40 = 01                    A:01 X:00 Y:80 P:64 SP:FD
beforeNMI = 0 and afterNMI = 0
C1D9  D0 FC     BNE $C1D7                       A:01 X:00 Y:80 P:64 SP:FD
beforeNMI = 0 and afterNMI = 0
C1D7  A5 40     LDA $40 = 01                    A:01 X:00 Y:80 P:64 SP:FD
beforeNMI = 0 and afterNMI = 0
C1D9  D0 FC     BNE $C1D7                       A:01 X:00 Y:80 P:64 SP:FD
beforeNMI = 0 and afterNMI = 0
C1D7  A5 40     LDA $40 = 01                    A:01 X:00 Y:80 P:64 SP:FD
beforeNMI = 0 and afterNMI = 0
C1D9  D0 FC     BNE $C1D7                       A:01 X:00 Y:80 P:64 SP:FD
beforeNMI = 0 and afterNMI = 0
C1D7  A5 40     LDA $40 = 01                    A:01 X:00 Y:80 P:64 SP:FD
beforeNMI = 0 and afterNMI = 0
C1D9  D0 FC     BNE $C1D7                       A:01 X:00 Y:80 P:64 SP:FD
beforeNMI = 0 and afterNMI = 0
C1D7  A5 40     LDA $40 = 01                    A:01 X:00 Y:80 P:64 SP:FD
beforeNMI = 0 and afterNMI = 0
C1D9  D0 FC     BNE $C1D7                       A:01 X:00 Y:80 P:64 SP:FD
beforeNMI = 0 and afterNMI = 0
C1D7  A5 40     LDA $40 = 01                    A:01 X:00 Y:80 P:64 SP:FD
beforeNMI = 0 and afterNMI = 0
C1D9  D0 FC     BNE $C1D7                       A:01 X:00 Y:80 P:64 SP:FD
beforeNMI = 0 and afterNMI = 0
C1D7  A5 40     LDA $40 = 01                    A:01 X:00 Y:80 P:64 SP:FD
beforeNMI = 0 and afterNMI = 0
C1D9  D0 FC     BNE $C1D7                       A:01 X:00 Y:80 P:64 SP:FD
beforeNMI = 0 and afterNMI = 0
C1D7  A5 40     LDA $40 = 01                    A:01 X:00 Y:80 P:64 SP:FD
beforeNMI = 0 and afterNMI = 0
C1D9  D0 FC     BNE $C1D7                       A:01 X:00 Y:80 P:64 SP:FD
beforeNMI = 0 and afterNMI = 0
C1D7  A5 40     LDA $40 = 01                    A:01 X:00 Y:80 P:64 SP:FD
beforeNMI = 0 and afterNMI = 0
C1D9  D0 FC     BNE $C1D7                       A:01 X:00 Y:80 P:64 SP:FD
beforeNMI = 0 and afterNMI = 0
C1D7  A5 40     LDA $40 = 01                    A:01 X:00 Y:80 P:64 SP:FD
beforeNMI = 0 and afterNMI = 0
C1D9  D0 FC     BNE $C1D7                       A:01 X:00 Y:80 P:64 SP:FD
beforeNMI = 0 and afterNMI = 0
C1D7  A5 40     LDA $40 = 01                    A:01 X:00 Y:80 P:64 SP:FD
beforeNMI = 0 and afterNMI = 0
C1D9  D0 FC     BNE $C1D7                       A:01 X:00 Y:80 P:64 SP:FD
beforeNMI = 0 and afterNMI = 0
C1D7  A5 40     LDA $40 = 01                    A:01 X:00 Y:80 P:64 SP:FD
beforeNMI = 0 and afterNMI = 0
C1D9  D0 FC     BNE $C1D7                       A:01 X:00 Y:80 P:64 SP:FD
beforeNMI = 0 and afterNMI = 0
C1D7  A5 40     LDA $40 = 01                    A:01 X:00 Y:80 P:64 SP:FD
beforeNMI = 0 and afterNMI = 0
C1D9  D0 FC     BNE $C1D7                       A:01 X:00 Y:80 P:64 SP:FD
beforeNMI = 0 and afterNMI = 0
C1D7  A5 40     LDA $40 = 01                    A:01 X:00 Y:80 P:64 SP:FD
beforeNMI = 0 and afterNMI = 0
C1D9  D0 FC     BNE $C1D7                       A:01 X:00 Y:80 P:64 SP:FD
beforeNMI = 0 and afterNMI = 0
C1D7  A5 40     LDA $40 = 01                    A:01 X:00 Y:80 P:64 SP:FD
beforeNMI = 0 and afterNMI = 0
C1D9  D0 FC     BNE $C1D7                       A:01 X:00 Y:80 P:64 SP:FD
beforeNMI = 0 and afterNMI = 0
C1D7  A5 40     LDA $40 = 01                    A:01 X:00 Y:80 P:64 SP:FD
beforeNMI = 0 and afterNMI = 0
C1D9  D0 FC     BNE $C1D7                       A:01 X:00 Y:80 P:64 SP:FD
beforeNMI = 0 and afterNMI = 0
C1D7  A5 40     LDA $40 = 01                    A:01 X:00 Y:80 P:64 SP:FD
beforeNMI = 0 and afterNMI = 0
C1D9  D0 FC     BNE $C1D7                       A:01 X:00 Y:80 P:64 SP:FD
beforeNMI = 0 and afterNMI = 0
C1D7  A5 40     LDA $40 = 01                    A:01 X:00 Y:80 P:64 SP:FD
beforeNMI = 0 and afterNMI = 0
C1D9  D0 FC     BNE $C1D7                       A:01 X:00 Y:80 P:64 SP:FD
beforeNMI = 0 and afterNMI = 0
C1D7  A5 40     LDA $40 = 01                    A:01 X:00 Y:80 P:64 SP:FD
beforeNMI = 0 and afterNMI = 0
C1D9  D0 FC     BNE $C1D7                       A:01 X:00 Y:80 P:64 SP:FD
beforeNMI = 0 and afterNMI = 0
C1D7  A5 40     LDA $40 = 01                    A:01 X:00 Y:80 P:64 SP:FD
beforeNMI = 0 and afterNMI = 0
C1D9  D0 FC     BNE $C1D7                       A:01 X:00 Y:80 P:64 SP:FD
beforeNMI = 0 and afterNMI = 0
C1D7  A5 40     LDA $40 = 01                    A:01 X:00 Y:80 P:64 SP:FD
beforeNMI = 0 and afterNMI = 0
C1D9  D0 FC     BNE $C1D7                       A:01 X:00 Y:80 P:64 SP:FD
beforeNMI = 0 and afterNMI = 0
C1D7  A5 40     LDA $40 = 01                    A:01 X:00 Y:80 P:64 SP:FD
beforeNMI = 0 and afterNMI = 0
C1D9  D0 FC     BNE $C1D7                       A:01 X:00 Y:80 P:64 SP:FD
beforeNMI = 0 and afterNMI = 0
C1D7  A5 40     LDA $40 = 01                    A:01 X:00 Y:80 P:64 SP:FD
beforeNMI = 0 and afterNMI = 0
C1D9  D0 FC     BNE $C1D7                       A:01 X:00 Y:80 P:64 SP:FD
beforeNMI = 0 and afterNMI = 0
C1D7  A5 40     LDA $40 = 01                    A:01 X:00 Y:80 P:64 SP:FD
beforeNMI = 0 and afterNMI = 0
C1D9  D0 FC     BNE $C1D7                       A:01 X:00 Y:80 P:64 SP:FD
beforeNMI = 0 and afterNMI = 0
C1D7  A5 40     LDA $40 = 01                    A:01 X:00 Y:80 P:64 SP:FD
beforeNMI = 0 and afterNMI = 0
C1D9  D0 FC     BNE $C1D7                       A:01 X:00 Y:80 P:64 SP:FD
beforeNMI = 0 and afterNMI = 0
C1D7  A5 40     LDA $40 = 01                    A:01 X:00 Y:80 P:64 SP:FD
beforeNMI = 0 and afterNMI = 0
C1D9  D0 FC     BNE $C1D7                       A:01 X:00 Y:80 P:64 SP:FD
beforeNMI = 0 and afterNMI = 0
C1D7  A5 40     LDA $40 = 01                    A:01 X:00 Y:80 P:64 SP:FD
beforeNMI = 0 and afterNMI = 0
C1D9  D0 FC     BNE $C1D7                       A:01 X:00 Y:80 P:64 SP:FD
beforeNMI = 0 and afterNMI = 0
C1D7  A5 40     LDA $40 = 01                    A:01 X:00 Y:80 P:64 SP:FD
beforeNMI = 0 and afterNMI = 0
C1D9  D0 FC     BNE $C1D7                       A:01 X:00 Y:80 P:64 SP:FD
beforeNMI = 0 and afterNMI = 0
C1D7  A5 40     LDA $40 = 01                    A:01 X:00 Y:80 P:64 SP:FD
beforeNMI = 0 and afterNMI = 0
C1D9  D0 FC     BNE $C1D7                       A:01 X:00 Y:80 P:64 SP:FD
beforeNMI = 0 and afterNMI = 0
C1D7  A5 40     LDA $40 = 01                    A:01 X:00 Y:80 P:64 SP:FD
beforeNMI = 0 and afterNMI = 0
C1D9  D0 FC     BNE $C1D7                       A:01 X:00 Y:80 P:64 SP:FD
beforeNMI = 0 and afterNMI = 0
C1D7  A5 40     LDA $40 = 01                    A:01 X:00 Y:80 P:64 SP:FD
beforeNMI = 0 and afterNMI = 0
C1D9  D0 FC     BNE $C1D7                       A:01 X:00 Y:80 P:64 SP:FD
beforeNMI = 0 and afterNMI = 0
C1D7  A5 40     LDA $40 = 01                    A:01 X:00 Y:80 P:64 SP:FD
beforeNMI = 0 and afterNMI = 0
C1D9  D0 FC     BNE $C1D7                       A:01 X:00 Y:80 P:64 SP:FD
beforeNMI = 0 and afterNMI = 0
C1D7  A5 40     LDA $40 = 01                    A:01 X:00 Y:80 P:64 SP:FD
beforeNMI = 0 and afterNMI = 0
C1D9  D0 FC     BNE $C1D7                       A:01 X:00 Y:80 P:64 SP:FD
beforeNMI = 0 and afterNMI = 0
C1D7  A5 40     LDA $40 = 01                    A:01 X:00 Y:80 P:64 SP:FD
beforeNMI = 0 and afterNMI = 0
C1D9  D0 FC     BNE $C1D7                       A:01 X:00 Y:80 P:64 SP:FD
beforeNMI = 0 and afterNMI = 0
C1D7  A5 40     LDA $40 = 01                    A:01 X:00 Y:80 P:64 SP:FD
beforeNMI = 0 and afterNMI = 0
C1D9  D0 FC     BNE $C1D7                       A:01 X:00 Y:80 P:64 SP:FD
beforeNMI = 0 and afterNMI = 0
C1D7  A5 40     LDA $40 = 01                    A:01 X:00 Y:80 P:64 SP:FD
beforeNMI = 0 and afterNMI = 0
C1D9  D0 FC     BNE $C1D7                       A:01 X:00 Y:80 P:64 SP:FD
beforeNMI = 0 and afterNMI = 0
C1D7  A5 40     LDA $40 = 01                    A:01 X:00 Y:80 P:64 SP:FD
beforeNMI = 0 and afterNMI = 0
C1D9  D0 FC     BNE $C1D7                       A:01 X:00 Y:80 P:64 SP:FD
beforeNMI = 0 and afterNMI = 0
C1D7  A5 40     LDA $40 = 01                    A:01 X:00 Y:80 P:64 SP:FD
beforeNMI = 0 and afterNMI = 0
C1D9  D0 FC     BNE $C1D7                       A:01 X:00 Y:80 P:64 SP:FD
beforeNMI = 0 and afterNMI = 0
C1D7  A5 40     LDA $40 = 01                    A:01 X:00 Y:80 P:64 SP:FD
beforeNMI = 0 and afterNMI = 0
C1D9  D0 FC     BNE $C1D7                       A:01 X:00 Y:80 P:64 SP:FD
beforeNMI = 0 and afterNMI = 0
C1D7  A5 40     LDA $40 = 01                    A:01 X:00 Y:80 P:64 SP:FD
beforeNMI = 0 and afterNMI = 0
C1D9  D0 FC     BNE $C1D7                       A:01 X:00 Y:80 P:64 SP:FD
beforeNMI = 0 and afterNMI = 0
C1D7  A5 40     LDA $40 = 01                    A:01 X:00 Y:80 P:64 SP:FD
beforeNMI = 0 and afterNMI = 0
C1D9  D0 FC     BNE $C1D7                       A:01 X:00 Y:80 P:64 SP:FD
beforeNMI = 0 and afterNMI = 0
C1D7  A5 40     LDA $40 = 01                    A:01 X:00 Y:80 P:64 SP:FD
beforeNMI = 0 and afterNMI = 0
C1D9  D0 FC     BNE $C1D7                       A:01 X:00 Y:80 P:64 SP:FD
beforeNMI = 0 and afterNMI = 0
C1D7  A5 40     LDA $40 = 01                    A:01 X:00 Y:80 P:64 SP:FD
beforeNMI = 0 and afterNMI = 0
C1D9  D0 FC     BNE $C1D7                       A:01 X:00 Y:80 P:64 SP:FD
beforeNMI = 0 and afterNMI = 0
C1D7  A5 40     LDA $40 = 01                    A:01 X:00 Y:80 P:64 SP:FD
beforeNMI = 0 and afterNMI = 0
C1D9  D0 FC     BNE $C1D7                       A:01 X:00 Y:80 P:64 SP:FD
beforeNMI = 0 and afterNMI = 0
C1D7  A5 40     LDA $40 = 01                    A:01 X:00 Y:80 P:64 SP:FD
beforeNMI = 0 and afterNMI = 0
C1D9  D0 FC     BNE $C1D7                       A:01 X:00 Y:80 P:64 SP:FD
beforeNMI = 0 and afterNMI = 0
C1D7  A5 40     LDA $40 = 01                    A:01 X:00 Y:80 P:64 SP:FD
beforeNMI = 0 and afterNMI = 0
C1D9  D0 FC     BNE $C1D7                       A:01 X:00 Y:80 P:64 SP:FD
beforeNMI = 0 and afterNMI = 0
C1D7  A5 40     LDA $40 = 01                    A:01 X:00 Y:80 P:64 SP:FD
beforeNMI = 0 and afterNMI = 0
C1D9  D0 FC     BNE $C1D7                       A:01 X:00 Y:80 P:64 SP:FD
beforeNMI = 0 and afterNMI = 0
C1D7  A5 40     LDA $40 = 01                    A:01 X:00 Y:80 P:64 SP:FD
beforeNMI = 0 and afterNMI = 0
C1D9  D0 FC     BNE $C1D7                       A:01 X:00 Y:80 P:64 SP:FD
beforeNMI = 0 and afterNMI = 0
C1D7  A5 40     LDA $40 = 01                    A:01 X:00 Y:80 P:64 SP:FD
beforeNMI = 0 and afterNMI = 0
C1D9  D0 FC     BNE $C1D7                       A:01 X:00 Y:80 P:64 SP:FD
beforeNMI = 0 and afterNMI = 0
C1D7  A5 40     LDA $40 = 01                    A:01 X:00 Y:80 P:64 SP:FD
beforeNMI = 0 and afterNMI = 0
C1D9  D0 FC     BNE $C1D7                       A:01 X:00 Y:80 P:64 SP:FD
beforeNMI = 0 and afterNMI = 0
C1D7  A5 40     LDA $40 = 01                    A:01 X:00 Y:80 P:64 SP:FD
beforeNMI = 0 and afterNMI = 0
C1D9  D0 FC     BNE $C1D7                       A:01 X:00 Y:80 P:64 SP:FD
beforeNMI = 0 and afterNMI = 0
C1D7  A5 40     LDA $40 = 01                    A:01 X:00 Y:80 P:64 SP:FD
beforeNMI = 0 and afterNMI = 0
C1D9  D0 FC     BNE $C1D7                       A:01 X:00 Y:80 P:64 SP:FD
beforeNMI = 0 and afterNMI = 0
C1D7  A5 40     LDA $40 = 01                    A:01 X:00 Y:80 P:64 SP:FD
beforeNMI = 0 and afterNMI = 0
C1D9  D0 FC     BNE $C1D7                       A:01 X:00 Y:80 P:64 SP:FD
beforeNMI = 0 and afterNMI = 0
C1D7  A5 40     LDA $40 = 01                    A:01 X:00 Y:80 P:64 SP:FD
beforeNMI = 0 and afterNMI = 0
C1D9  D0 FC     BNE $C1D7                       A:01 X:00 Y:80 P:64 SP:FD
beforeNMI = 0 and afterNMI = 0
C1D7  A5 40     LDA $40 = 01                    A:01 X:00 Y:80 P:64 SP:FD
beforeNMI = 0 and afterNMI = 0
C1D9  D0 FC     BNE $C1D7                       A:01 X:00 Y:80 P:64 SP:FD
beforeNMI = 0 and afterNMI = 0
C1D7  A5 40     LDA $40 = 01                    A:01 X:00 Y:80 P:64 SP:FD
beforeNMI = 0 and afterNMI = 0
C1D9  D0 FC     BNE $C1D7                       A:01 X:00 Y:80 P:64 SP:FD
beforeNMI = 0 and afterNMI = 0
C1D7  A5 40     LDA $40 = 01                    A:01 X:00 Y:80 P:64 SP:FD
beforeNMI = 0 and afterNMI = 0
C1D9  D0 FC     BNE $C1D7                       A:01 X:00 Y:80 P:64 SP:FD
beforeNMI = 0 and afterNMI = 0
C1D7  A5 40     LDA $40 = 01                    A:01 X:00 Y:80 P:64 SP:FD
beforeNMI = 0 and afterNMI = 0
C1D9  D0 FC     BNE $C1D7                       A:01 X:00 Y:80 P:64 SP:FD
beforeNMI = 0 and afterNMI = 0
C1D7  A5 40     LDA $40 = 01                    A:01 X:00 Y:80 P:64 SP:FD
beforeNMI = 0 and afterNMI = 0
C1D9  D0 FC     BNE $C1D7                       A:01 X:00 Y:80 P:64 SP:FD
beforeNMI = 0 and afterNMI = 0
C1D7  A5 40     LDA $40 = 01                    A:01 X:00 Y:80 P:64 SP:FD
beforeNMI = 0 and afterNMI = 0
C1D9  D0 FC     BNE $C1D7                       A:01 X:00 Y:80 P:64 SP:FD
beforeNMI = 0 and afterNMI = 0
C1D7  A5 40     LDA $40 = 01                    A:01 X:00 Y:80 P:64 SP:FD
beforeNMI = 0 and afterNMI = 0
C1D9  D0 FC     BNE $C1D7                       A:01 X:00 Y:80 P:64 SP:FD
beforeNMI = 0 and afterNMI = 0
C1D7  A5 40     LDA $40 = 01                    A:01 X:00 Y:80 P:64 SP:FD
beforeNMI = 0 and afterNMI = 0
C1D9  D0 FC     BNE $C1D7                       A:01 X:00 Y:80 P:64 SP:FD
beforeNMI = 0 and afterNMI = 0
C1D7  A5 40     LDA $40 = 01                    A:01 X:00 Y:80 P:64 SP:FD
beforeNMI = 0 and afterNMI = 0
C1D9  D0 FC     BNE $C1D7                       A:01 X:00 Y:80 P:64 SP:FD
beforeNMI = 0 and afterNMI = 0
C1D7  A5 40     LDA $40 = 01                    A:01 X:00 Y:80 P:64 SP:FD
beforeNMI = 0 and afterNMI = 0
C1D9  D0 FC     BNE $C1D7                       A:01 X:00 Y:80 P:64 SP:FD
beforeNMI = 0 and afterNMI = 0
C1D7  A5 40     LDA $40 = 01                    A:01 X:00 Y:80 P:64 SP:FD
beforeNMI = 0 and afterNMI = 0
C1D9  D0 FC     BNE $C1D7                       A:01 X:00 Y:80 P:64 SP:FD
beforeNMI = 0 and afterNMI = 0
C1D7  A5 40     LDA $40 = 01                    A:01 X:00 Y:80 P:64 SP:FD
beforeNMI = 0 and afterNMI = 0
C1D9  D0 FC     BNE $C1D7                       A:01 X:00 Y:80 P:64 SP:FD
beforeNMI = 0 and afterNMI = 0
C1D7  A5 40     LDA $40 = 01                    A:01 X:00 Y:80 P:64 SP:FD
beforeNMI = 0 and afterNMI = 0
C1D9  D0 FC     BNE $C1D7                       A:01 X:00 Y:80 P:64 SP:FD
beforeNMI = 0 and afterNMI = 0
C1D7  A5 40     LDA $40 = 01                    A:01 X:00 Y:80 P:64 SP:FD
beforeNMI = 0 and afterNMI = 0
C1D9  D0 FC     BNE $C1D7                       A:01 X:00 Y:80 P:64 SP:FD
beforeNMI = 0 and afterNMI = 0
C1D7  A5 40     LDA $40 = 01                    A:01 X:00 Y:80 P:64 SP:FD
beforeNMI = 0 and afterNMI = 0
C1D9  D0 FC     BNE $C1D7                       A:01 X:00 Y:80 P:64 SP:FD
beforeNMI = 0 and afterNMI = 0
C1D7  A5 40     LDA $40 = 01                    A:01 X:00 Y:80 P:64 SP:FD
beforeNMI = 0 and afterNMI = 0
C1D9  D0 FC     BNE $C1D7                       A:01 X:00 Y:80 P:64 SP:FD
beforeNMI = 0 and afterNMI = 0
C1D7  A5 40     LDA $40 = 01                    A:01 X:00 Y:80 P:64 SP:FD
beforeNMI = 0 and afterNMI = 0
C1D9  D0 FC     BNE $C1D7                       A:01 X:00 Y:80 P:64 SP:FD
beforeNMI = 0 and afterNMI = 0
C1D7  A5 40     LDA $40 = 01                    A:01 X:00 Y:80 P:64 SP:FD
beforeNMI = 0 and afterNMI = 0
C1D9  D0 FC     BNE $C1D7                       A:01 X:00 Y:80 P:64 SP:FD
beforeNMI = 0 and afterNMI = 0
C1D7  A5 40     LDA $40 = 01                    A:01 X:00 Y:80 P:64 SP:FD
beforeNMI = 0 and afterNMI = 0
C1D9  D0 FC     BNE $C1D7                       A:01 X:00 Y:80 P:64 SP:FD
beforeNMI = 0 and afterNMI = 0
C1D7  A5 40     LDA $40 = 01                    A:01 X:00 Y:80 P:64 SP:FD
beforeNMI = 0 and afterNMI = 0
C1D9  D0 FC     BNE $C1D7                       A:01 X:00 Y:80 P:64 SP:FD
beforeNMI = 0 and afterNMI = 0
C1D7  A5 40     LDA $40 = 01                    A:01 X:00 Y:80 P:64 SP:FD
beforeNMI = 0 and afterNMI = 0
C1D9  D0 FC     BNE $C1D7                       A:01 X:00 Y:80 P:64 SP:FD
beforeNMI = 0 and afterNMI = 0
C1D7  A5 40     LDA $40 = 01                    A:01 X:00 Y:80 P:64 SP:FD
beforeNMI = 0 and afterNMI = 0
C1D9  D0 FC     BNE $C1D7                       A:01 X:00 Y:80 P:64 SP:FD
beforeNMI = 0 and afterNMI = 0
C1D7  A5 40     LDA $40 = 01                    A:01 X:00 Y:80 P:64 SP:FD
beforeNMI = 0 and afterNMI = 0
C1D9  D0 FC     BNE $C1D7                       A:01 X:00 Y:80 P:64 SP:FD
beforeNMI = 0 and afterNMI = 0
C1D7  A5 40     LDA $40 = 01                    A:01 X:00 Y:80 P:64 SP:FD
beforeNMI = 0 and afterNMI = 0
C1D9  D0 FC     BNE $C1D7                       A:01 X:00 Y:80 P:64 SP:FD
beforeNMI = 0 and afterNMI = 0
C1D7  A5 40     LDA $40 = 01                    A:01 X:00 Y:80 P:64 SP:FD
beforeNMI = 0 and afterNMI = 0
C1D9  D0 FC     BNE $C1D7                       A:01 X:00 Y:80 P:64 SP:FD
beforeNMI = 0 and afterNMI = 0
C1D7  A5 40     LDA $40 = 01                    A:01 X:00 Y:80 P:64 SP:FD
beforeNMI = 0 and afterNMI = 0
C1D9  D0 FC     BNE $C1D7                       A:01 X:00 Y:80 P:64 SP:FD
beforeNMI = 0 and afterNMI = 0
C1D7  A5 40     LDA $40 = 01                    A:01 X:00 Y:80 P:64 SP:FD
beforeNMI = 0 and afterNMI = 0
C1D9  D0 FC     BNE $C1D7                       A:01 X:00 Y:80 P:64 SP:FD
beforeNMI = 0 and afterNMI = 0
C1D7  A5 40     LDA $40 = 01                    A:01 X:00 Y:80 P:64 SP:FD
beforeNMI = 0 and afterNMI = 0
C1D9  D0 FC     BNE $C1D7                       A:01 X:00 Y:80 P:64 SP:FD
beforeNMI = 0 and afterNMI = 0
C1D7  A5 40     LDA $40 = 01                    A:01 X:00 Y:80 P:64 SP:FD
beforeNMI = 0 and afterNMI = 0
C1D9  D0 FC     BNE $C1D7                       A:01 X:00 Y:80 P:64 SP:FD
beforeNMI = 0 and afterNMI = 0
C1D7  A5 40     LDA $40 = 01                    A:01 X:00 Y:80 P:64 SP:FD
beforeNMI = 0 and afterNMI = 0
C1D9  D0 FC     BNE $C1D7                       A:01 X:00 Y:80 P:64 SP:FD
beforeNMI = 0 and afterNMI = 0
C1D7  A5 40     LDA $40 = 01                    A:01 X:00 Y:80 P:64 SP:FD
beforeNMI = 0 and afterNMI = 0
C1D9  D0 FC     BNE $C1D7                       A:01 X:00 Y:80 P:64 SP:FD
beforeNMI = 0 and afterNMI = 0
C1D7  A5 40     LDA $40 = 01                    A:01 X:00 Y:80 P:64 SP:FD
beforeNMI = 0 and afterNMI = 0
C1D9  D0 FC     BNE $C1D7                       A:01 X:00 Y:80 P:64 SP:FD
beforeNMI = 0 and afterNMI = 0
C1D7  A5 40     LDA $40 = 01                    A:01 X:00 Y:80 P:64 SP:FD
beforeNMI = 0 and afterNMI = 0
C1D9  D0 FC     BNE $C1D7                       A:01 X:00 Y:80 P:64 SP:FD
beforeNMI = 0 and afterNMI = 0
C1D7  A5 40     LDA $40 = 01                    A:01 X:00 Y:80 P:64 SP:FD
beforeNMI = 0 and afterNMI = 0
C1D9  D0 FC     BNE $C1D7                       A:01 X:00 Y:80 P:64 SP:FD
beforeNMI = 0 and afterNMI = 0
C1D7  A5 40     LDA $40 = 01                    A:01 X:00 Y:80 P:64 SP:FD
beforeNMI = 0 and afterNMI = 0
C1D9  D0 FC     BNE $C1D7                       A:01 X:00 Y:80 P:64 SP:FD
beforeNMI = 0 and afterNMI = 0
C1D7  A5 40     LDA $40 = 01                    A:01 X:00 Y:80 P:64 SP:FD
beforeNMI = 0 and afterNMI = 0
C1D9  D0 FC     BNE $C1D7                       A:01 X:00 Y:80 P:64 SP:FD
beforeNMI = 0 and afterNMI = 0
C1D7  A5 40     LDA $40 = 01                    A:01 X:00 Y:80 P:64 SP:FD
beforeNMI = 0 and afterNMI = 0
C1D9  D0 FC     BNE $C1D7                       A:01 X:00 Y:80 P:64 SP:FD
beforeNMI = 0 and afterNMI = 0
C1D7  A5 40     LDA $40 = 01                    A:01 X:00 Y:80 P:64 SP:FD
beforeNMI = 0 and afterNMI = 0
C1D9  D0 FC     BNE $C1D7                       A:01 X:00 Y:80 P:64 SP:FD
beforeNMI = 0 and afterNMI = 0
C1D7  A5 40     LDA $40 = 01                    A:01 X:00 Y:80 P:64 SP:FD
beforeNMI = 0 and afterNMI = 0
C1D9  D0 FC     BNE $C1D7                       A:01 X:00 Y:80 P:64 SP:FD
beforeNMI = 0 and afterNMI = 0
C1D7  A5 40     LDA $40 = 01                    A:01 X:00 Y:80 P:64 SP:FD
beforeNMI = 0 and afterNMI = 0
C1D9  D0 FC     BNE $C1D7                       A:01 X:00 Y:80 P:64 SP:FD
beforeNMI = 0 and afterNMI = 0
C1D7  A5 40     LDA $40 = 01                    A:01 X:00 Y:80 P:64 SP:FD
beforeNMI = 0 and afterNMI = 0
C1D9  D0 FC     BNE $C1D7                       A:01 X:00 Y:80 P:64 SP:FD
beforeNMI = 0 and afterNMI = 0
C1D7  A5 40     LDA $40 = 01                    A:01 X:00 Y:80 P:64 SP:FD
beforeNMI = 0 and afterNMI = 0
C1D9  D0 FC     BNE $C1D7                       A:01 X:00 Y:80 P:64 SP:FD
beforeNMI = 0 and afterNMI = 0
C1D7  A5 40     LDA $40 = 01                    A:01 X:00 Y:80 P:64 SP:FD
beforeNMI = 0 and afterNMI = 0
C1D9  D0 FC     BNE $C1D7                       A:01 X:00 Y:80 P:64 SP:FD
beforeNMI = 0 and afterNMI = 0
C1D7  A5 40     LDA $40 = 01                    A:01 X:00 Y:80 P:64 SP:FD
beforeNMI = 0 and afterNMI = 0
C1D9  D0 FC     BNE $C1D7                       A:01 X:00 Y:80 P:64 SP:FD
beforeNMI = 0 and afterNMI = 0
C1D7  A5 40     LDA $40 = 01                    A:01 X:00 Y:80 P:64 SP:FD
beforeNMI = 0 and afterNMI = 0
C1D9  D0 FC     BNE $C1D7                       A:01 X:00 Y:80 P:64 SP:FD
beforeNMI = 0 and afterNMI = 0
C1D7  A5 40     LDA $40 = 01                    A:01 X:00 Y:80 P:64 SP:FD
beforeNMI = 0 and afterNMI = 0
C1D9  D0 FC     BNE $C1D7                       A:01 X:00 Y:80 P:64 SP:FD
beforeNMI = 0 and afterNMI = 0
C1D7  A5 40     LDA $40 = 01                    A:01 X:00 Y:80 P:64 SP:FD
beforeNMI = 0 and afterNMI = 0
C1D9  D0 FC     BNE $C1D7                       A:01 X:00 Y:80 P:64 SP:FD
beforeNMI = 0 and afterNMI = 0
C1D7  A5 40     LDA $40 = 01                    A:01 X:00 Y:80 P:64 SP:FD
beforeNMI = 0 and afterNMI = 0
C1D9  D0 FC     BNE $C1D7                       A:01 X:00 Y:80 P:64 SP:FD
beforeNMI = 0 and afterNMI = 0
C1D7  A5 40     LDA $40 = 01                    A:01 X:00 Y:80 P:64 SP:FD
beforeNMI = 0 and afterNMI = 0
C1D9  D0 FC     BNE $C1D7                       A:01 X:00 Y:80 P:64 SP:FD
beforeNMI = 0 and afterNMI = 0
C1D7  A5 40     LDA $40 = 01                    A:01 X:00 Y:80 P:64 SP:FD
beforeNMI = 0 and afterNMI = 0
C1D9  D0 FC     BNE $C1D7                       A:01 X:00 Y:80 P:64 SP:FD
beforeNMI = 0 and afterNMI = 0
C1D7  A5 40     LDA $40 = 01                    A:01 X:00 Y:80 P:64 SP:FD
beforeNMI = 0 and afterNMI = 0
C1D9  D0 FC     BNE $C1D7                       A:01 X:00 Y:80 P:64 SP:FD
beforeNMI = 0 and afterNMI = 0
C1D7  A5 40     LDA $40 = 01                    A:01 X:00 Y:80 P:64 SP:FD
beforeNMI = 0 and afterNMI = 0
C1D9  D0 FC     BNE $C1D7                       A:01 X:00 Y:80 P:64 SP:FD
beforeNMI = 0 and afterNMI = 0
C1D7  A5 40     LDA $40 = 01                    A:01 X:00 Y:80 P:64 SP:FD
beforeNMI = 0 and afterNMI = 0
C1D9  D0 FC     BNE $C1D7                       A:01 X:00 Y:80 P:64 SP:FD
beforeNMI = 0 and afterNMI = 0
C1D7  A5 40     LDA $40 = 01                    A:01 X:00 Y:80 P:64 SP:FD
beforeNMI = 0 and afterNMI = 0
C1D9  D0 FC     BNE $C1D7                       A:01 X:00 Y:80 P:64 SP:FD
beforeNMI = 0 and afterNMI = 0
C1D7  A5 40     LDA $40 = 01                    A:01 X:00 Y:80 P:64 SP:FD
beforeNMI = 0 and afterNMI = 0
C1D9  D0 FC     BNE $C1D7                       A:01 X:00 Y:80 P:64 SP:FD
beforeNMI = 0 and afterNMI = 0
C1D7  A5 40     LDA $40 = 01                    A:01 X:00 Y:80 P:64 SP:FD
beforeNMI = 0 and afterNMI = 0
C1D9  D0 FC     BNE $C1D7                       A:01 X:00 Y:80 P:64 SP:FD
beforeNMI = 0 and afterNMI = 0
C1D7  A5 40     LDA $40 = 01                    A:01 X:00 Y:80 P:64 SP:FD
beforeNMI = 0 and afterNMI = 0
C1D9  D0 FC     BNE $C1D7                       A:01 X:00 Y:80 P:64 SP:FD
beforeNMI = 0 and afterNMI = 0
C1D7  A5 40     LDA $40 = 01                    A:01 X:00 Y:80 P:64 SP:FD
beforeNMI = 0 and afterNMI = 0
C1D9  D0 FC     BNE $C1D7                       A:01 X:00 Y:80 P:64 SP:FD
beforeNMI = 0 and afterNMI = 0
C1D7  A5 40     LDA $40 = 01                    A:01 X:00 Y:80 P:64 SP:FD
beforeNMI = 0 and afterNMI = 0
C1D9  D0 FC     BNE $C1D7                       A:01 X:00 Y:80 P:64 SP:FD
beforeNMI = 0 and afterNMI = 0
C1D7  A5 40     LDA $40 = 01                    A:01 X:00 Y:80 P:64 SP:FD
beforeNMI = 0 and afterNMI = 0
C1D9  D0 FC     BNE $C1D7                       A:01 X:00 Y:80 P:64 SP:FD
beforeNMI = 0 and afterNMI = 0
C1D7  A5 40     LDA $40 = 01                    A:01 X:00 Y:80 P:64 SP:FD
beforeNMI = 0 and afterNMI = 0
C1D9  D0 FC     BNE $C1D7                       A:01 X:00 Y:80 P:64 SP:FD
beforeNMI = 0 and afterNMI = 0
C1D7  A5 40     LDA $40 = 01                    A:01 X:00 Y:80 P:64 SP:FD
beforeNMI = 0 and afterNMI = 0
C1D9  D0 FC     BNE $C1D7                       A:01 X:00 Y:80 P:64 SP:FD
beforeNMI = 0 and afterNMI = 0
C1D7  A5 40     LDA $40 = 01                    A:01 X:00 Y:80 P:64 SP:FD
beforeNMI = 0 and afterNMI = 0
C1D9  D0 FC     BNE $C1D7                       A:01 X:00 Y:80 P:64 SP:FD
beforeNMI = 0 and afterNMI = 0
C1D7  A5 40     LDA $40 = 01                    A:01 X:00 Y:80 P:64 SP:FD
beforeNMI = 0 and afterNMI = 0
C1D9  D0 FC     BNE $C1D7                       A:01 X:00 Y:80 P:64 SP:FD
beforeNMI = 0 and afterNMI = 0
C1D7  A5 40     LDA $40 = 01                    A:01 X:00 Y:80 P:64 SP:FD
beforeNMI = 0 and afterNMI = 0
C1D9  D0 FC     BNE $C1D7                       A:01 X:00 Y:80 P:64 SP:FD
beforeNMI = 0 and afterNMI = 0
C1D7  A5 40     LDA $40 = 01                    A:01 X:00 Y:80 P:64 SP:FD
beforeNMI = 0 and afterNMI = 0
C1D9  D0 FC     BNE $C1D7                       A:01 X:00 Y:80 P:64 SP:FD
beforeNMI = 0 and afterNMI = 0
C1D7  A5 40     LDA $40 = 01                    A:01 X:00 Y:80 P:64 SP:FD
beforeNMI = 0 and afterNMI = 0
C1D9  D0 FC     BNE $C1D7                       A:01 X:00 Y:80 P:64 SP:FD
beforeNMI = 0 and afterNMI = 0
C1D7  A5 40     LDA $40 = 01                    A:01 X:00 Y:80 P:64 SP:FD
beforeNMI = 0 and afterNMI = 0
C1D9  D0 FC     BNE $C1D7                       A:01 X:00 Y:80 P:64 SP:FD
beforeNMI = 0 and afterNMI = 0
C1D7  A5 40     LDA $40 = 01                    A:01 X:00 Y:80 P:64 SP:FD
beforeNMI = 0 and afterNMI = 0
C1D9  D0 FC     BNE $C1D7                       A:01 X:00 Y:80 P:64 SP:FD
beforeNMI = 0 and afterNMI = 0
C1D7  A5 40     LDA $40 = 01                    A:01 X:00 Y:80 P:64 SP:FD
beforeNMI = 0 and afterNMI = 0
C1D9  D0 FC     BNE $C1D7                       A:01 X:00 Y:80 P:64 SP:FD
beforeNMI = 0 and afterNMI = 0
C1D7  A5 40     LDA $40 = 01                    A:01 X:00 Y:80 P:64 SP:FD
beforeNMI = 0 and afterNMI = 0
C1D9  D0 FC     BNE $C1D7                       A:01 X:00 Y:80 P:64 SP:FD
beforeNMI = 0 and afterNMI = 0
C1D7  A5 40     LDA $40 = 01                    A:01 X:00 Y:80 P:64 SP:FD
beforeNMI = 0 and afterNMI = 0
C1D9  D0 FC     BNE $C1D7                       A:01 X:00 Y:80 P:64 SP:FD
beforeNMI = 0 and afterNMI = 0
C1D7  A5 40     LDA $40 = 01                    A:01 X:00 Y:80 P:64 SP:FD
beforeNMI = 0 and afterNMI = 0
C1D9  D0 FC     BNE $C1D7                       A:01 X:00 Y:80 P:64 SP:FD
beforeNMI = 0 and afterNMI = 0
C1D7  A5 40     LDA $40 = 01                    A:01 X:00 Y:80 P:64 SP:FD
beforeNMI = 0 and afterNMI = 0
C1D9  D0 FC     BNE $C1D7                       A:01 X:00 Y:80 P:64 SP:FD
beforeNMI = 0 and afterNMI = 0
C1D7  A5 40     LDA $40 = 01                    A:01 X:00 Y:80 P:64 SP:FD
beforeNMI = 0 and afterNMI = 0
C1D9  D0 FC     BNE $C1D7                       A:01 X:00 Y:80 P:64 SP:FD
beforeNMI = 0 and afterNMI = 0
C1D7  A5 40     LDA $40 = 01                    A:01 X:00 Y:80 P:64 SP:FD
beforeNMI = 0 and afterNMI = 0
C1D9  D0 FC     BNE $C1D7                       A:01 X:00 Y:80 P:64 SP:FD
beforeNMI = 0 and afterNMI = 0
C1D7  A5 40     LDA $40 = 01                    A:01 X:00 Y:80 P:64 SP:FD
beforeNMI = 0 and afterNMI = 0
C1D9  D0 FC     BNE $C1D7                       A:01 X:00 Y:80 P:64 SP:FD
beforeNMI = 0 and afterNMI = 0
C1D7  A5 40     LDA $40 = 01                    A:01 X:00 Y:80 P:64 SP:FD
beforeNMI = 0 and afterNMI = 0
C1D9  D0 FC     BNE $C1D7                       A:01 X:00 Y:80 P:64 SP:FD
beforeNMI = 0 and afterNMI = 0
C1D7  A5 40     LDA $40 = 01                    A:01 X:00 Y:80 P:64 SP:FD
beforeNMI = 0 and afterNMI = 0
C1D9  D0 FC     BNE $C1D7                       A:01 X:00 Y:80 P:64 SP:FD
beforeNMI = 0 and afterNMI = 0
C1D7  A5 40     LDA $40 = 01                    A:01 X:00 Y:80 P:64 SP:FD
beforeNMI = 0 and afterNMI = 0
C1D9  D0 FC     BNE $C1D7                       A:01 X:00 Y:80 P:64 SP:FD
beforeNMI = 0 and afterNMI = 0
C1D7  A5 40     LDA $40 = 01                    A:01 X:00 Y:80 P:64 SP:FD
beforeNMI = 0 and afterNMI = 0
C1D9  D0 FC     BNE $C1D7                       A:01 X:00 Y:80 P:64 SP:FD
beforeNMI = 0 and afterNMI = 0
C1D7  A5 40     LDA $40 = 01                    A:01 X:00 Y:80 P:64 SP:FD
beforeNMI = 0 and afterNMI = 0
C1D9  D0 FC     BNE $C1D7                       A:01 X:00 Y:80 P:64 SP:FD
beforeNMI = 0 and afterNMI = 0
C1D7  A5 40     LDA $40 = 01                    A:01 X:00 Y:80 P:64 SP:FD
beforeNMI = 0 and afterNMI = 0
C1D9  D0 FC     BNE $C1D7                       A:01 X:00 Y:80 P:64 SP:FD
beforeNMI = 0 and afterNMI = 0
C1D7  A5 40     LDA $40 = 01                    A:01 X:00 Y:80 P:64 SP:FD
beforeNMI = 0 and afterNMI = 0
C1D9  D0 FC     BNE $C1D7                       A:01 X:00 Y:80 P:64 SP:FD
beforeNMI = 0 and afterNMI = 0
C1D7  A5 40     LDA $40 = 01                    A:01 X:00 Y:80 P:64 SP:FD
beforeNMI = 0 and afterNMI = 0
C1D9  D0 FC     BNE $C1D7                       A:01 X:00 Y:80 P:64 SP:FD
beforeNMI = 0 and afterNMI = 0
C1D7  A5 40     LDA $40 = 01                    A:01 X:00 Y:80 P:64 SP:FD
beforeNMI = 0 and afterNMI = 0
C1D9  D0 FC     BNE $C1D7                       A:01 X:00 Y:80 P:64 SP:FD
beforeNMI = 0 and afterNMI = 0
C1D7  A5 40     LDA $40 = 01                    A:01 X:00 Y:80 P:64 SP:FD
beforeNMI = 0 and afterNMI = 0
C1D9  D0 FC     BNE $C1D7                       A:01 X:00 Y:80 P:64 SP:FD
beforeNMI = 0 and afterNMI = 0
C1D7  A5 40     LDA $40 = 01                    A:01 X:00 Y:80 P:64 SP:FD
beforeNMI = 0 and afterNMI = 0
C1D9  D0 FC     BNE $C1D7                       A:01 X:00 Y:80 P:64 SP:FD
beforeNMI = 0 and afterNMI = 0
C1D7  A5 40     LDA $40 = 01                    A:01 X:00 Y:80 P:64 SP:FD
beforeNMI = 0 and afterNMI = 0
C1D9  D0 FC     BNE $C1D7                       A:01 X:00 Y:80 P:64 SP:FD
beforeNMI = 0 and afterNMI = 0
C1D7  A5 40     LDA $40 = 01                    A:01 X:00 Y:80 P:64 SP:FD
beforeNMI = 0 and afterNMI = 0
C1D9  D0 FC     BNE $C1D7                       A:01 X:00 Y:80 P:64 SP:FD
beforeNMI = 0 and afterNMI = 0
C1D7  A5 40     LDA $40 = 01                    A:01 X:00 Y:80 P:64 SP:FD
beforeNMI = 0 and afterNMI = 0
C1D9  D0 FC     BNE $C1D7                       A:01 X:00 Y:80 P:64 SP:FD
beforeNMI = 0 and afterNMI = 0
C1D7  A5 40     LDA $40 = 01                    A:01 X:00 Y:80 P:64 SP:FD
beforeNMI = 0 and afterNMI = 0
C1D9  D0 FC     BNE $C1D7                       A:01 X:00 Y:80 P:64 SP:FD
beforeNMI = 0 and afterNMI = 0
C1D7  A5 40     LDA $40 = 01                    A:01 X:00 Y:80 P:64 SP:FD
beforeNMI = 0 and afterNMI = 0
C1D9  D0 FC     BNE $C1D7                       A:01 X:00 Y:80 P:64 SP:FD
beforeNMI = 0 and afterNMI = 0
C1D7  A5 40     LDA $40 = 01                    A:01 X:00 Y:80 P:64 SP:FD
beforeNMI = 0 and afterNMI = 0
C1D9  D0 FC     BNE $C1D7                       A:01 X:00 Y:80 P:64 SP:FD
beforeNMI = 0 and afterNMI = 0
C1D7  A5 40     LDA $40 = 01                    A:01 X:00 Y:80 P:64 SP:FD
beforeNMI = 0 and afterNMI = 0
C1D9  D0 FC     BNE $C1D7                       A:01 X:00 Y:80 P:64 SP:FD
beforeNMI = 0 and afterNMI = 0
C1D7  A5 40     LDA $40 = 01                    A:01 X:00 Y:80 P:64 SP:FD
beforeNMI = 0 and afterNMI = 0
C1D9  D0 FC     BNE $C1D7                       A:01 X:00 Y:80 P:64 SP:FD
beforeNMI = 0 and afterNMI = 0
C1D7  A5 40     LDA $40 = 01                    A:01 X:00 Y:80 P:64 SP:FD
beforeNMI = 0 and afterNMI = 0
C1D9  D0 FC     BNE $C1D7                       A:01 X:00 Y:80 P:64 SP:FD
beforeNMI = 0 and afterNMI = 0
C1D7  A5 40     LDA $40 = 01                    A:01 X:00 Y:80 P:64 SP:FD
beforeNMI = 0 and afterNMI = 0
C1D9  D0 FC     BNE $C1D7                       A:01 X:00 Y:80 P:64 SP:FD
beforeNMI = 0 and afterNMI = 0
C1D7  A5 40     LDA $40 = 01                    A:01 X:00 Y:80 P:64 SP:FD
beforeNMI = 0 and afterNMI = 0
C1D9  D0 FC     BNE $C1D7                       A:01 X:00 Y:80 P:64 SP:FD
beforeNMI = 0 and afterNMI = 0
C1D7  A5 40     LDA $40 = 01                    A:01 X:00 Y:80 P:64 SP:FD
beforeNMI = 0 and afterNMI = 0
C1D9  D0 FC     BNE $C1D7                       A:01 X:00 Y:80 P:64 SP:FD
beforeNMI = 0 and afterNMI = 0
C1D7  A5 40     LDA $40 = 01                    A:01 X:00 Y:80 P:64 SP:FD
beforeNMI = 0 and afterNMI = 0
C1D9  D0 FC     BNE $C1D7                       A:01 X:00 Y:80 P:64 SP:FD
beforeNMI = 0 and afterNMI = 0
C1D7  A5 40     LDA $40 = 01                    A:01 X:00 Y:80 P:64 SP:FD
beforeNMI = 0 and afterNMI = 0
C1D9  D0 FC     BNE $C1D7                       A:01 X:00 Y:80 P:64 SP:FD
beforeNMI = 0 and afterNMI = 0
C1D7  A5 40     LDA $40 = 01                    A:01 X:00 Y:80 P:64 SP:FD
beforeNMI = 0 and afterNMI = 0
C1D9  D0 FC     BNE $C1D7                       A:01 X:00 Y:80 P:64 SP:FD
beforeNMI = 0 and afterNMI = 0
C1D7  A5 40     LDA $40 = 01                    A:01 X:00 Y:80 P:64 SP:FD
beforeNMI = 0 and afterNMI = 0
C1D9  D0 FC     BNE $C1D7                       A:01 X:00 Y:80 P:64 SP:FD
beforeNMI = 0 and afterNMI = 0
C1D7  A5 40     LDA $40 = 01                    A:01 X:00 Y:80 P:64 SP:FD
beforeNMI = 0 and afterNMI = 0
C1D9  D0 FC     BNE $C1D7                       A:01 X:00 Y:80 P:64 SP:FD
beforeNMI = 0 and afterNMI = 0
C1D7  A5 40     LDA $40 = 01                    A:01 X:00 Y:80 P:64 SP:FD
beforeNMI = 0 and afterNMI = 0
C1D9  D0 FC     BNE $C1D7                       A:01 X:00 Y:80 P:64 SP:FD
beforeNMI = 0 and afterNMI = 0
C1D7  A5 40     LDA $40 = 01                    A:01 X:00 Y:80 P:64 SP:FD
beforeNMI = 0 and afterNMI = 0
C1D9  D0 FC     BNE $C1D7                       A:01 X:00 Y:80 P:64 SP:FD
beforeNMI = 0 and afterNMI = 0
C1D7  A5 40     LDA $40 = 01                    A:01 X:00 Y:80 P:64 SP:FD
beforeNMI = 0 and afterNMI = 0
C1D9  D0 FC     BNE $C1D7                       A:01 X:00 Y:80 P:64 SP:FD
beforeNMI = 0 and afterNMI = 0
C1D7  A5 40     LDA $40 = 01                    A:01 X:00 Y:80 P:64 SP:FD
beforeNMI = 0 and afterNMI = 0
C1D9  D0 FC     BNE $C1D7                       A:01 X:00 Y:80 P:64 SP:FD
beforeNMI = 0 and afterNMI = 0
C1D7  A5 40     LDA $40 = 01                    A:01 X:00 Y:80 P:64 SP:FD
beforeNMI = 0 and afterNMI = 0
C1D9  D0 FC     BNE $C1D7                       A:01 X:00 Y:80 P:64 SP:FD
beforeNMI = 0 and afterNMI = 0
C1D7  A5 40     LDA $40 = 01                    A:01 X:00 Y:80 P:64 SP:FD
beforeNMI = 0 and afterNMI = 0
C1D9  D0 FC     BNE $C1D7                       A:01 X:00 Y:80 P:64 SP:FD
beforeNMI = 0 and afterNMI = 0
C1D7  A5 40     LDA $40 = 01                    A:01 X:00 Y:80 P:64 SP:FD
beforeNMI = 0 and afterNMI = 0
C1D9  D0 FC     BNE $C1D7                       A:01 X:00 Y:80 P:64 SP:FD
beforeNMI = 0 and afterNMI = 0
C1D7  A5 40     LDA $40 = 01                    A:01 X:00 Y:80 P:64 SP:FD
beforeNMI = 0 and afterNMI = 0
C1D9  D0 FC     BNE $C1D7                       A:01 X:00 Y:80 P:64 SP:FD
beforeNMI = 0 and afterNMI = 0
C1D7  A5 40     LDA $40 = 01                    A:01 X:00 Y:80 P:64 SP:FD
beforeNMI = 0 and afterNMI = 0
C1D9  D0 FC     BNE $C1D7                       A:01 X:00 Y:80 P:64 SP:FD
beforeNMI = 0 and afterNMI = 0
C1D7  A5 40     LDA $40 = 01                    A:01 X:00 Y:80 P:64 SP:FD
beforeNMI = 0 and afterNMI = 0
C1D9  D0 FC     BNE $C1D7                       A:01 X:00 Y:80 P:64 SP:FD
beforeNMI = 0 and afterNMI = 0
C1D7  A5 40     LDA $40 = 01                    A:01 X:00 Y:80 P:64 SP:FD
beforeNMI = 0 and afterNMI = 0
C1D9  D0 FC     BNE $C1D7                       A:01 X:00 Y:80 P:64 SP:FD
beforeNMI = 0 and afterNMI = 0
C1D7  A5 40     LDA $40 = 01                    A:01 X:00 Y:80 P:64 SP:FD
beforeNMI = 0 and afterNMI = 0
C1D9  D0 FC     BNE $C1D7                       A:01 X:00 Y:80 P:64 SP:FD
beforeNMI = 0 and afterNMI = 0
C1D7  A5 40     LDA $40 = 01                    A:01 X:00 Y:80 P:64 SP:FD
beforeNMI = 0 and afterNMI = 0
C1D9  D0 FC     BNE $C1D7                       A:01 X:00 Y:80 P:64 SP:FD
beforeNMI = 0 and afterNMI = 0
C1D7  A5 40     LDA $40 = 01                    A:01 X:00 Y:80 P:64 SP:FD
beforeNMI = 0 and afterNMI = 0
C1D9  D0 FC     BNE $C1D7                       A:01 X:00 Y:80 P:64 SP:FD
beforeNMI = 0 and afterNMI = 0
C1D7  A5 40     LDA $40 = 01                    A:01 X:00 Y:80 P:64 SP:FD
beforeNMI = 0 and afterNMI = 0
C1D9  D0 FC     BNE $C1D7                       A:01 X:00 Y:80 P:64 SP:FD
beforeNMI = 0 and afterNMI = 0
C1D7  A5 40     LDA $40 = 01                    A:01 X:00 Y:80 P:64 SP:FD
beforeNMI = 0 and afterNMI = 0
C1D9  D0 FC     BNE $C1D7                       A:01 X:00 Y:80 P:64 SP:FD
beforeNMI = 0 and afterNMI = 0
C1D7  A5 40     LDA $40 = 01                    A:01 X:00 Y:80 P:64 SP:FD
beforeNMI = 0 and afterNMI = 0
C1D9  D0 FC     BNE $C1D7                       A:01 X:00 Y:80 P:64 SP:FD
beforeNMI = 0 and afterNMI = 0
C1D7  A5 40     LDA $40 = 01                    A:01 X:00 Y:80 P:64 SP:FD
beforeNMI = 0 and afterNMI = 0
C1D9  D0 FC     BNE $C1D7                       A:01 X:00 Y:80 P:64 SP:FD
beforeNMI = 0 and afterNMI = 0
C1D7  A5 40     LDA $40 = 01                    A:01 X:00 Y:80 P:64 SP:FD
beforeNMI = 0 and afterNMI = 0
C1D9  D0 FC     BNE $C1D7                       A:01 X:00 Y:80 P:64 SP:FD
beforeNMI = 0 and afterNMI = 0
C1D7  A5 40     LDA $40 = 01                    A:01 X:00 Y:80 P:64 SP:FD
beforeNMI = 0 and afterNMI = 0
C1D9  D0 FC     BNE $C1D7                       A:01 X:00 Y:80 P:64 SP:FD
beforeNMI = 0 and afterNMI = 0
C1D7  A5 40     LDA $40 = 01                    A:01 X:00 Y:80 P:64 SP:FD
beforeNMI = 0 and afterNMI = 0
C1D9  D0 FC     BNE $C1D7                       A:01 X:00 Y:80 P:64 SP:FD
beforeNMI = 0 and afterNMI = 0
C1D7  A5 40     LDA $40 = 01                    A:01 X:00 Y:80 P:64 SP:FD
beforeNMI = 0 and afterNMI = 0
C1D9  D0 FC     BNE $C1D7                       A:01 X:00 Y:80 P:64 SP:FD
beforeNMI = 0 and afterNMI = 0
C1D7  A5 40     LDA $40 = 01                    A:01 X:00 Y:80 P:64 SP:FD
beforeNMI = 0 and afterNMI = 0
C1D9  D0 FC     BNE $C1D7                       A:01 X:00 Y:80 P:64 SP:FD
beforeNMI = 0 and afterNMI = 0
C1D7  A5 40     LDA $40 = 01                    A:01 X:00 Y:80 P:64 SP:FD
beforeNMI = 0 and afterNMI = 0
C1D9  D0 FC     BNE $C1D7                       A:01 X:00 Y:80 P:64 SP:FD
beforeNMI = 0 and afterNMI = 0
C1D7  A5 40     LDA $40 = 01                    A:01 X:00 Y:80 P:64 SP:FD
beforeNMI = 0 and afterNMI = 0
C1D9  D0 FC     BNE $C1D7                       A:01 X:00 Y:80 P:64 SP:FD
beforeNMI = 0 and afterNMI = 0
C1D7  A5 40     LDA $40 = 01                    A:01 X:00 Y:80 P:64 SP:FD
beforeNMI = 0 and afterNMI = 0
C1D9  D0 FC     BNE $C1D7                       A:01 X:00 Y:80 P:64 SP:FD
beforeNMI = 0 and afterNMI = 0
C1D7  A5 40     LDA $40 = 01                    A:01 X:00 Y:80 P:64 SP:FD
beforeNMI = 0 and afterNMI = 0
C1D9  D0 FC     BNE $C1D7                       A:01 X:00 Y:80 P:64 SP:FD
beforeNMI = 0 and afterNMI = 0
C1D7  A5 40     LDA $40 = 01                    A:01 X:00 Y:80 P:64 SP:FD
beforeNMI = 0 and afterNMI = 0
C1D9  D0 FC     BNE $C1D7                       A:01 X:00 Y:80 P:64 SP:FD
beforeNMI = 0 and afterNMI = 0
C1D7  A5 40     LDA $40 = 01                    A:01 X:00 Y:80 P:64 SP:FD
beforeNMI = 0 and afterNMI = 0
C1D9  D0 FC     BNE $C1D7                       A:01 X:00 Y:80 P:64 SP:FD
beforeNMI = 0 and afterNMI = 0
C1D7  A5 40     LDA $40 = 01                    A:01 X:00 Y:80 P:64 SP:FD
beforeNMI = 0 and afterNMI = 0
C1D9  D0 FC     BNE $C1D7                       A:01 X:00 Y:80 P:64 SP:FD
beforeNMI = 0 and afterNMI = 0
C1D7  A5 40     LDA $40 = 01                    A:01 X:00 Y:80 P:64 SP:FD
beforeNMI = 0 and afterNMI = 0
C1D9  D0 FC     BNE $C1D7                       A:01 X:00 Y:80 P:64 SP:FD
beforeNMI = 0 and afterNMI = 0
C1D7  A5 40     LDA $40 = 01                    A:01 X:00 Y:80 P:64 SP:FD
beforeNMI = 0 and afterNMI = 0
C1D9  D0 FC     BNE $C1D7                       A:01 X:00 Y:80 P:64 SP:FD
beforeNMI = 0 and afterNMI = 0
C1D7  A5 40     LDA $40 = 01                    A:01 X:00 Y:80 P:64 SP:FD
beforeNMI = 0 and afterNMI = 0
C1D9  D0 FC     BNE $C1D7                       A:01 X:00 Y:80 P:64 SP:FD
beforeNMI = 0 and afterNMI = 0
C1D7  A5 40     LDA $40 = 01                    A:01 X:00 Y:80 P:64 SP:FD
beforeNMI = 0 and afterNMI = 0
C1D9  D0 FC     BNE $C1D7                       A:01 X:00 Y:80 P:64 SP:FD
beforeNMI = 0 and afterNMI = 0
C1D7  A5 40     LDA $40 = 01                    A:01 X:00 Y:80 P:64 SP:FD
beforeNMI = 0 and afterNMI = 0
C1D9  D0 FC     BNE $C1D7                       A:01 X:00 Y:80 P:64 SP:FD
beforeNMI = 0 and afterNMI = 0
C1D7  A5 40     LDA $40 = 01                    A:01 X:00 Y:80 P:64 SP:FD
beforeNMI = 0 and afterNMI = 0
C1D9  D0 FC     BNE $C1D7                       A:01 X:00 Y:80 P:64 SP:FD
beforeNMI = 0 and afterNMI = 0
C1D7  A5 40     LDA $40 = 01                    A:01 X:00 Y:80 P:64 SP:FD
beforeNMI = 0 and afterNMI = 0
C1D9  D0 FC     BNE $C1D7                       A:01 X:00 Y:80 P:64 SP:FD
beforeNMI = 0 and afterNMI = 0
C1D7  A5 40     LDA $40 = 01                    A:01 X:00 Y:80 P:64 SP:FD
beforeNMI = 0 and afterNMI = 0
C1D9  D0 FC     BNE $C1D7                       A:01 X:00 Y:80 P:64 SP:FD
beforeNMI = 0 and afterNMI = 0
C1D7  A5 40     LDA $40 = 01                    A:01 X:00 Y:80 P:64 SP:FD
beforeNMI = 0 and afterNMI = 0
C1D9  D0 FC     BNE $C1D7                       A:01 X:00 Y:80 P:64 SP:FD
beforeNMI = 0 and afterNMI = 0
C1D7  A5 40     LDA $40 = 01                    A:01 X:00 Y:80 P:64 SP:FD
beforeNMI = 0 and afterNMI = 0
C1D9  D0 FC     BNE $C1D7                       A:01 X:00 Y:80 P:64 SP:FD
beforeNMI = 0 and afterNMI = 0
C1D7  A5 40     LDA $40 = 01                    A:01 X:00 Y:80 P:64 SP:FD
beforeNMI = 0 and afterNMI = 0
C1D9  D0 FC     BNE $C1D7                       A:01 X:00 Y:80 P:64 SP:FD
beforeNMI = 0 and afterNMI = 0
C1D7  A5 40     LDA $40 = 01                    A:01 X:00 Y:80 P:64 SP:FD
beforeNMI = 0 and afterNMI = 0
C1D9  D0 FC     BNE $C1D7                       A:01 X:00 Y:80 P:64 SP:FD
beforeNMI = 0 and afterNMI = 0
C1D7  A5 40     LDA $40 = 01                    A:01 X:00 Y:80 P:64 SP:FD
beforeNMI = 0 and afterNMI = 0
C1D9  D0 FC     BNE $C1D7                       A:01 X:00 Y:80 P:64 SP:FD
beforeNMI = 0 and afterNMI = 0
C1D7  A5 40     LDA $40 = 01                    A:01 X:00 Y:80 P:64 SP:FD
beforeNMI = 0 and afterNMI = 0
C1D9  D0 FC     BNE $C1D7                       A:01 X:00 Y:80 P:64 SP:FD
beforeNMI = 0 and afterNMI = 0
C1D7  A5 40     LDA $40 = 01                    A:01 X:00 Y:80 P:64 SP:FD
beforeNMI = 0 and afterNMI = 0
C1D9  D0 FC     BNE $C1D7                       A:01 X:00 Y:80 P:64 SP:FD
beforeNMI = 0 and afterNMI = 0
C1D7  A5 40     LDA $40 = 01                    A:01 X:00 Y:80 P:64 SP:FD
beforeNMI = 0 and afterNMI = 0
C1D9  D0 FC     BNE $C1D7                       A:01 X:00 Y:80 P:64 SP:FD
beforeNMI = 0 and afterNMI = 0
C1D7  A5 40     LDA $40 = 01                    A:01 X:00 Y:80 P:64 SP:FD
beforeNMI = 0 and afterNMI = 0
C1D9  D0 FC     BNE $C1D7                       A:01 X:00 Y:80 P:64 SP:FD
beforeNMI = 0 and afterNMI = 0
C1D7  A5 40     LDA $40 = 01                    A:01 X:00 Y:80 P:64 SP:FD
beforeNMI = 0 and afterNMI = 0
C1D9  D0 FC     BNE $C1D7                       A:01 X:00 Y:80 P:64 SP:FD
beforeNMI = 0 and afterNMI = 0
C1D7  A5 40     LDA $40 = 01                    A:01 X:00 Y:80 P:64 SP:FD
beforeNMI = 0 and afterNMI = 0
C1D9  D0 FC     BNE $C1D7                       A:01 X:00 Y:80 P:64 SP:FD
beforeNMI = 0 and afterNMI = 0
C1D7  A5 40     LDA $40 = 01                    A:01 X:00 Y:80 P:64 SP:FD
beforeNMI = 0 and afterNMI = 0
C1D9  D0 FC     BNE $C1D7                       A:01 X:00 Y:80 P:64 SP:FD
beforeNMI = 0 and afterNMI = 0
C1D7  A5 40     LDA $40 = 01                    A:01 X:00 Y:80 P:64 SP:FD
beforeNMI = 0 and afterNMI = 0
C1D9  D0 FC     BNE $C1D7                       A:01 X:00 Y:80 P:64 SP:FD
beforeNMI = 0 and afterNMI = 0
C1D7  A5 40     LDA $40 = 01                    A:01 X:00 Y:80 P:64 SP:FD
beforeNMI = 0 and afterNMI = 0
C1D9  D0 FC     BNE $C1D7                       A:01 X:00 Y:80 P:64 SP:FD
beforeNMI = 0 and afterNMI = 0
C1D7  A5 40     LDA $40 = 01                    A:01 X:00 Y:80 P:64 SP:FD
beforeNMI = 0 and afterNMI = 0
C1D9  D0 FC     BNE $C1D7                       A:01 X:00 Y:80 P:64 SP:FD
beforeNMI = 0 and afterNMI = 0
C1D7  A5 40     LDA $40 = 01                    A:01 X:00 Y:80 P:64 SP:FD
beforeNMI = 0 and afterNMI = 0
C1D9  D0 FC     BNE $C1D7                       A:01 X:00 Y:80 P:64 SP:FD
beforeNMI = 0 and afterNMI = 0
C1D7  A5 40     LDA $40 = 01                    A:01 X:00 Y:80 P:64 SP:FD
beforeNMI = 0 and afterNMI = 0
C1D9  D0 FC     BNE $C1D7                       A:01 X:00 Y:80 P:64 SP:FD
beforeNMI = 0 and afterNMI = 0
C1D7  A5 40     LDA $40 = 01                    A:01 X:00 Y:80 P:64 SP:FD
beforeNMI = 0 and afterNMI = 0
C1D9  D0 FC     BNE $C1D7                       A:01 X:00 Y:80 P:64 SP:FD
beforeNMI = 0 and afterNMI = 0
C1D7  A5 40     LDA $40 = 01                    A:01 X:00 Y:80 P:64 SP:FD
beforeNMI = 0 and afterNMI = 0
C1D9  D0 FC     BNE $C1D7                       A:01 X:00 Y:80 P:64 SP:FD
beforeNMI = 0 and afterNMI = 0
C1D7  A5 40     LDA $40 = 01                    A:01 X:00 Y:80 P:64 SP:FD
beforeNMI = 0 and afterNMI = 0
C1D9  D0 FC     BNE $C1D7                       A:01 X:00 Y:80 P:64 SP:FD
beforeNMI = 0 and afterNMI = 0
C1D7  A5 40     LDA $40 = 01                    A:01 X:00 Y:80 P:64 SP:FD
beforeNMI = 0 and afterNMI = 0
C1D9  D0 FC     BNE $C1D7                       A:01 X:00 Y:80 P:64 SP:FD
beforeNMI = 0 and afterNMI = 0
C1D7  A5 40     LDA $40 = 01                    A:01 X:00 Y:80 P:64 SP:FD
beforeNMI = 0 and afterNMI = 0
C1D9  D0 FC     BNE $C1D7                       A:01 X:00 Y:80 P:64 SP:FD
beforeNMI = 0 and afterNMI = 0
C1D7  A5 40     LDA $40 = 01                    A:01 X:00 Y:80 P:64 SP:FD
beforeNMI = 0 and afterNMI = 0
C1D9  D0 FC     BNE $C1D7                       A:01 X:00 Y:80 P:64 SP:FD
beforeNMI = 0 and afterNMI = 0
C1D7  A5 40     LDA $40 = 01                    A:01 X:00 Y:80 P:64 SP:FD
beforeNMI = 0 and afterNMI = 0
C1D9  D0 FC     BNE $C1D7                       A:01 X:00 Y:80 P:64 SP:FD
beforeNMI = 0 and afterNMI = 0
C1D7  A5 40     LDA $40 = 01                    A:01 X:00 Y:80 P:64 SP:FD
beforeNMI = 0 and afterNMI = 0
C1D9  D0 FC     BNE $C1D7                       A:01 X:00 Y:80 P:64 SP:FD
beforeNMI = 0 and afterNMI = 0
C1D7  A5 40     LDA $40 = 01                    A:01 X:00 Y:80 P:64 SP:FD
beforeNMI = 0 and afterNMI = 0
C1D9  D0 FC     BNE $C1D7                       A:01 X:00 Y:80 P:64 SP:FD
beforeNMI = 0 and afterNMI = 0
C1D7  A5 40     LDA $40 = 01                    A:01 X:00 Y:80 P:64 SP:FD
beforeNMI = 0 and afterNMI = 0
C1D9  D0 FC     BNE $C1D7                       A:01 X:00 Y:80 P:64 SP:FD
beforeNMI = 0 and afterNMI = 0
C1D7  A5 40     LDA $40 = 01                    A:01 X:00 Y:80 P:64 SP:FD
beforeNMI = 0 and afterNMI = 0
C1D9  D0 FC     BNE $C1D7                       A:01 X:00 Y:80 P:64 SP:FD
beforeNMI = 0 and afterNMI = 0
C1D7  A5 40     LDA $40 = 01                    A:01 X:00 Y:80 P:64 SP:FD
beforeNMI = 0 and afterNMI = 0
C1D9  D0 FC     BNE $C1D7                       A:01 X:00 Y:80 P:64 SP:FD
beforeNMI = 0 and afterNMI = 0
C1D7  A5 40     LDA $40 = 01                    A:01 X:00 Y:80 P:64 SP:FD
beforeNMI = 0 and afterNMI = 0
C1D9  D0 FC     BNE $C1D7                       A:01 X:00 Y:80 P:64 SP:FD
beforeNMI = 0 and afterNMI = 0
C1D7  A5 40     LDA $40 = 01                    A:01 X:00 Y:80 P:64 SP:FD
beforeNMI = 0 and afterNMI = 0
C1D9  D0 FC     BNE $C1D7                       A:01 X:00 Y:80 P:64 SP:FD
beforeNMI = 0 and afterNMI = 0
C1D7  A5 40     LDA $40 = 01                    A:01 X:00 Y:80 P:64 SP:FD
beforeNMI = 0 and afterNMI = 0
C1D9  D0 FC     BNE $C1D7                       A:01 X:00 Y:80 P:64 SP:FD
beforeNMI = 0 and afterNMI = 0
C1D7  A5 40     LDA $40 = 01                    A:01 X:00 Y:80 P:64 SP:FD
beforeNMI = 0 and afterNMI = 0
C1D9  D0 FC     BNE $C1D7                       A:01 X:00 Y:80 P:64 SP:FD
beforeNMI = 0 and afterNMI = 0
C1D7  A5 40     LDA $40 = 01                    A:01 X:00 Y:80 P:64 SP:FD
beforeNMI = 0 and afterNMI = 0
C1D9  D0 FC     BNE $C1D7                       A:01 X:00 Y:80 P:64 SP:FD
beforeNMI = 0 and afterNMI = 0
C1D7  A5 40     LDA $40 = 01                    A:01 X:00 Y:80 P:64 SP:FD
beforeNMI = 0 and afterNMI = 0
C1D9  D0 FC     BNE $C1D7                       A:01 X:00 Y:80 P:64 SP:FD
beforeNMI = 0 and afterNMI = 0
C1D7  A5 40     LDA $40 = 01                    A:01 X:00 Y:80 P:64 SP:FD
beforeNMI = 0 and afterNMI = 0
C1D9  D0 FC     BNE $C1D7                       A:01 X:00 Y:80 P:64 SP:FD
beforeNMI = 0 and afterNMI = 0
C1D7  A5 40     LDA $40 = 01                    A:01 X:00 Y:80 P:64 SP:FD
beforeNMI = 0 and afterNMI = 0
C1D9  D0 FC     BNE $C1D7                       A:01 X:00 Y:80 P:64 SP:FD
beforeNMI = 0 and afterNMI = 0
C1D7  A5 40     LDA $40 = 01                    A:01 X:00 Y:80 P:64 SP:FD
beforeNMI = 0 and afterNMI = 0
C1D9  D0 FC     BNE $C1D7                       A:01 X:00 Y:80 P:64 SP:FD
beforeNMI = 0 and afterNMI = 0
C1D7  A5 40     LDA $40 = 01                    A:01 X:00 Y:80 P:64 SP:FD
beforeNMI = 0 and afterNMI = 0
C1D9  D0 FC     BNE $C1D7                       A:01 X:00 Y:80 P:64 SP:FD
beforeNMI = 0 and afterNMI = 0
C1D7  A5 40     LDA $40 = 01                    A:01 X:00 Y:80 P:64 SP:FD
beforeNMI = 0 and afterNMI = 0
C1D9  D0 FC     BNE $C1D7                       A:01 X:00 Y:80 P:64 SP:FD
beforeNMI = 0 and afterNMI = 0
C1D7  A5 40     LDA $40 = 01                    A:01 X:00 Y:80 P:64 SP:FD
beforeNMI = 0 and afterNMI = 0
C1D9  D0 FC     BNE $C1D7                       A:01 X:00 Y:80 P:64 SP:FD
beforeNMI = 0 and afterNMI = 0
C1D7  A5 40     LDA $40 = 01                    A:01 X:00 Y:80 P:64 SP:FD
beforeNMI = 0 and afterNMI = 0
C1D9  D0 FC     BNE $C1D7                       A:01 X:00 Y:80 P:64 SP:FD
beforeNMI = 0 and afterNMI = 0
C1D7  A5 40     LDA $40 = 01                    A:01 X:00 Y:80 P:64 SP:FD
beforeNMI = 0 and afterNMI = 0
C1D9  D0 FC     BNE $C1D7                       A:01 X:00 Y:80 P:64 SP:FD
beforeNMI = 0 and afterNMI = 0
C1D7  A5 40     LDA $40 = 01                    A:01 X:00 Y:80 P:64 SP:FD
beforeNMI = 0 and afterNMI = 0
C1D9  D0 FC     BNE $C1D7                       A:01 X:00 Y:80 P:64 SP:FD
beforeNMI = 0 and afterNMI = 0
C1D7  A5 40     LDA $40 = 01                    A:01 X:00 Y:80 P:64 SP:FD
beforeNMI = 0 and afterNMI = 0
C1D9  D0 FC     BNE $C1D7                       A:01 X:00 Y:80 P:64 SP:FD
beforeNMI = 0 and afterNMI = 0
C1D7  A5 40     LDA $40 = 01                    A:01 X:00 Y:80 P:64 SP:FD
beforeNMI = 0 and afterNMI = 0
C1D9  D0 FC     BNE $C1D7                       A:01 X:00 Y:80 P:64 SP:FD
beforeNMI = 0 and afterNMI = 0
C1D7  A5 40     LDA $40 = 01                    A:01 X:00 Y:80 P:64 SP:FD
beforeNMI = 0 and afterNMI = 0
C1D9  D0 FC     BNE $C1D7                       A:01 X:00 Y:80 P:64 SP:FD
beforeNMI = 0 and afterNMI = 0
C1D7  A5 40     LDA $40 = 01                    A:01 X:00 Y:80 P:64 SP:FD
beforeNMI = 0 and afterNMI = 0
C1D9  D0 FC     BNE $C1D7                       A:01 X:00 Y:80 P:64 SP:FD
beforeNMI = 0 and afterNMI = 0
C1D7  A5 40     LDA $40 = 01                    A:01 X:00 Y:80 P:64 SP:FD
beforeNMI = 0 and afterNMI = 0
C1D9  D0 FC     BNE $C1D7                       A:01 X:00 Y:80 P:64 SP:FD
beforeNMI = 0 and afterNMI = 0
C1D7  A5 40     LDA $40 = 01                    A:01 X:00 Y:80 P:64 SP:FD
beforeNMI = 0 and afterNMI = 0
C1D9  D0 FC     BNE $C1D7                       A:01 X:00 Y:80 P:64 SP:FD
beforeNMI = 0 and afterNMI = 0
C1D7  A5 40     LDA $40 = 01                    A:01 X:00 Y:80 P:64 SP:FD
beforeNMI = 0 and afterNMI = 0
C1D9  D0 FC     BNE $C1D7                       A:01 X:00 Y:80 P:64 SP:FD
beforeNMI = 0 and afterNMI = 0
C1D7  A5 40     LDA $40 = 01                    A:01 X:00 Y:80 P:64 SP:FD
beforeNMI = 0 and afterNMI = 0
C1D9  D0 FC     BNE $C1D7                       A:01 X:00 Y:80 P:64 SP:FD
beforeNMI = 0 and afterNMI = 0
C1D7  A5 40     LDA $40 = 01                    A:01 X:00 Y:80 P:64 SP:FD
beforeNMI = 0 and afterNMI = 0
C1D9  D0 FC     BNE $C1D7                       A:01 X:00 Y:80 P:64 SP:FD
beforeNMI = 0 and afterNMI = 0
C1D7  A5 40     LDA $40 = 01                    A:01 X:00 Y:80 P:64 SP:FD
beforeNMI = 0 and afterNMI = 0
C1D9  D0 FC     BNE $C1D7                       A:01 X:00 Y:80 P:64 SP:FD
beforeNMI = 0 and afterNMI = 0
C1D7  A5 40     LDA $40 = 01                    A:01 X:00 Y:80 P:64 SP:FD
beforeNMI = 0 and afterNMI = 0
C1D9  D0 FC     BNE $C1D7                       A:01 X:00 Y:80 P:64 SP:FD
beforeNMI = 0 and afterNMI = 0
C1D7  A5 40     LDA $40 = 01                    A:01 X:00 Y:80 P:64 SP:FD
beforeNMI = 0 and afterNMI = 0
C1D9  D0 FC     BNE $C1D7                       A:01 X:00 Y:80 P:64 SP:FD
beforeNMI = 0 and afterNMI = 0
C1D7  A5 40     LDA $40 = 01                    A:01 X:00 Y:80 P:64 SP:FD
beforeNMI = 0 and afterNMI = 0
C1D9  D0 FC     BNE $C1D7                       A:01 X:00 Y:80 P:64 SP:FD
beforeNMI = 0 and afterNMI = 0
C1D7  A5 40     LDA $40 = 01                    A:01 X:00 Y:80 P:64 SP:FD
beforeNMI = 0 and afterNMI = 0
C1D9  D0 FC     BNE $C1D7                       A:01 X:00 Y:80 P:64 SP:FD
beforeNMI = 0 and afterNMI = 0
C1D7  A5 40     LDA $40 = 01                    A:01 X:00 Y:80 P:64 SP:FD
beforeNMI = 0 and afterNMI = 0
C1D9  D0 FC     BNE $C1D7                       A:01 X:00 Y:80 P:64 SP:FD
beforeNMI = 0 and afterNMI = 0
C1D7  A5 40     LDA $40 = 01                    A:01 X:00 Y:80 P:64 SP:FD
beforeNMI = 0 and afterNMI = 0
C1D9  D0 FC     BNE $C1D7                       A:01 X:00 Y:80 P:64 SP:FD
beforeNMI = 0 and afterNMI = 0
C1D7  A5 40     LDA $40 = 01                    A:01 X:00 Y:80 P:64 SP:FD
beforeNMI = 0 and afterNMI = 0
C1D9  D0 FC     BNE $C1D7                       A:01 X:00 Y:80 P:64 SP:FD
beforeNMI = 0 and afterNMI = 0
C1D7  A5 40     LDA $40 = 01                    A:01 X:00 Y:80 P:64 SP:FD
beforeNMI = 0 and afterNMI = 0
C1D9  D0 FC     BNE $C1D7                       A:01 X:00 Y:80 P:64 SP:FD
beforeNMI = 0 and afterNMI = 0
C1D7  A5 40     LDA $40 = 01                    A:01 X:00 Y:80 P:64 SP:FD
beforeNMI = 0 and afterNMI = 0
C1D9  D0 FC     BNE $C1D7                       A:01 X:00 Y:80 P:64 SP:FD
beforeNMI = 0 and afterNMI = 0
C1D7  A5 40     LDA $40 = 01                    A:01 X:00 Y:80 P:64 SP:FD
beforeNMI = 0 and afterNMI = 0
C1D9  D0 FC     BNE $C1D7                       A:01 X:00 Y:80 P:64 SP:FD
beforeNMI = 0 and afterNMI = 0
C1D7  A5 40     LDA $40 = 01                    A:01 X:00 Y:80 P:64 SP:FD
beforeNMI = 0 and afterNMI = 0
C1D9  D0 FC     BNE $C1D7                       A:01 X:00 Y:80 P:64 SP:FD
beforeNMI = 0 and afterNMI = 0
C1D7  A5 40     LDA $40 = 01                    A:01 X:00 Y:80 P:64 SP:FD
beforeNMI = 0 and afterNMI = 0
C1D9  D0 FC     BNE $C1D7                       A:01 X:00 Y:80 P:64 SP:FD
beforeNMI = 0 and afterNMI = 0
C1D7  A5 40     LDA $40 = 01                    A:01 X:00 Y:80 P:64 SP:FD
beforeNMI = 0 and afterNMI = 0
C1D9  D0 FC     BNE $C1D7                       A:01 X:00 Y:80 P:64 SP:FD
beforeNMI = 0 and afterNMI = 0
C1D7  A5 40     LDA $40 = 01                    A:01 X:00 Y:80 P:64 SP:FD
beforeNMI = 0 and afterNMI = 0
C1D9  D0 FC     BNE $C1D7                       A:01 X:00 Y:80 P:64 SP:FD
beforeNMI = 0 and afterNMI = 0
C1D7  A5 40     LDA $40 = 01                    A:01 X:00 Y:80 P:64 SP:FD
beforeNMI = 0 and afterNMI = 0
C1D9  D0 FC     BNE $C1D7                       A:01 X:00 Y:80 P:64 SP:FD
beforeNMI = 0 and afterNMI = 0
C1D7  A5 40     LDA $40 = 01                    A:01 X:00 Y:80 P:64 SP:FD
beforeNMI = 0 and afterNMI = 0
C1D9  D0 FC     BNE $C1D7                       A:01 X:00 Y:80 P:64 SP:FD
beforeNMI = 0 and afterNMI = 0
C1D7  A5 40     LDA $40 = 01                    A:01 X:00 Y:80 P:64 SP:FD
beforeNMI = 0 and afterNMI = 0
C1D9  D0 FC     BNE $C1D7                       A:01 X:00 Y:80 P:64 SP:FD
beforeNMI = 0 and afterNMI = 0
C1D7  A5 40     LDA $40 = 01                    A:01 X:00 Y:80 P:64 SP:FD
beforeNMI = 0 and afterNMI = 0
C1D9  D0 FC     BNE $C1D7                       A:01 X:00 Y:80 P:64 SP:FD
beforeNMI = 0 and afterNMI = 0
C1D7  A5 40     LDA $40 = 01                    A:01 X:00 Y:80 P:64 SP:FD
beforeNMI = 0 and afterNMI = 0
C1D9  D0 FC     BNE $C1D7                       A:01 X:00 Y:80 P:64 SP:FD
beforeNMI = 0 and afterNMI = 0
C1D7  A5 40     LDA $40 = 01                    A:01 X:00 Y:80 P:64 SP:FD
beforeNMI = 0 and afterNMI = 0
C1D9  D0 FC     BNE $C1D7                       A:01 X:00 Y:80 P:64 SP:FD
beforeNMI = 0 and afterNMI = 0
C1D7  A5 40     LDA $40 = 01                    A:01 X:00 Y:80 P:64 SP:FD
beforeNMI = 0 and afterNMI = 0
C1D9  D0 FC     BNE $C1D7                       A:01 X:00 Y:80 P:64 SP:FD
beforeNMI = 0 and afterNMI = 0
C1D7  A5 40     LDA $40 = 01                    A:01 X:00 Y:80 P:64 SP:FD
beforeNMI = 0 and afterNMI = 0
C1D9  D0 FC     BNE $C1D7                       A:01 X:00 Y:80 P:64 SP:FD
beforeNMI = 0 and afterNMI = 0
C1D7  A5 40     LDA $40 = 01                    A:01 X:00 Y:80 P:64 SP:FD
beforeNMI = 0 and afterNMI = 0
C1D9  D0 FC     BNE $C1D7                       A:01 X:00 Y:80 P:64 SP:FD
beforeNMI = 0 and afterNMI = 0
C1D7  A5 40     LDA $40 = 01                    A:01 X:00 Y:80 P:64 SP:FD
beforeNMI = 0 and afterNMI = 0
C1D9  D0 FC     BNE $C1D7                       A:01 X:00 Y:80 P:64 SP:FD
beforeNMI = 0 and afterNMI = 0
C1D7  A5 40     LDA $40 = 01                    A:01 X:00 Y:80 P:64 SP:FD
beforeNMI = 0 and afterNMI = 0
C1D9  D0 FC     BNE $C1D7                       A:01 X:00 Y:80 P:64 SP:FD
beforeNMI = 0 and afterNMI = 0
C1D7  A5 40     LDA $40 = 01                    A:01 X:00 Y:80 P:64 SP:FD
beforeNMI = 0 and afterNMI = 0
C1D9  D0 FC     BNE $C1D7                       A:01 X:00 Y:80 P:64 SP:FD
beforeNMI = 0 and afterNMI = 0
C1D7  A5 40     LDA $40 = 01                    A:01 X:00 Y:80 P:64 SP:FD
beforeNMI = 0 and afterNMI = 0
C1D9  D0 FC     BNE $C1D7                       A:01 X:00 Y:80 P:64 SP:FD
beforeNMI = 0 and afterNMI = 0
C1D7  A5 40     LDA $40 = 01                    A:01 X:00 Y:80 P:64 SP:FD
beforeNMI = 0 and afterNMI = 0
C1D9  D0 FC     BNE $C1D7                       A:01 X:00 Y:80 P:64 SP:FD
beforeNMI = 0 and afterNMI = 0
C1D7  A5 40     LDA $40 = 01                    A:01 X:00 Y:80 P:64 SP:FD
beforeNMI = 0 and afterNMI = 0
C1D9  D0 FC     BNE $C1D7                       A:01 X:00 Y:80 P:64 SP:FD
beforeNMI = 0 and afterNMI = 0
C1D7  A5 40     LDA $40 = 01                    A:01 X:00 Y:80 P:64 SP:FD
beforeNMI = 0 and afterNMI = 0
C1D9  D0 FC     BNE $C1D7                       A:01 X:00 Y:80 P:64 SP:FD
beforeNMI = 0 and afterNMI = 0
C1D7  A5 40     LDA $40 = 01                    A:01 X:00 Y:80 P:64 SP:FD
beforeNMI = 0 and afterNMI = 0
C1D9  D0 FC     BNE $C1D7                       A:01 X:00 Y:80 P:64 SP:FD
beforeNMI = 0 and afterNMI = 0
C1D7  A5 40     LDA $40 = 01                    A:01 X:00 Y:80 P:64 SP:FD
beforeNMI = 0 and afterNMI = 0
C1D9  D0 FC     BNE $C1D7                       A:01 X:00 Y:80 P:64 SP:FD
beforeNMI = 0 and afterNMI = 0
C1D7  A5 40     LDA $40 = 01                    A:01 X:00 Y:80 P:64 SP:FD
beforeNMI = 0 and afterNMI = 0
C1D9  D0 FC     BNE $C1D7                       A:01 X:00 Y:80 P:64 SP:FD
beforeNMI = 0 and afterNMI = 0
C1D7  A5 40     LDA $40 = 01                    A:01 X:00 Y:80 P:64 SP:FD
beforeNMI = 0 and afterNMI = 0
C1D9  D0 FC     BNE $C1D7                       A:01 X:00 Y:80 P:64 SP:FD
beforeNMI = 0 and afterNMI = 0
C1D7  A5 40     LDA $40 = 01                    A:01 X:00 Y:80 P:64 SP:FD
beforeNMI = 0 and afterNMI = 0
C1D9  D0 FC     BNE $C1D7                       A:01 X:00 Y:80 P:64 SP:FD
beforeNMI = 0 and afterNMI = 0
C1D7  A5 40     LDA $40 = 01                    A:01 X:00 Y:80 P:64 SP:FD
beforeNMI = 0 and afterNMI = 0
C1D9  D0 FC     BNE $C1D7                       A:01 X:00 Y:80 P:64 SP:FD
beforeNMI = 0 and afterNMI = 0
C1D7  A5 40     LDA $40 = 01                    A:01 X:00 Y:80 P:64 SP:FD
beforeNMI = 0 and afterNMI = 0
C1D9  D0 FC     BNE $C1D7                       A:01 X:00 Y:80 P:64 SP:FD
beforeNMI = 0 and afterNMI = 0
C1D7  A5 40     LDA $40 = 01                    A:01 X:00 Y:80 P:64 SP:FD
beforeNMI = 0 and afterNMI = 0
C1D9  D0 FC     BNE $C1D7                       A:01 X:00 Y:80 P:64 SP:FD
beforeNMI = 0 and afterNMI = 0
C1D7  A5 40     LDA $40 = 01                    A:01 X:00 Y:80 P:64 SP:FD
beforeNMI = 0 and afterNMI = 0
C1D9  D0 FC     BNE $C1D7                       A:01 X:00 Y:80 P:64 SP:FD
beforeNMI = 0 and afterNMI = 0
C1D7  A5 40     LDA $40 = 01                    A:01 X:00 Y:80 P:64 SP:FD
beforeNMI = 0 and afterNMI = 0
C1D9  D0 FC     BNE $C1D7                       A:01 X:00 Y:80 P:64 SP:FD
beforeNMI = 0 and afterNMI = 0
C1D7  A5 40     LDA $40 = 01                    A:01 X:00 Y:80 P:64 SP:FD
beforeNMI = 0 and afterNMI = 0
C1D9  D0 FC     BNE $C1D7                       A:01 X:00 Y:80 P:64 SP:FD
beforeNMI = 0 and afterNMI = 0
C1D7  A5 40     LDA $40 = 01                    A:01 X:00 Y:80 P:64 SP:FD
beforeNMI = 0 and afterNMI = 0
C1D9  D0 FC     BNE $C1D7                       A:01 X:00 Y:80 P:64 SP:FD
beforeNMI = 0 and afterNMI = 0
C1D7  A5 40     LDA $40 = 01                    A:01 X:00 Y:80 P:64 SP:FD
beforeNMI = 0 and afterNMI = 0
C1D9  D0 FC     BNE $C1D7                       A:01 X:00 Y:80 P:64 SP:FD
beforeNMI = 0 and afterNMI = 0
C1D7  A5 40     LDA $40 = 01                    A:01 X:00 Y:80 P:64 SP:FD
beforeNMI = 0 and afterNMI = 0
C1D9  D0 FC     BNE $C1D7                       A:01 X:00 Y:80 P:64 SP:FD
beforeNMI = 0 and afterNMI = 0
C1D7  A5 40     LDA $40 = 01                    A:01 X:00 Y:80 P:64 SP:FD
beforeNMI = 0 and afterNMI = 0
C1D9  D0 FC     BNE $C1D7                       A:01 X:00 Y:80 P:64 SP:FD
beforeNMI = 0 and afterNMI = 0
C1D7  A5 40     LDA $40 = 01                    A:01 X:00 Y:80 P:64 SP:FD
beforeNMI = 0 and afterNMI = 0
C1D9  D0 FC     BNE $C1D7                       A:01 X:00 Y:80 P:64 SP:FD
beforeNMI = 0 and afterNMI = 0
C1D7  A5 40     LDA $40 = 01                    A:01 X:00 Y:80 P:64 SP:FD
beforeNMI = 0 and afterNMI = 0
C1D9  D0 FC     BNE $C1D7                       A:01 X:00 Y:80 P:64 SP:FD
beforeNMI = 0 and afterNMI = 0
C1D7  A5 40     LDA $40 = 01                    A:01 X:00 Y:80 P:64 SP:FD
beforeNMI = 0 and afterNMI = 0
C1D9  D0 FC     BNE $C1D7                       A:01 X:00 Y:80 P:64 SP:FD
beforeNMI = 0 and afterNMI = 0
C1D7  A5 40     LDA $40 = 01                    A:01 X:00 Y:80 P:64 SP:FD
beforeNMI = 0 and afterNMI = 0
C1D9  D0 FC     BNE $C1D7                       A:01 X:00 Y:80 P:64 SP:FD
beforeNMI = 0 and afterNMI = 0
C1D7  A5 40     LDA $40 = 01                    A:01 X:00 Y:80 P:64 SP:FD
beforeNMI = 0 and afterNMI = 0
C1D9  D0 FC     BNE $C1D7                       A:01 X:00 Y:80 P:64 SP:FD
beforeNMI = 0 and afterNMI = 0
C1D7  A5 40     LDA $40 = 01                    A:01 X:00 Y:80 P:64 SP:FD
beforeNMI = 0 and afterNMI = 0
C1D9  D0 FC     BNE $C1D7                       A:01 X:00 Y:80 P:64 SP:FD
beforeNMI = 0 and afterNMI = 0
C1D7  A5 40     LDA $40 = 01                    A:01 X:00 Y:80 P:64 SP:FD
beforeNMI = 0 and afterNMI = 0
C1D9  D0 FC     BNE $C1D7                       A:01 X:00 Y:80 P:64 SP:FD
beforeNMI = 0 and afterNMI = 0
C1D7  A5 40     LDA $40 = 01                    A:01 X:00 Y:80 P:64 SP:FD
beforeNMI = 0 and afterNMI = 0
C1D9  D0 FC     BNE $C1D7                       A:01 X:00 Y:80 P:64 SP:FD
beforeNMI = 0 and afterNMI = 0
C1D7  A5 40     LDA $40 = 01                    A:01 X:00 Y:80 P:64 SP:FD
beforeNMI = 0 and afterNMI = 0
C1D9  D0 FC     BNE $C1D7                       A:01 X:00 Y:80 P:64 SP:FD
beforeNMI = 0 and afterNMI = 0
C1D7  A5 40     LDA $40 = 01                    A:01 X:00 Y:80 P:64 SP:FD
beforeNMI = 0 and afterNMI = 0
C1D9  D0 FC     BNE $C1D7                       A:01 X:00 Y:80 P:64 SP:FD
beforeNMI = 0 and afterNMI = 0
C1D7  A5 40     LDA $40 = 01                    A:01 X:00 Y:80 P:64 SP:FD
beforeNMI = 0 and afterNMI = 0
C1D9  D0 FC     BNE $C1D7                       A:01 X:00 Y:80 P:64 SP:FD
beforeNMI = 0 and afterNMI = 0
C1D7  A5 40     LDA $40 = 01                    A:01 X:00 Y:80 P:64 SP:FD
beforeNMI = 0 and afterNMI = 0
C1D9  D0 FC     BNE $C1D7                       A:01 X:00 Y:80 P:64 SP:FD
beforeNMI = 0 and afterNMI = 0
C1D7  A5 40     LDA $40 = 01                    A:01 X:00 Y:80 P:64 SP:FD
beforeNMI = 0 and afterNMI = 0
C1D9  D0 FC     BNE $C1D7                       A:01 X:00 Y:80 P:64 SP:FD
beforeNMI = 0 and afterNMI = 0
C1D7  A5 40     LDA $40 = 01                    A:01 X:00 Y:80 P:64 SP:FD
beforeNMI = 0 and afterNMI = 0
C1D9  D0 FC     BNE $C1D7                       A:01 X:00 Y:80 P:64 SP:FD
beforeNMI = 0 and afterNMI = 0
C1D7  A5 40     LDA $40 = 01                    A:01 X:00 Y:80 P:64 SP:FD
beforeNMI = 0 and afterNMI = 0
C1D9  D0 FC     BNE $C1D7                       A:01 X:00 Y:80 P:64 SP:FD
beforeNMI = 0 and afterNMI = 0
C1D7  A5 40     LDA $40 = 01                    A:01 X:00 Y:80 P:64 SP:FD
beforeNMI = 0 and afterNMI = 0
C1D9  D0 FC     BNE $C1D7                       A:01 X:00 Y:80 P:64 SP:FD
beforeNMI = 0 and afterNMI = 0
C1D7  A5 40     LDA $40 = 01                    A:01 X:00 Y:80 P:64 SP:FD
beforeNMI = 0 and afterNMI = 0
C1D9  D0 FC     BNE $C1D7                       A:01 X:00 Y:80 P:64 SP:FD
beforeNMI = 0 and afterNMI = 0
C1D7  A5 40     LDA $40 = 01                    A:01 X:00 Y:80 P:64 SP:FD
beforeNMI = 0 and afterNMI = 0
C1D9  D0 FC     BNE $C1D7                       A:01 X:00 Y:80 P:64 SP:FD
beforeNMI = 0 and afterNMI = 0
C1D7  A5 40     LDA $40 = 01                    A:01 X:00 Y:80 P:64 SP:FD
beforeNMI = 0 and afterNMI = 0
C1D9  D0 FC     BNE $C1D7                       A:01 X:00 Y:80 P:64 SP:FD
beforeNMI = 0 and afterNMI = 0
C1D7  A5 40     LDA $40 = 01                    A:01 X:00 Y:80 P:64 SP:FD
beforeNMI = 0 and afterNMI = 0
C1D9  D0 FC     BNE $C1D7                       A:01 X:00 Y:80 P:64 SP:FD
beforeNMI = 0 and afterNMI = 0
C1D7  A5 40     LDA $40 = 01                    A:01 X:00 Y:80 P:64 SP:FD
beforeNMI = 0 and afterNMI = 0
C1D9  D0 FC     BNE $C1D7                       A:01 X:00 Y:80 P:64 SP:FD
beforeNMI = 0 and afterNMI = 0
C1D7  A5 40     LDA $40 = 01                    A:01 X:00 Y:80 P:64 SP:FD
beforeNMI = 0 and afterNMI = 0
C1D9  D0 FC     BNE $C1D7                       A:01 X:00 Y:80 P:64 SP:FD
beforeNMI = 0 and afterNMI = 0
C1D7  A5 40     LDA $40 = 01                    A:01 X:00 Y:80 P:64 SP:FD
beforeNMI = 0 and afterNMI = 0
C1D9  D0 FC     BNE $C1D7                       A:01 X:00 Y:80 P:64 SP:FD
beforeNMI = 0 and afterNMI = 0
C1D7  A5 40     LDA $40 = 01                    A:01 X:00 Y:80 P:64 SP:FD
beforeNMI = 0 and afterNMI = 0
C1D9  D0 FC     BNE $C1D7                       A:01 X:00 Y:80 P:64 SP:FD
beforeNMI = 0 and afterNMI = 0
C1D7  A5 40     LDA $40 = 01                    A:01 X:00 Y:80 P:64 SP:FD
beforeNMI = 0 and afterNMI = 0
C1D9  D0 FC     BNE $C1D7                       A:01 X:00 Y:80 P:64 SP:FD
beforeNMI = 0 and afterNMI = 0
C1D7  A5 40     LDA $40 = 01                    A:01 X:00 Y:80 P:64 SP:FD
beforeNMI = 0 and afterNMI = 0
C1D9  D0 FC     BNE $C1D7                       A:01 X:00 Y:80 P:64 SP:FD
beforeNMI = 0 and afterNMI = 0
C1D7  A5 40     LDA $40 = 01                    A:01 X:00 Y:80 P:64 SP:FD
beforeNMI = 0 and afterNMI = 0
C1D9  D0 FC     BNE $C1D7                       A:01 X:00 Y:80 P:64 SP:FD
beforeNMI = 0 and afterNMI = 0
C1D7  A5 40     LDA $40 = 01                    A:01 X:00 Y:80 P:64 SP:FD
beforeNMI = 0 and afterNMI = 0
C1D9  D0 FC     BNE $C1D7                       A:01 X:00 Y:80 P:64 SP:FD
beforeNMI = 0 and afterNMI = 0
C1D7  A5 40     LDA $40 = 01                    A:01 X:00 Y:80 P:64 SP:FD
beforeNMI = 0 and afterNMI = 0
C1D9  D0 FC     BNE $C1D7                       A:01 X:00 Y:80 P:64 SP:FD
beforeNMI = 0 and afterNMI = 0
C1D7  A5 40     LDA $40 = 01                    A:01 X:00 Y:80 P:64 SP:FD
beforeNMI = 0 and afterNMI = 0
C1D9  D0 FC     BNE $C1D7                       A:01 X:00 Y:80 P:64 SP:FD
beforeNMI = 0 and afterNMI = 0
C1D7  A5 40     LDA $40 = 01                    A:01 X:00 Y:80 P:64 SP:FD
beforeNMI = 0 and afterNMI = 0
C1D9  D0 FC     BNE $C1D7                       A:01 X:00 Y:80 P:64 SP:FD
beforeNMI = 0 and afterNMI = 0
C1D7  A5 40     LDA $40 = 01                    A:01 X:00 Y:80 P:64 SP:FD
beforeNMI = 0 and afterNMI = 0
C1D9  D0 FC     BNE $C1D7                       A:01 X:00 Y:80 P:64 SP:FD
beforeNMI = 0 and afterNMI = 0
C1D7  A5 40     LDA $40 = 01                    A:01 X:00 Y:80 P:64 SP:FD
beforeNMI = 0 and afterNMI = 0
C1D9  D0 FC     BNE $C1D7                       A:01 X:00 Y:80 P:64 SP:FD
beforeNMI = 0 and afterNMI = 0
C1D7  A5 40     LDA $40 = 01                    A:01 X:00 Y:80 P:64 SP:FD
beforeNMI = 0 and afterNMI = 0
C1D9  D0 FC     BNE $C1D7                       A:01 X:00 Y:80 P:64 SP:FD
beforeNMI = 0 and afterNMI = 0
C1D7  A5 40     LDA $40 = 01                    A:01 X:00 Y:80 P:64 SP:FD
beforeNMI = 0 and afterNMI = 0
C1D9  D0 FC     BNE $C1D7                       A:01 X:00 Y:80 P:64 SP:FD
beforeNMI = 0 and afterNMI = 0
C1D7  A5 40     LDA $40 = 01                    A:01 X:00 Y:80 P:64 SP:FD
beforeNMI = 0 and afterNMI = 0
C1D9  D0 FC     BNE $C1D7                       A:01 X:00 Y:80 P:64 SP:FD
beforeNMI = 0 and afterNMI = 0
C1D7  A5 40     LDA $40 = 01                    A:01 X:00 Y:80 P:64 SP:FD
beforeNMI = 0 and afterNMI = 0
C1D9  D0 FC     BNE $C1D7                       A:01 X:00 Y:80 P:64 SP:FD
beforeNMI = 0 and afterNMI = 0
C1D7  A5 40     LDA $40 = 01                    A:01 X:00 Y:80 P:64 SP:FD
beforeNMI = 0 and afterNMI = 0
C1D9  D0 FC     BNE $C1D7                       A:01 X:00 Y:80 P:64 SP:FD
beforeNMI = 0 and afterNMI = 0
C1D7  A5 40     LDA $40 = 01                    A:01 X:00 Y:80 P:64 SP:FD
beforeNMI = 0 and afterNMI = 0
C1D9  D0 FC     BNE $C1D7                       A:01 X:00 Y:80 P:64 SP:FD
beforeNMI = 0 and afterNMI = 0
C1D7  A5 40     LDA $40 = 01                    A:01 X:00 Y:80 P:64 SP:FD
beforeNMI = 0 and afterNMI = 0
C1D9  D0 FC     BNE $C1D7                       A:01 X:00 Y:80 P:64 SP:FD
beforeNMI = 0 and afterNMI = 0
C1D7  A5 40     LDA $40 = 01                    A:01 X:00 Y:80 P:64 SP:FD
beforeNMI = 0 and afterNMI = 0
C1D9  D0 FC     BNE $C1D7                       A:01 X:00 Y:80 P:64 SP:FD
beforeNMI = 0 and afterNMI = 0
C1D7  A5 40     LDA $40 = 01                    A:01 X:00 Y:80 P:64 SP:FD
beforeNMI = 0 and afterNMI = 0
C1D9  D0 FC     BNE $C1D7                       A:01 X:00 Y:80 P:64 SP:FD
beforeNMI = 0 and afterNMI = 0
C1D7  A5 40     LDA $40 = 01                    A:01 X:00 Y:80 P:64 SP:FD
beforeNMI = 0 and afterNMI = 0
C1D9  D0 FC     BNE $C1D7                       A:01 X:00 Y:80 P:64 SP:FD
beforeNMI = 0 and afterNMI = 0
C1D7  A5 40     LDA $40 = 01                    A:01 X:00 Y:80 P:64 SP:FD
beforeNMI = 0 and afterNMI = 0
C1D9  D0 FC     BNE $C1D7                       A:01 X:00 Y:80 P:64 SP:FD
beforeNMI = 0 and afterNMI = 0
C1D7  A5 40     LDA $40 = 01                    A:01 X:00 Y:80 P:64 SP:FD
beforeNMI = 0 and afterNMI = 0
C1D9  D0 FC     BNE $C1D7                       A:01 X:00 Y:80 P:64 SP:FD
beforeNMI = 0 and afterNMI = 0
C1D7  A5 40     LDA $40 = 01                    A:01 X:00 Y:80 P:64 SP:FD
beforeNMI = 0 and afterNMI = 0
C1D9  D0 FC     BNE $C1D7                       A:01 X:00 Y:80 P:64 SP:FD
beforeNMI = 0 and afterNMI = 0
C1D7  A5 40     LDA $40 = 01                    A:01 X:00 Y:80 P:64 SP:FD
beforeNMI = 0 and afterNMI = 0
C1D9  D0 FC     BNE $C1D7                       A:01 X:00 Y:80 P:64 SP:FD
beforeNMI = 0 and afterNMI = 0
C1D7  A5 40     LDA $40 = 01                    A:01 X:00 Y:80 P:64 SP:FD
beforeNMI = 0 and afterNMI = 0
C1D9  D0 FC     BNE $C1D7                       A:01 X:00 Y:80 P:64 SP:FD
beforeNMI = 0 and afterNMI = 0
C1D7  A5 40     LDA $40 = 01                    A:01 X:00 Y:80 P:64 SP:FD
beforeNMI = 0 and afterNMI = 0
C1D9  D0 FC     BNE $C1D7                       A:01 X:00 Y:80 P:64 SP:FD
beforeNMI = 0 and afterNMI = 0
C1D7  A5 40     LDA $40 = 01                    A:01 X:00 Y:80 P:64 SP:FD
beforeNMI = 0 and afterNMI = 0
C1D9  D0 FC     BNE $C1D7                       A:01 X:00 Y:80 P:64 SP:FD
beforeNMI = 0 and afterNMI = 0
C1D7  A5 40     LDA $40 = 01                    A:01 X:00 Y:80 P:64 SP:FD
beforeNMI = 0 and afterNMI = 0
C1D9  D0 FC     BNE $C1D7                       A:01 X:00 Y:80 P:64 SP:FD
beforeNMI = 0 and afterNMI = 0
C1D7  A5 40     LDA $40 = 01                    A:01 X:00 Y:80 P:64 SP:FD
beforeNMI = 0 and afterNMI = 0
C1D9  D0 FC     BNE $C1D7                       A:01 X:00 Y:80 P:64 SP:FD
beforeNMI = 0 and afterNMI = 0
C1D7  A5 40     LDA $40 = 01                    A:01 X:00 Y:80 P:64 SP:FD
beforeNMI = 0 and afterNMI = 0
C1D9  D0 FC     BNE $C1D7                       A:01 X:00 Y:80 P:64 SP:FD
beforeNMI = 0 and afterNMI = 0
C1D7  A5 40     LDA $40 = 01                    A:01 X:00 Y:80 P:64 SP:FD
beforeNMI = 0 and afterNMI = 0
C1D9  D0 FC     BNE $C1D7                       A:01 X:00 Y:80 P:64 SP:FD
beforeNMI = 0 and afterNMI = 0
C1D7  A5 40     LDA $40 = 01                    A:01 X:00 Y:80 P:64 SP:FD
beforeNMI = 0 and afterNMI = 0
C1D9  D0 FC     BNE $C1D7                       A:01 X:00 Y:80 P:64 SP:FD
beforeNMI = 0 and afterNMI = 0
C1D7  A5 40     LDA $40 = 01                    A:01 X:00 Y:80 P:64 SP:FD
beforeNMI = 0 and afterNMI = 0
C1D9  D0 FC     BNE $C1D7                       A:01 X:00 Y:80 P:64 SP:FD
beforeNMI = 0 and afterNMI = 0
C1D7  A5 40     LDA $40 = 01                    A:01 X:00 Y:80 P:64 SP:FD
beforeNMI = 0 and afterNMI = 0
C1D9  D0 FC     BNE $C1D7                       A:01 X:00 Y:80 P:64 SP:FD
beforeNMI = 0 and afterNMI = 0
C1D7  A5 40     LDA $40 = 01                    A:01 X:00 Y:80 P:64 SP:FD
beforeNMI = 0 and afterNMI = 0
C1D9  D0 FC     BNE $C1D7                       A:01 X:00 Y:80 P:64 SP:FD
beforeNMI = 0 and afterNMI = 0
C1D7  A5 40     LDA $40 = 01                    A:01 X:00 Y:80 P:64 SP:FD
beforeNMI = 0 and afterNMI = 0
C1D9  D0 FC     BNE $C1D7                       A:01 X:00 Y:80 P:64 SP:FD
beforeNMI = 0 and afterNMI = 0
C1D7  A5 40     LDA $40 = 01                    A:01 X:00 Y:80 P:64 SP:FD
beforeNMI = 0 and afterNMI = 0
C1D9  D0 FC     BNE $C1D7                       A:01 X:00 Y:80 P:64 SP:FD
beforeNMI = 0 and afterNMI = 0
C1D7  A5 40     LDA $40 = 01                    A:01 X:00 Y:80 P:64 SP:FD
beforeNMI = 0 and afterNMI = 0
C1D9  D0 FC     BNE $C1D7                       A:01 X:00 Y:80 P:64 SP:FD
beforeNMI = 0 and afterNMI = 0
C1D7  A5 40     LDA $40 = 01                    A:01 X:00 Y:80 P:64 SP:FD
beforeNMI = 0 and afterNMI = 0
C1D9  D0 FC     BNE $C1D7                       A:01 X:00 Y:80 P:64 SP:FD
beforeNMI = 0 and afterNMI = 0
C1D7  A5 40     LDA $40 = 01                    A:01 X:00 Y:80 P:64 SP:FD
beforeNMI = 0 and afterNMI = 0
C1D9  D0 FC     BNE $C1D7                       A:01 X:00 Y:80 P:64 SP:FD
beforeNMI = 0 and afterNMI = 0
C1D7  A5 40     LDA $40 = 01                    A:01 X:00 Y:80 P:64 SP:FD
beforeNMI = 0 and afterNMI = 0
C1D9  D0 FC     BNE $C1D7                       A:01 X:00 Y:80 P:64 SP:FD
beforeNMI = 0 and afterNMI = 0
C1D7  A5 40     LDA $40 = 01                    A:01 X:00 Y:80 P:64 SP:FD
beforeNMI = 0 and afterNMI = 0
C1D9  D0 FC     BNE $C1D7                       A:01 X:00 Y:80 P:64 SP:FD
beforeNMI = 0 and afterNMI = 0
C1D7  A5 40     LDA $40 = 01                    A:01 X:00 Y:80 P:64 SP:FD
beforeNMI = 0 and afterNMI = 0
C1D9  D0 FC     BNE $C1D7                       A:01 X:00 Y:80 P:64 SP:FD
beforeNMI = 0 and afterNMI = 0
C1D7  A5 40     LDA $40 = 01                    A:01 X:00 Y:80 P:64 SP:FD
beforeNMI = 0 and afterNMI = 0
C1D9  D0 FC     BNE $C1D7                       A:01 X:00 Y:80 P:64 SP:FD
beforeNMI = 0 and afterNMI = 0
C1D7  A5 40     LDA $40 = 01                    A:01 X:00 Y:80 P:64 SP:FD
beforeNMI = 0 and afterNMI = 0
C1D9  D0 FC     BNE $C1D7                       A:01 X:00 Y:80 P:64 SP:FD
beforeNMI = 0 and afterNMI = 0
C1D7  A5 40     LDA $40 = 01                    A:01 X:00 Y:80 P:64 SP:FD
beforeNMI = 0 and afterNMI = 0
C1D9  D0 FC     BNE $C1D7                       A:01 X:00 Y:80 P:64 SP:FD
beforeNMI = 0 and afterNMI = 0
C1D7  A5 40     LDA $40 = 01                    A:01 X:00 Y:80 P:64 SP:FD
beforeNMI = 0 and afterNMI = 0
C1D9  D0 FC     BNE $C1D7                       A:01 X:00 Y:80 P:64 SP:FD
beforeNMI = 0 and afterNMI = 0
C1D7  A5 40     LDA $40 = 01                    A:01 X:00 Y:80 P:64 SP:FD
beforeNMI = 0 and afterNMI = 0
C1D9  D0 FC     BNE $C1D7                       A:01 X:00 Y:80 P:64 SP:FD
beforeNMI = 0 and afterNMI = 0
C1D7  A5 40     LDA $40 = 01                    A:01 X:00 Y:80 P:64 SP:FD
beforeNMI = 0 and afterNMI = 0
C1D9  D0 FC     BNE $C1D7                       A:01 X:00 Y:80 P:64 SP:FD
beforeNMI = 0 and afterNMI = 0
C1D7  A5 40     LDA $40 = 01                    A:01 X:00 Y:80 P:64 SP:FD
beforeNMI = 0 and afterNMI = 0
C1D9  D0 FC     BNE $C1D7                       A:01 X:00 Y:80 P:64 SP:FD
beforeNMI = 0 and afterNMI = 0
C1D7  A5 40     LDA $40 = 01                    A:01 X:00 Y:80 P:64 SP:FD
beforeNMI = 0 and afterNMI = 0
C1D9  D0 FC     BNE $C1D7                       A:01 X:00 Y:80 P:64 SP:FD
beforeNMI = 0 and afterNMI = 0
C1D7  A5 40     LDA $40 = 01                    A:01 X:00 Y:80 P:64 SP:FD
beforeNMI = 0 and afterNMI = 0
C1D9  D0 FC     BNE $C1D7                       A:01 X:00 Y:80 P:64 SP:FD
beforeNMI = 0 and afterNMI = 0
C1D7  A5 40     LDA $40 = 01                    A:01 X:00 Y:80 P:64 SP:FD
beforeNMI = 0 and afterNMI = 0
C1D9  D0 FC     BNE $C1D7                       A:01 X:00 Y:80 P:64 SP:FD
beforeNMI = 0 and afterNMI = 0
C1D7  A5 40     LDA $40 = 01                    A:01 X:00 Y:80 P:64 SP:FD
beforeNMI = 0 and afterNMI = 0
C1D9  D0 FC     BNE $C1D7                       A:01 X:00 Y:80 P:64 SP:FD
beforeNMI = 0 and afterNMI = 0
C1D7  A5 40     LDA $40 = 01                    A:01 X:00 Y:80 P:64 SP:FD
beforeNMI = 0 and afterNMI = 0
C1D9  D0 FC     BNE $C1D7                       A:01 X:00 Y:80 P:64 SP:FD
beforeNMI = 0 and afterNMI = 0
C1D7  A5 40     LDA $40 = 01                    A:01 X:00 Y:80 P:64 SP:FD
beforeNMI = 0 and afterNMI = 0
C1D9  D0 FC     BNE $C1D7                       A:01 X:00 Y:80 P:64 SP:FD
beforeNMI = 0 and afterNMI = 0
C1D7  A5 40     LDA $40 = 01                    A:01 X:00 Y:80 P:64 SP:FD
beforeNMI = 0 and afterNMI = 0
C1D9  D0 FC     BNE $C1D7                       A:01 X:00 Y:80 P:64 SP:FD
beforeNMI = 0 and afterNMI = 0
C1D7  A5 40     LDA $40 = 01                    A:01 X:00 Y:80 P:64 SP:FD
beforeNMI = 0 and afterNMI = 0
C1D9  D0 FC     BNE $C1D7                       A:01 X:00 Y:80 P:64 SP:FD
beforeNMI = 0 and afterNMI = 0
C1D7  A5 40     LDA $40 = 01                    A:01 X:00 Y:80 P:64 SP:FD
beforeNMI = 0 and afterNMI = 0
C1D9  D0 FC     BNE $C1D7                       A:01 X:00 Y:80 P:64 SP:FD
beforeNMI = 0 and afterNMI = 0
C1D7  A5 40     LDA $40 = 01                    A:01 X:00 Y:80 P:64 SP:FD
beforeNMI = 0 and afterNMI = 0
C1D9  D0 FC     BNE $C1D7                       A:01 X:00 Y:80 P:64 SP:FD
beforeNMI = 0 and afterNMI = 0
C1D7  A5 40     LDA $40 = 01                    A:01 X:00 Y:80 P:64 SP:FD
beforeNMI = 0 and afterNMI = 0
C1D9  D0 FC     BNE $C1D7                       A:01 X:00 Y:80 P:64 SP:FD
beforeNMI = 0 and afterNMI = 0
C1D7  A5 40     LDA $40 = 01                    A:01 X:00 Y:80 P:64 SP:FD
beforeNMI = 0 and afterNMI = 0
C1D9  D0 FC     BNE $C1D7                       A:01 X:00 Y:80 P:64 SP:FD
beforeNMI = 0 and afterNMI = 0
C1D7  A5 40     LDA $40 = 01                    A:01 X:00 Y:80 P:64 SP:FD
beforeNMI = 0 and afterNMI = 0
C1D9  D0 FC     BNE $C1D7                       A:01 X:00 Y:80 P:64 SP:FD
beforeNMI = 0 and afterNMI = 0
C1D7  A5 40     LDA $40 = 01                    A:01 X:00 Y:80 P:64 SP:FD
beforeNMI = 0 and afterNMI = 0
C1D9  D0 FC     BNE $C1D7                       A:01 X:00 Y:80 P:64 SP:FD
beforeNMI = 0 and afterNMI = 0
C1D7  A5 40     LDA $40 = 01                    A:01 X:00 Y:80 P:64 SP:FD
beforeNMI = 0 and afterNMI = 0
C1D9  D0 FC     BNE $C1D7                       A:01 X:00 Y:80 P:64 SP:FD
beforeNMI = 0 and afterNMI = 0
C1D7  A5 40     LDA $40 = 01                    A:01 X:00 Y:80 P:64 SP:FD
beforeNMI = 0 and afterNMI = 0
C1D9  D0 FC     BNE $C1D7                       A:01 X:00 Y:80 P:64 SP:FD
beforeNMI = 0 and afterNMI = 0
C1D7  A5 40     LDA $40 = 01                    A:01 X:00 Y:80 P:64 SP:FD
beforeNMI = 0 and afterNMI = 0
C1D9  D0 FC     BNE $C1D7                       A:01 X:00 Y:80 P:64 SP:FD
beforeNMI = 0 and afterNMI = 0
C1D7  A5 40     LDA $40 = 01                    A:01 X:00 Y:80 P:64 SP:FD
beforeNMI = 0 and afterNMI = 0
C1D9  D0 FC     BNE $C1D7                       A:01 X:00 Y:80 P:64 SP:FD
beforeNMI = 0 and afterNMI = 0
C1D7  A5 40     LDA $40 = 01                    A:01 X:00 Y:80 P:64 SP:FD
beforeNMI = 0 and afterNMI = 0
C1D9  D0 FC     BNE $C1D7                       A:01 X:00 Y:80 P:64 SP:FD
beforeNMI = 0 and afterNMI = 0
C1D7  A5 40     LDA $40 = 01                    A:01 X:00 Y:80 P:64 SP:FD
beforeNMI = 0 and afterNMI = 0
C1D9  D0 FC     BNE $C1D7                       A:01 X:00 Y:80 P:64 SP:FD
beforeNMI = 0 and afterNMI = 0
C1D7  A5 40     LDA $40 = 01                    A:01 X:00 Y:80 P:64 SP:FD
beforeNMI = 0 and afterNMI = 0
C1D9  D0 FC     BNE $C1D7                       A:01 X:00 Y:80 P:64 SP:FD
beforeNMI = 0 and afterNMI = 0
C1D7  A5 40     LDA $40 = 01                    A:01 X:00 Y:80 P:64 SP:FD
beforeNMI = 0 and afterNMI = 0
C1D9  D0 FC     BNE $C1D7                       A:01 X:00 Y:80 P:64 SP:FD
beforeNMI = 0 and afterNMI = 0
C1D7  A5 40     LDA $40 = 01                    A:01 X:00 Y:80 P:64 SP:FD
beforeNMI = 0 and afterNMI = 0
C1D9  D0 FC     BNE $C1D7                       A:01 X:00 Y:80 P:64 SP:FD
beforeNMI = 0 and afterNMI = 0
C1D7  A5 40     LDA $40 = 01                    A:01 X:00 Y:80 P:64 SP:FD
beforeNMI = 0 and afterNMI = 0
C1D9  D0 FC     BNE $C1D7                       A:01 X:00 Y:80 P:64 SP:FD
beforeNMI = 0 and afterNMI = 0
C1D7  A5 40     LDA $40 = 01                    A:01 X:00 Y:80 P:64 SP:FD
beforeNMI = 0 and afterNMI = 0
C1D9  D0 FC     BNE $C1D7                       A:01 X:00 Y:80 P:64 SP:FD
beforeNMI = 0 and afterNMI = 0
C1D7  A5 40     LDA $40 = 01                    A:01 X:00 Y:80 P:64 SP:FD
beforeNMI = 0 and afterNMI = 0
C1D9  D0 FC     BNE $C1D7                       A:01 X:00 Y:80 P:64 SP:FD
beforeNMI = 0 and afterNMI = 0
C1D7  A5 40     LDA $40 = 01                    A:01 X:00 Y:80 P:64 SP:FD
beforeNMI = 0 and afterNMI = 0
C1D9  D0 FC     BNE $C1D7                       A:01 X:00 Y:80 P:64 SP:FD
beforeNMI = 0 and afterNMI = 0
C1D7  A5 40     LDA $40 = 01                    A:01 X:00 Y:80 P:64 SP:FD
beforeNMI = 0 and afterNMI = 0
C1D9  D0 FC     BNE $C1D7                       A:01 X:00 Y:80 P:64 SP:FD
beforeNMI = 0 and afterNMI = 0
C1D7  A5 40     LDA $40 = 01                    A:01 X:00 Y:80 P:64 SP:FD
beforeNMI = 0 and afterNMI = 0
C1D9  D0 FC     BNE $C1D7                       A:01 X:00 Y:80 P:64 SP:FD
beforeNMI = 0 and afterNMI = 0
C1D7  A5 40     LDA $40 = 01                    A:01 X:00 Y:80 P:64 SP:FD
beforeNMI = 0 and afterNMI = 0
C1D9  D0 FC     BNE $C1D7                       A:01 X:00 Y:80 P:64 SP:FD
beforeNMI = 0 and afterNMI = 0
C1D7  A5 40     LDA $40 = 01                    A:01 X:00 Y:80 P:64 SP:FD
beforeNMI = 0 and afterNMI = 0
C1D9  D0 FC     BNE $C1D7                       A:01 X:00 Y:80 P:64 SP:FD
beforeNMI = 0 and afterNMI = 0
C1D7  A5 40     LDA $40 = 01                    A:01 X:00 Y:80 P:64 SP:FD
beforeNMI = 0 and afterNMI = 0
C1D9  D0 FC     BNE $C1D7                       A:01 X:00 Y:80 P:64 SP:FD
beforeNMI = 0 and afterNMI = 0
C1D7  A5 40     LDA $40 = 01                    A:01 X:00 Y:80 P:64 SP:FD
beforeNMI = 0 and afterNMI = 0
C1D9  D0 FC     BNE $C1D7                       A:01 X:00 Y:80 P:64 SP:FD
beforeNMI = 0 and afterNMI = 0
C1D7  A5 40     LDA $40 = 01                    A:01 X:00 Y:80 P:64 SP:FD
beforeNMI = 0 and afterNMI = 0
C1D9  D0 FC     BNE $C1D7                       A:01 X:00 Y:80 P:64 SP:FD
beforeNMI = 0 and afterNMI = 0
C1D7  A5 40     LDA $40 = 01                    A:01 X:00 Y:80 P:64 SP:FD
beforeNMI = 0 and afterNMI = 0
C1D9  D0 FC     BNE $C1D7                       A:01 X:00 Y:80 P:64 SP:FD
beforeNMI = 0 and afterNMI = 0
C1D7  A5 40     LDA $40 = 01                    A:01 X:00 Y:80 P:64 SP:FD
beforeNMI = 0 and afterNMI = 0
C1D9  D0 FC     BNE $C1D7                       A:01 X:00 Y:80 P:64 SP:FD
beforeNMI = 0 and afterNMI = 0
C1D7  A5 40     LDA $40 = 01                    A:01 X:00 Y:80 P:64 SP:FD
beforeNMI = 0 and afterNMI = 0
C1D9  D0 FC     BNE $C1D7                       A:01 X:00 Y:80 P:64 SP:FD
beforeNMI = 0 and afterNMI = 0
C1D7  A5 40     LDA $40 = 01                    A:01 X:00 Y:80 P:64 SP:FD
beforeNMI = 0 and afterNMI = 0
C1D9  D0 FC     BNE $C1D7                       A:01 X:00 Y:80 P:64 SP:FD
beforeNMI = 0 and afterNMI = 0
C1D7  A5 40     LDA $40 = 01                    A:01 X:00 Y:80 P:64 SP:FD
beforeNMI = 0 and afterNMI = 0
C1D9  D0 FC     BNE $C1D7                       A:01 X:00 Y:80 P:64 SP:FD
beforeNMI = 0 and afterNMI = 0
C1D7  A5 40     LDA $40 = 01                    A:01 X:00 Y:80 P:64 SP:FD
beforeNMI = 0 and afterNMI = 0
C1D9  D0 FC     BNE $C1D7                       A:01 X:00 Y:80 P:64 SP:FD
beforeNMI = 0 and afterNMI = 0
C1D7  A5 40     LDA $40 = 01                    A:01 X:00 Y:80 P:64 SP:FD
beforeNMI = 0 and afterNMI = 0
C1D9  D0 FC     BNE $C1D7                       A:01 X:00 Y:80 P:64 SP:FD
beforeNMI = 0 and afterNMI = 0
C1D7  A5 40     LDA $40 = 01                    A:01 X:00 Y:80 P:64 SP:FD
beforeNMI = 0 and afterNMI = 0
C1D9  D0 FC     BNE $C1D7                       A:01 X:00 Y:80 P:64 SP:FD
beforeNMI = 0 and afterNMI = 0
C1D7  A5 40     LDA $40 = 01                    A:01 X:00 Y:80 P:64 SP:FD
beforeNMI = 0 and afterNMI = 0
C1D9  D0 FC     BNE $C1D7                       A:01 X:00 Y:80 P:64 SP:FD
beforeNMI = 0 and afterNMI = 0
C1D7  A5 40     LDA $40 = 01                    A:01 X:00 Y:80 P:64 SP:FD
beforeNMI = 0 and afterNMI = 0
C1D9  D0 FC     BNE $C1D7                       A:01 X:00 Y:80 P:64 SP:FD
beforeNMI = 0 and afterNMI = 0
C1D7  A5 40     LDA $40 = 01                    A:01 X:00 Y:80 P:64 SP:FD
beforeNMI = 0 and afterNMI = 0
C1D9  D0 FC     BNE $C1D7                       A:01 X:00 Y:80 P:64 SP:FD
beforeNMI = 0 and afterNMI = 0
C1D7  A5 40     LDA $40 = 01                    A:01 X:00 Y:80 P:64 SP:FD
beforeNMI = 0 and afterNMI = 0
C1D9  D0 FC     BNE $C1D7                       A:01 X:00 Y:80 P:64 SP:FD
beforeNMI = 0 and afterNMI = 0
C1D7  A5 40     LDA $40 = 01                    A:01 X:00 Y:80 P:64 SP:FD
beforeNMI = 0 and afterNMI = 0
C1D9  D0 FC     BNE $C1D7                       A:01 X:00 Y:80 P:64 SP:FD
beforeNMI = 0 and afterNMI = 0
C1D7  A5 40     LDA $40 = 01                    A:01 X:00 Y:80 P:64 SP:FD
beforeNMI = 0 and afterNMI = 0
C1D9  D0 FC     BNE $C1D7                       A:01 X:00 Y:80 P:64 SP:FD
beforeNMI = 0 and afterNMI = 0
C1D7  A5 40     LDA $40 = 01                    A:01 X:00 Y:80 P:64 SP:FD
beforeNMI = 0 and afterNMI = 0
C1D9  D0 FC     BNE $C1D7                       A:01 X:00 Y:80 P:64 SP:FD
beforeNMI = 0 and afterNMI = 0
C1D7  A5 40     LDA $40 = 01                    A:01 X:00 Y:80 P:64 SP:FD
beforeNMI = 0 and afterNMI = 0
C1D9  D0 FC     BNE $C1D7                       A:01 X:00 Y:80 P:64 SP:FD
beforeNMI = 0 and afterNMI = 0
C1D7  A5 40     LDA $40 = 01                    A:01 X:00 Y:80 P:64 SP:FD
beforeNMI = 0 and afterNMI = 0
C1D9  D0 FC     BNE $C1D7                       A:01 X:00 Y:80 P:64 SP:FD
beforeNMI = 0 and afterNMI = 0
C1D7  A5 40     LDA $40 = 01                    A:01 X:00 Y:80 P:64 SP:FD
beforeNMI = 0 and afterNMI = 0
C1D9  D0 FC     BNE $C1D7                       A:01 X:00 Y:80 P:64 SP:FD
beforeNMI = 0 and afterNMI = 0
C1D7  A5 40     LDA $40 = 01                    A:01 X:00 Y:80 P:64 SP:FD
beforeNMI = 0 and afterNMI = 0
C1D9  D0 FC     BNE $C1D7                       A:01 X:00 Y:80 P:64 SP:FD
beforeNMI = 0 and afterNMI = 0
C1D7  A5 40     LDA $40 = 01                    A:01 X:00 Y:80 P:64 SP:FD
beforeNMI = 0 and afterNMI = 0
C1D9  D0 FC     BNE $C1D7                       A:01 X:00 Y:80 P:64 SP:FD
beforeNMI = 0 and afterNMI = 0
C1D7  A5 40     LDA $40 = 01                    A:01 X:00 Y:80 P:64 SP:FD
beforeNMI = 0 and afterNMI = 0
C1D9  D0 FC     BNE $C1D7                       A:01 X:00 Y:80 P:64 SP:FD
beforeNMI = 0 and afterNMI = 0
C1D7  A5 40     LDA $40 = 01                    A:01 X:00 Y:80 P:64 SP:FD
beforeNMI = 0 and afterNMI = 0
C1D9  D0 FC     BNE $C1D7                       A:01 X:00 Y:80 P:64 SP:FD
beforeNMI = 0 and afterNMI = 0
C1D7  A5 40     LDA $40 = 01                    A:01 X:00 Y:80 P:64 SP:FD
beforeNMI = 0 and afterNMI = 0
C1D9  D0 FC     BNE $C1D7                       A:01 X:00 Y:80 P:64 SP:FD
beforeNMI = 0 and afterNMI = 0
C1D7  A5 40     LDA $40 = 01                    A:01 X:00 Y:80 P:64 SP:FD
beforeNMI = 0 and afterNMI = 0
C1D9  D0 FC     BNE $C1D7                       A:01 X:00 Y:80 P:64 SP:FD
beforeNMI = 0 and afterNMI = 0
C1D7  A5 40     LDA $40 = 01                    A:01 X:00 Y:80 P:64 SP:FD
beforeNMI = 0 and afterNMI = 0
C1D9  D0 FC     BNE $C1D7                       A:01 X:00 Y:80 P:64 SP:FD
beforeNMI = 0 and afterNMI = 0
C1D7  A5 40     LDA $40 = 01                    A:01 X:00 Y:80 P:64 SP:FD
beforeNMI = 0 and afterNMI = 0
C1D9  D0 FC     BNE $C1D7                       A:01 X:00 Y:80 P:64 SP:FD
beforeNMI = 0 and afterNMI = 0
C1D7  A5 40     LDA $40 = 01                    A:01 X:00 Y:80 P:64 SP:FD
beforeNMI = 0 and afterNMI = 0
C1D9  D0 FC     BNE $C1D7                       A:01 X:00 Y:80 P:64 SP:FD
beforeNMI = 0 and afterNMI = 0
C1D7  A5 40     LDA $40 = 01                    A:01 X:00 Y:80 P:64 SP:FD
beforeNMI = 0 and afterNMI = 0
C1D9  D0 FC     BNE $C1D7                       A:01 X:00 Y:80 P:64 SP:FD
beforeNMI = 0 and afterNMI = 0
C1D7  A5 40     LDA $40 = 01                    A:01 X:00 Y:80 P:64 SP:FD
beforeNMI = 0 and afterNMI = 0
C1D9  D0 FC     BNE $C1D7                       A:01 X:00 Y:80 P:64 SP:FD
beforeNMI = 0 and afterNMI = 0
C1D7  A5 40     LDA $40 = 01                    A:01 X:00 Y:80 P:64 SP:FD
beforeNMI = 0 and afterNMI = 0
C1D9  D0 FC     BNE $C1D7                       A:01 X:00 Y:80 P:64 SP:FD
beforeNMI = 0 and afterNMI = 0
C1D7  A5 40     LDA $40 = 01                    A:01 X:00 Y:80 P:64 SP:FD
beforeNMI = 0 and afterNMI = 0
C1D9  D0 FC     BNE $C1D7                       A:01 X:00 Y:80 P:64 SP:FD
beforeNMI = 0 and afterNMI = 0
C1D7  A5 40     LDA $40 = 01                    A:01 X:00 Y:80 P:64 SP:FD
beforeNMI = 0 and afterNMI = 0
C1D9  D0 FC     BNE $C1D7                       A:01 X:00 Y:80 P:64 SP:FD
beforeNMI = 0 and afterNMI = 0
C1D7  A5 40     LDA $40 = 01                    A:01 X:00 Y:80 P:64 SP:FD
beforeNMI = 0 and afterNMI = 0
C1D9  D0 FC     BNE $C1D7                       A:01 X:00 Y:80 P:64 SP:FD
beforeNMI = 0 and afterNMI = 0
C1D7  A5 40     LDA $40 = 01                    A:01 X:00 Y:80 P:64 SP:FD
beforeNMI = 0 and afterNMI = 0
C1D9  D0 FC     BNE $C1D7                       A:01 X:00 Y:80 P:64 SP:FD
beforeNMI = 0 and afterNMI = 0
C1D7  A5 40     LDA $40 = 01                    A:01 X:00 Y:80 P:64 SP:FD
beforeNMI = 0 and afterNMI = 0
C1D9  D0 FC     BNE $C1D7                       A:01 X:00 Y:80 P:64 SP:FD
beforeNMI = 0 and afterNMI = 0
C1D7  A5 40     LDA $40 = 01                    A:01 X:00 Y:80 P:64 SP:FD
beforeNMI = 0 and afterNMI = 0
C1D9  D0 FC     BNE $C1D7                       A:01 X:00 Y:80 P:64 SP:FD
beforeNMI = 0 and afterNMI = 0
C1D7  A5 40     LDA $40 = 01                    A:01 X:00 Y:80 P:64 SP:FD
beforeNMI = 0 and afterNMI = 0
C1D9  D0 FC     BNE $C1D7                       A:01 X:00 Y:80 P:64 SP:FD
beforeNMI = 0 and afterNMI = 0
C1D7  A5 40     LDA $40 = 01                    A:01 X:00 Y:80 P:64 SP:FD
beforeNMI = 0 and afterNMI = 0
C1D9  D0 FC     BNE $C1D7                       A:01 X:00 Y:80 P:64 SP:FD
beforeNMI = 0 and afterNMI = 0
C1D7  A5 40     LDA $40 = 01                    A:01 X:00 Y:80 P:64 SP:FD
beforeNMI = 0 and afterNMI = 0
C1D9  D0 FC     BNE $C1D7                       A:01 X:00 Y:80 P:64 SP:FD
beforeNMI = 0 and afterNMI = 0
C1D7  A5 40     LDA $40 = 01                    A:01 X:00 Y:80 P:64 SP:FD
beforeNMI = 0 and afterNMI = 0
C1D9  D0 FC     BNE $C1D7                       A:01 X:00 Y:80 P:64 SP:FD
beforeNMI = 0 and afterNMI = 0
C1D7  A5 40     LDA $40 = 01                    A:01 X:00 Y:80 P:64 SP:FD
beforeNMI = 0 and afterNMI = 0
C1D9  D0 FC     BNE $C1D7                       A:01 X:00 Y:80 P:64 SP:FD
beforeNMI = 0 and afterNMI = 0
C1D7  A5 40     LDA $40 = 01                    A:01 X:00 Y:80 P:64 SP:FD
beforeNMI = 0 and afterNMI = 0
C1D9  D0 FC     BNE $C1D7                       A:01 X:00 Y:80 P:64 SP:FD
beforeNMI = 0 and afterNMI = 0
C1D7  A5 40     LDA $40 = 01                    A:01 X:00 Y:80 P:64 SP:FD
beforeNMI = 0 and afterNMI = 0
C1D9  D0 FC     BNE $C1D7                       A:01 X:00 Y:80 P:64 SP:FD
beforeNMI = 0 and afterNMI = 0
C1D7  A5 40     LDA $40 = 01                    A:01 X:00 Y:80 P:64 SP:FD
beforeNMI = 0 and afterNMI = 0
C1D9  D0 FC     BNE $C1D7                       A:01 X:00 Y:80 P:64 SP:FD
beforeNMI = 0 and afterNMI = 0
C1D7  A5 40     LDA $40 = 01                    A:01 X:00 Y:80 P:64 SP:FD
beforeNMI = 0 and afterNMI = 0
C1D9  D0 FC     BNE $C1D7                       A:01 X:00 Y:80 P:64 SP:FD
beforeNMI = 0 and afterNMI = 0
C1D7  A5 40     LDA $40 = 01                    A:01 X:00 Y:80 P:64 SP:FD
beforeNMI = 0 and afterNMI = 0
C1D9  D0 FC     BNE $C1D7                       A:01 X:00 Y:80 P:64 SP:FD
beforeNMI = 0 and afterNMI = 0
C1D7  A5 40     LDA $40 = 01                    A:01 X:00 Y:80 P:64 SP:FD
beforeNMI = 0 and afterNMI = 0
C1D9  D0 FC     BNE $C1D7                       A:01 X:00 Y:80 P:64 SP:FD
beforeNMI = 0 and afterNMI = 0
C1D7  A5 40     LDA $40 = 01                    A:01 X:00 Y:80 P:64 SP:FD
beforeNMI = 0 and afterNMI = 0
C1D9  D0 FC     BNE $C1D7                       A:01 X:00 Y:80 P:64 SP:FD
beforeNMI = 0 and afterNMI = 0
C1D7  A5 40     LDA $40 = 01                    A:01 X:00 Y:80 P:64 SP:FD
beforeNMI = 0 and afterNMI = 0
C1D9  D0 FC     BNE $C1D7                       A:01 X:00 Y:80 P:64 SP:FD
beforeNMI = 0 and afterNMI = 0
C1D7  A5 40     LDA $40 = 01                    A:01 X:00 Y:80 P:64 SP:FD
beforeNMI = 0 and afterNMI = 0
C1D9  D0 FC     BNE $C1D7                       A:01 X:00 Y:80 P:64 SP:FD
beforeNMI = 0 and afterNMI = 0
C1D7  A5 40     LDA $40 = 01                    A:01 X:00 Y:80 P:64 SP:FD
beforeNMI = 0 and afterNMI = 0
C1D9  D0 FC     BNE $C1D7                       A:01 X:00 Y:80 P:64 SP:FD
beforeNMI = 0 and afterNMI = 0
C1D7  A5 40     LDA $40 = 01                    A:01 X:00 Y:80 P:64 SP:FD
beforeNMI = 0 and afterNMI = 0
C1D9  D0 FC     BNE $C1D7                       A:01 X:00 Y:80 P:64 SP:FD
beforeNMI = 0 and afterNMI = 0
C1D7  A5 40     LDA $40 = 01                    A:01 X:00 Y:80 P:64 SP:FD
beforeNMI = 0 and afterNMI = 0
C1D9  D0 FC     BNE $C1D7                       A:01 X:00 Y:80 P:64 SP:FD
beforeNMI = 0 and afterNMI = 0
C1D7  A5 40     LDA $40 = 01                    A:01 X:00 Y:80 P:64 SP:FD
beforeNMI = 0 and afterNMI = 0
C1D9  D0 FC     BNE $C1D7                       A:01 X:00 Y:80 P:64 SP:FD
beforeNMI = 0 and afterNMI = 0
C1D7  A5 40     LDA $40 = 01                    A:01 X:00 Y:80 P:64 SP:FD
beforeNMI = 0 and afterNMI = 0
C1D9  D0 FC     BNE $C1D7                       A:01 X:00 Y:80 P:64 SP:FD
beforeNMI = 0 and afterNMI = 0
C1D7  A5 40     LDA $40 = 01                    A:01 X:00 Y:80 P:64 SP:FD
beforeNMI = 0 and afterNMI = 0
C1D9  D0 FC     BNE $C1D7                       A:01 X:00 Y:80 P:64 SP:FD
beforeNMI = 0 and afterNMI = 0
C1D7  A5 40     LDA $40 = 01                    A:01 X:00 Y:80 P:64 SP:FD
beforeNMI = 0 and afterNMI = 0
C1D9  D0 FC     BNE $C1D7                       A:01 X:00 Y:80 P:64 SP:FD
beforeNMI = 0 and afterNMI = 0
C1D7  A5 40     LDA $40 = 01                    A:01 X:00 Y:80 P:64 SP:FD
beforeNMI = 0 and afterNMI = 0
C1D9  D0 FC     BNE $C1D7                       A:01 X:00 Y:80 P:64 SP:FD
beforeNMI = 0 and afterNMI = 0
C1D7  A5 40     LDA $40 = 01                    A:01 X:00 Y:80 P:64 SP:FD
beforeNMI = 0 and afterNMI = 0
C1D9  D0 FC     BNE $C1D7                       A:01 X:00 Y:80 P:64 SP:FD
beforeNMI = 0 and afterNMI = 0
C1D7  A5 40     LDA $40 = 01                    A:01 X:00 Y:80 P:64 SP:FD
beforeNMI = 0 and afterNMI = 0
C1D9  D0 FC     BNE $C1D7                       A:01 X:00 Y:80 P:64 SP:FD
beforeNMI = 0 and afterNMI = 0
C1D7  A5 40     LDA $40 = 01                    A:01 X:00 Y:80 P:64 SP:FD
beforeNMI = 0 and afterNMI = 0
C1D9  D0 FC     BNE $C1D7                       A:01 X:00 Y:80 P:64 SP:FD
beforeNMI = 0 and afterNMI = 0
C1D7  A5 40     LDA $40 = 01                    A:01 X:00 Y:80 P:64 SP:FD
beforeNMI = 0 and afterNMI = 0
C1D9  D0 FC     BNE $C1D7                       A:01 X:00 Y:80 P:64 SP:FD
beforeNMI = 0 and afterNMI = 0
C1D7  A5 40     LDA $40 = 01                    A:01 X:00 Y:80 P:64 SP:FD
beforeNMI = 0 and afterNMI = 0
C1D9  D0 FC     BNE $C1D7                       A:01 X:00 Y:80 P:64 SP:FD
beforeNMI = 0 and afterNMI = 0
C1D7  A5 40     LDA $40 = 01                    A:01 X:00 Y:80 P:64 SP:FD
beforeNMI = 0 and afterNMI = 0
C1D9  D0 FC     BNE $C1D7                       A:01 X:00 Y:80 P:64 SP:FD
beforeNMI = 0 and afterNMI = 0
C1D7  A5 40     LDA $40 = 01                    A:01 X:00 Y:80 P:64 SP:FD
beforeNMI = 0 and afterNMI = 0
C1D9  D0 FC     BNE $C1D7                       A:01 X:00 Y:80 P:64 SP:FD
beforeNMI = 0 and afterNMI = 0
C1D7  A5 40     LDA $40 = 01                    A:01 X:00 Y:80 P:64 SP:FD
beforeNMI = 0 and afterNMI = 0
C1D9  D0 FC     BNE $C1D7                       A:01 X:00 Y:80 P:64 SP:FD
beforeNMI = 0 and afterNMI = 0
C1D7  A5 40     LDA $40 = 01                    A:01 X:00 Y:80 P:64 SP:FD
beforeNMI = 0 and afterNMI = 0
C1D9  D0 FC     BNE $C1D7                       A:01 X:00 Y:80 P:64 SP:FD
beforeNMI = 0 and afterNMI = 0
C1D7  A5 40     LDA $40 = 01                    A:01 X:00 Y:80 P:64 SP:FD
beforeNMI = 0 and afterNMI = 0
C1D9  D0 FC     BNE $C1D7                       A:01 X:00 Y:80 P:64 SP:FD
beforeNMI = 0 and afterNMI = 0
C1D7  A5 40     LDA $40 = 01                    A:01 X:00 Y:80 P:64 SP:FD
beforeNMI = 0 and afterNMI = 0
C1D9  D0 FC     BNE $C1D7                       A:01 X:00 Y:80 P:64 SP:FD
beforeNMI = 0 and afterNMI = 0
C1D7  A5 40     LDA $40 = 01                    A:01 X:00 Y:80 P:64 SP:FD
beforeNMI = 0 and afterNMI = 0
C1D9  D0 FC     BNE $C1D7                       A:01 X:00 Y:80 P:64 SP:FD
beforeNMI = 0 and afterNMI = 0
C1D7  A5 40     LDA $40 = 01                    A:01 X:00 Y:80 P:64 SP:FD
beforeNMI = 0 and afterNMI = 0
C1D9  D0 FC     BNE $C1D7                       A:01 X:00 Y:80 P:64 SP:FD
beforeNMI = 0 and afterNMI = 0
C1D7  A5 40     LDA $40 = 01                    A:01 X:00 Y:80 P:64 SP:FD
beforeNMI = 0 and afterNMI = 0
C1D9  D0 FC     BNE $C1D7                       A:01 X:00 Y:80 P:64 SP:FD
beforeNMI = 0 and afterNMI = 0
C1D7  A5 40     LDA $40 = 01                    A:01 X:00 Y:80 P:64 SP:FD
beforeNMI = 0 and afterNMI = 0
C1D9  D0 FC     BNE $C1D7                       A:01 X:00 Y:80 P:64 SP:FD
beforeNMI = 0 and afterNMI = 0
C1D7  A5 40     LDA $40 = 01                    A:01 X:00 Y:80 P:64 SP:FD
beforeNMI = 0 and afterNMI = 0
C1D9  D0 FC     BNE $C1D7                       A:01 X:00 Y:80 P:64 SP:FD
beforeNMI = 0 and afterNMI = 0
C1D7  A5 40     LDA $40 = 01                    A:01 X:00 Y:80 P:64 SP:FD
beforeNMI = 0 and afterNMI = 0
C1D9  D0 FC     BNE $C1D7                       A:01 X:00 Y:80 P:64 SP:FD
beforeNMI = 0 and afterNMI = 0
C1D7  A5 40     LDA $40 = 01                    A:01 X:00 Y:80 P:64 SP:FD
beforeNMI = 0 and afterNMI = 0
C1D9  D0 FC     BNE $C1D7                       A:01 X:00 Y:80 P:64 SP:FD
beforeNMI = 0 and afterNMI = 0
C1D7  A5 40     LDA $40 = 01                    A:01 X:00 Y:80 P:64 SP:FD
beforeNMI = 0 and afterNMI = 0
C1D9  D0 FC     BNE $C1D7                       A:01 X:00 Y:80 P:64 SP:FD
beforeNMI = 0 and afterNMI = 0
C1D7  A5 40     LDA $40 = 01                    A:01 X:00 Y:80 P:64 SP:FD
beforeNMI = 0 and afterNMI = 0
C1D9  D0 FC     BNE $C1D7                       A:01 X:00 Y:80 P:64 SP:FD
beforeNMI = 0 and afterNMI = 0
C1D7  A5 40     LDA $40 = 01                    A:01 X:00 Y:80 P:64 SP:FD
beforeNMI = 0 and afterNMI = 0
C1D9  D0 FC     BNE $C1D7                       A:01 X:00 Y:80 P:64 SP:FD
beforeNMI = 0 and afterNMI = 0
C1D7  A5 40     LDA $40 = 01                    A:01 X:00 Y:80 P:64 SP:FD
beforeNMI = 0 and afterNMI = 0
C1D9  D0 FC     BNE $C1D7                       A:01 X:00 Y:80 P:64 SP:FD
beforeNMI = 0 and afterNMI = 0
C1D7  A5 40     LDA $40 = 01                    A:01 X:00 Y:80 P:64 SP:FD
beforeNMI = 0 and afterNMI = 0
C1D9  D0 FC     BNE $C1D7                       A:01 X:00 Y:80 P:64 SP:FD
beforeNMI = 0 and afterNMI = 0
C1D7  A5 40     LDA $40 = 01                    A:01 X:00 Y:80 P:64 SP:FD
beforeNMI = 0 and afterNMI = 0
C1D9  D0 FC     BNE $C1D7                       A:01 X:00 Y:80 P:64 SP:FD
beforeNMI = 0 and afterNMI = 0
C1D7  A5 40     LDA $40 = 01                    A:01 X:00 Y:80 P:64 SP:FD
beforeNMI = 0 and afterNMI = 0
C1D9  D0 FC     BNE $C1D7                       A:01 X:00 Y:80 P:64 SP:FD
beforeNMI = 0 and afterNMI = 0
C1D7  A5 40     LDA $40 = 01                    A:01 X:00 Y:80 P:64 SP:FD
beforeNMI = 0 and afterNMI = 0
C1D9  D0 FC     BNE $C1D7                       A:01 X:00 Y:80 P:64 SP:FD
beforeNMI = 0 and afterNMI = 0
C1D7  A5 40     LDA $40 = 01                    A:01 X:00 Y:80 P:64 SP:FD
beforeNMI = 0 and afterNMI = 0
C1D9  D0 FC     BNE $C1D7                       A:01 X:00 Y:80 P:64 SP:FD
beforeNMI = 0 and afterNMI = 0
C1D7  A5 40     LDA $40 = 01                    A:01 X:00 Y:80 P:64 SP:FD
beforeNMI = 0 and afterNMI = 0
C1D9  D0 FC     BNE $C1D7                       A:01 X:00 Y:80 P:64 SP:FD
beforeNMI = 0 and afterNMI = 0
C1D7  A5 40     LDA $40 = 01                    A:01 X:00 Y:80 P:64 SP:FD
beforeNMI = 0 and afterNMI = 0
C1D9  D0 FC     BNE $C1D7                       A:01 X:00 Y:80 P:64 SP:FD
beforeNMI = 0 and afterNMI = 0
C1D7  A5 40     LDA $40 = 01                    A:01 X:00 Y:80 P:64 SP:FD
beforeNMI = 0 and afterNMI = 0
C1D9  D0 FC     BNE $C1D7                       A:01 X:00 Y:80 P:64 SP:FD
beforeNMI = 0 and afterNMI = 0
C1D7  A5 40     LDA $40 = 01                    A:01 X:00 Y:80 P:64 SP:FD
beforeNMI = 0 and afterNMI = 0
C1D9  D0 FC     BNE $C1D7                       A:01 X:00 Y:80 P:64 SP:FD
beforeNMI = 0 and afterNMI = 0
C1D7  A5 40     LDA $40 = 01                    A:01 X:00 Y:80 P:64 SP:FD
beforeNMI = 0 and afterNMI = 0
C1D9  D0 FC     BNE $C1D7                       A:01 X:00 Y:80 P:64 SP:FD
beforeNMI = 0 and afterNMI = 0
C1D7  A5 40     LDA $40 = 01                    A:01 X:00 Y:80 P:64 SP:FD
beforeNMI = 0 and afterNMI = 0
C1D9  D0 FC     BNE $C1D7                       A:01 X:00 Y:80 P:64 SP:FD
beforeNMI = 0 and afterNMI = 0
C1D7  A5 40     LDA $40 = 01                    A:01 X:00 Y:80 P:64 SP:FD
beforeNMI = 0 and afterNMI = 0
C1D9  D0 FC     BNE $C1D7                       A:01 X:00 Y:80 P:64 SP:FD
beforeNMI = 0 and afterNMI = 0
C1D7  A5 40     LDA $40 = 01                    A:01 X:00 Y:80 P:64 SP:FD
beforeNMI = 0 and afterNMI = 0
C1D9  D0 FC     BNE $C1D7                       A:01 X:00 Y:80 P:64 SP:FD
beforeNMI = 0 and afterNMI = 0
C1D7  A5 40     LDA $40 = 01                    A:01 X:00 Y:80 P:64 SP:FD
beforeNMI = 0 and afterNMI = 0
C1D9  D0 FC     BNE $C1D7                       A:01 X:00 Y:80 P:64 SP:FD
beforeNMI = 0 and afterNMI = 0
C1D7  A5 40     LDA $40 = 01                    A:01 X:00 Y:80 P:64 SP:FD
beforeNMI = 0 and afterNMI = 0
C1D9  D0 FC     BNE $C1D7                       A:01 X:00 Y:80 P:64 SP:FD
beforeNMI = 0 and afterNMI = 0
C1D7  A5 40     LDA $40 = 01                    A:01 X:00 Y:80 P:64 SP:FD
beforeNMI = 0 and afterNMI = 0
C1D9  D0 FC     BNE $C1D7                       A:01 X:00 Y:80 P:64 SP:FD
beforeNMI = 0 and afterNMI = 0
C1D7  A5 40     LDA $40 = 01                    A:01 X:00 Y:80 P:64 SP:FD
beforeNMI = 0 and afterNMI = 0
C1D9  D0 FC     BNE $C1D7                       A:01 X:00 Y:80 P:64 SP:FD
beforeNMI = 0 and afterNMI = 0
C1D7  A5 40     LDA $40 = 01                    A:01 X:00 Y:80 P:64 SP:FD
beforeNMI = 0 and afterNMI = 0
C1D9  D0 FC     BNE $C1D7                       A:01 X:00 Y:80 P:64 SP:FD
beforeNMI = 0 and afterNMI = 0
C1D7  A5 40     LDA $40 = 01                    A:01 X:00 Y:80 P:64 SP:FD
beforeNMI = 0 and afterNMI = 0
C1D9  D0 FC     BNE $C1D7                       A:01 X:00 Y:80 P:64 SP:FD
beforeNMI = 0 and afterNMI = 0
C1D7  A5 40     LDA $40 = 01                    A:01 X:00 Y:80 P:64 SP:FD
beforeNMI = 0 and afterNMI = 0
C1D9  D0 FC     BNE $C1D7                       A:01 X:00 Y:80 P:64 SP:FD
beforeNMI = 0 and afterNMI = 0
C1D7  A5 40     LDA $40 = 01                    A:01 X:00 Y:80 P:64 SP:FD
beforeNMI = 0 and afterNMI = 0
C1D9  D0 FC     BNE $C1D7                       A:01 X:00 Y:80 P:64 SP:FD
beforeNMI = 0 and afterNMI = 0
C1D7  A5 40     LDA $40 = 01                    A:01 X:00 Y:80 P:64 SP:FD
beforeNMI = 0 and afterNMI = 0
C1D9  D0 FC     BNE $C1D7                       A:01 X:00 Y:80 P:64 SP:FD
beforeNMI = 0 and afterNMI = 0
C1D7  A5 40     LDA $40 = 01                    A:01 X:00 Y:80 P:64 SP:FD
beforeNMI = 0 and afterNMI = 0
C1D9  D0 FC     BNE $C1D7                       A:01 X:00 Y:80 P:64 SP:FD
beforeNMI = 0 and afterNMI = 0
C1D7  A5 40     LDA $40 = 01                    A:01 X:00 Y:80 P:64 SP:FD
beforeNMI = 0 and afterNMI = 0
C1D9  D0 FC     BNE $C1D7                       A:01 X:00 Y:80 P:64 SP:FD
beforeNMI = 0 and afterNMI = 0
C1D7  A5 40     LDA $40 = 01                    A:01 X:00 Y:80 P:64 SP:FD
beforeNMI = 0 and afterNMI = 0
C1D9  D0 FC     BNE $C1D7                       A:01 X:00 Y:80 P:64 SP:FD
beforeNMI = 0 and afterNMI = 0
C1D7  A5 40     LDA $40 = 01                    A:01 X:00 Y:80 P:64 SP:FD
beforeNMI = 0 and afterNMI = 0
C1D9  D0 FC     BNE $C1D7                       A:01 X:00 Y:80 P:64 SP:FD
beforeNMI = 0 and afterNMI = 0
C1D7  A5 40     LDA $40 = 01                    A:01 X:00 Y:80 P:64 SP:FD
beforeNMI = 0 and afterNMI = 0
C1D9  D0 FC     BNE $C1D7                       A:01 X:00 Y:80 P:64 SP:FD
beforeNMI = 0 and afterNMI = 0
C1D7  A5 40     LDA $40 = 01                    A:01 X:00 Y:80 P:64 SP:FD
beforeNMI = 0 and afterNMI = 0
C1D9  D0 FC     BNE $C1D7                       A:01 X:00 Y:80 P:64 SP:FD
beforeNMI = 0 and afterNMI = 0
C1D7  A5 40     LDA $40 = 01                    A:01 X:00 Y:80 P:64 SP:FD
beforeNMI = 0 and afterNMI = 0
C1D9  D0 FC     BNE $C1D7                       A:01 X:00 Y:80 P:64 SP:FD
beforeNMI = 0 and afterNMI = 0
C1D7  A5 40     LDA $40 = 01                    A:01 X:00 Y:80 P:64 SP:FD
beforeNMI = 0 and afterNMI = 0
C1D9  D0 FC     BNE $C1D7                       A:01 X:00 Y:80 P:64 SP:FD
beforeNMI = 0 and afterNMI = 0
C1D7  A5 40     LDA $40 = 01                    A:01 X:00 Y:80 P:64 SP:FD
beforeNMI = 0 and afterNMI = 0
C1D9  D0 FC     BNE $C1D7                       A:01 X:00 Y:80 P:64 SP:FD
beforeNMI = 0 and afterNMI = 0
C1D7  A5 40     LDA $40 = 01                    A:01 X:00 Y:80 P:64 SP:FD
beforeNMI = 0 and afterNMI = 0
C1D9  D0 FC     BNE $C1D7                       A:01 X:00 Y:80 P:64 SP:FD
beforeNMI = 0 and afterNMI = 0
C1D7  A5 40     LDA $40 = 01                    A:01 X:00 Y:80 P:64 SP:FD
beforeNMI = 0 and afterNMI = 0
C1D9  D0 FC     BNE $C1D7                       A:01 X:00 Y:80 P:64 SP:FD
beforeNMI = 0 and afterNMI = 0
C1D7  A5 40     LDA $40 = 01                    A:01 X:00 Y:80 P:64 SP:FD
beforeNMI = 0 and afterNMI = 0
C1D9  D0 FC     BNE $C1D7                       A:01 X:00 Y:80 P:64 SP:FD
beforeNMI = 0 and afterNMI = 0
C1D7  A5 40     LDA $40 = 01                    A:01 X:00 Y:80 P:64 SP:FD
beforeNMI = 0 and afterNMI = 0
C1D9  D0 FC     BNE $C1D7                       A:01 X:00 Y:80 P:64 SP:FD
beforeNMI = 0 and afterNMI = 0
C1D7  A5 40     LDA $40 = 01                    A:01 X:00 Y:80 P:64 SP:FD
beforeNMI = 0 and afterNMI = 0
C1D9  D0 FC     BNE $C1D7                       A:01 X:00 Y:80 P:64 SP:FD
beforeNMI = 0 and afterNMI = 0
C1D7  A5 40     LDA $40 = 01                    A:01 X:00 Y:80 P:64 SP:FD
beforeNMI = 0 and afterNMI = 0
C1D9  D0 FC     BNE $C1D7                       A:01 X:00 Y:80 P:64 SP:FD
beforeNMI = 0 and afterNMI = 0
C1D7  A5 40     LDA $40 = 01                    A:01 X:00 Y:80 P:64 SP:FD
beforeNMI = 0 and afterNMI = 0
C1D9  D0 FC     BNE $C1D7                       A:01 X:00 Y:80 P:64 SP:FD
beforeNMI = 0 and afterNMI = 0
C1D7  A5 40     LDA $40 = 01                    A:01 X:00 Y:80 P:64 SP:FD
beforeNMI = 0 and afterNMI = 0
C1D9  D0 FC     BNE $C1D7                       A:01 X:00 Y:80 P:64 SP:FD
beforeNMI = 0 and afterNMI = 0
C1D7  A5 40     LDA $40 = 01                    A:01 X:00 Y:80 P:64 SP:FD
beforeNMI = 0 and afterNMI = 0
C1D9  D0 FC     BNE $C1D7                       A:01 X:00 Y:80 P:64 SP:FD
beforeNMI = 0 and afterNMI = 0
C1D7  A5 40     LDA $40 = 01                    A:01 X:00 Y:80 P:64 SP:FD
beforeNMI = 0 and afterNMI = 0
C1D9  D0 FC     BNE $C1D7                       A:01 X:00 Y:80 P:64 SP:FD
beforeNMI = 0 and afterNMI = 0
C1D7  A5 40     LDA $40 = 01                    A:01 X:00 Y:80 P:64 SP:FD
beforeNMI = 0 and afterNMI = 0
C1D9  D0 FC     BNE $C1D7                       A:01 X:00 Y:80 P:64 SP:FD
beforeNMI = 0 and afterNMI = 0
C1D7  A5 40     LDA $40 = 01                    A:01 X:00 Y:80 P:64 SP:FD
beforeNMI = 0 and afterNMI = 0
C1D9  D0 FC     BNE $C1D7                       A:01 X:00 Y:80 P:64 SP:FD
beforeNMI = 0 and afterNMI = 0
C1D7  A5 40     LDA $40 = 01                    A:01 X:00 Y:80 P:64 SP:FD
beforeNMI = 0 and afterNMI = 0
C1D9  D0 FC     BNE $C1D7                       A:01 X:00 Y:80 P:64 SP:FD
beforeNMI = 0 and afterNMI = 0
C1D7  A5 40     LDA $40 = 01                    A:01 X:00 Y:80 P:64 SP:FD
beforeNMI = 0 and afterNMI = 0
C1D9  D0 FC     BNE $C1D7                       A:01 X:00 Y:80 P:64 SP:FD
beforeNMI = 0 and afterNMI = 0
C1D7  A5 40     LDA $40 = 01                    A:01 X:00 Y:80 P:64 SP:FD
beforeNMI = 0 and afterNMI = 0
C1D9  D0 FC     BNE $C1D7                       A:01 X:00 Y:80 P:64 SP:FD
beforeNMI = 0 and afterNMI = 0
C1D7  A5 40     LDA $40 = 01                    A:01 X:00 Y:80 P:64 SP:FD
beforeNMI = 0 and afterNMI = 0
C1D9  D0 FC     BNE $C1D7                       A:01 X:00 Y:80 P:64 SP:FD
beforeNMI = 0 and afterNMI = 0
C1D7  A5 40     LDA $40 = 01                    A:01 X:00 Y:80 P:64 SP:FD
beforeNMI = 0 and afterNMI = 0
C1D9  D0 FC     BNE $C1D7                       A:01 X:00 Y:80 P:64 SP:FD
beforeNMI = 0 and afterNMI = 0
C1D7  A5 40     LDA $40 = 01                    A:01 X:00 Y:80 P:64 SP:FD
beforeNMI = 0 and afterNMI = 0
C1D9  D0 FC     BNE $C1D7                       A:01 X:00 Y:80 P:64 SP:FD
beforeNMI = 0 and afterNMI = 0
C1D7  A5 40     LDA $40 = 01                    A:01 X:00 Y:80 P:64 SP:FD
beforeNMI = 0 and afterNMI = 0
C1D9  D0 FC     BNE $C1D7                       A:01 X:00 Y:80 P:64 SP:FD
beforeNMI = 0 and afterNMI = 0
C1D7  A5 40     LDA $40 = 01                    A:01 X:00 Y:80 P:64 SP:FD
beforeNMI = 0 and afterNMI = 0
C1D9  D0 FC     BNE $C1D7                       A:01 X:00 Y:80 P:64 SP:FD
beforeNMI = 0 and afterNMI = 0
C1D7  A5 40     LDA $40 = 01                    A:01 X:00 Y:80 P:64 SP:FD
beforeNMI = 0 and afterNMI = 0
C1D9  D0 FC     BNE $C1D7                       A:01 X:00 Y:80 P:64 SP:FD
beforeNMI = 0 and afterNMI = 0
C1D7  A5 40     LDA $40 = 01                    A:01 X:00 Y:80 P:64 SP:FD
beforeNMI = 0 and afterNMI = 0
C1D9  D0 FC     BNE $C1D7                       A:01 X:00 Y:80 P:64 SP:FD
beforeNMI = 0 and afterNMI = 0
C1D7  A5 40     LDA $40 = 01                    A:01 X:00 Y:80 P:64 SP:FD
beforeNMI = 0 and afterNMI = 0
C1D9  D0 FC     BNE $C1D7                       A:01 X:00 Y:80 P:64 SP:FD
beforeNMI = 0 and afterNMI = 0
C1D7  A5 40     LDA $40 = 01                    A:01 X:00 Y:80 P:64 SP:FD
beforeNMI = 0 and afterNMI = 0
C1D9  D0 FC     BNE $C1D7                       A:01 X:00 Y:80 P:64 SP:FD
beforeNMI = 0 and afterNMI = 0
C1D7  A5 40     LDA $40 = 01                    A:01 X:00 Y:80 P:64 SP:FD
beforeNMI = 0 and afterNMI = 0
C1D9  D0 FC     BNE $C1D7                       A:01 X:00 Y:80 P:64 SP:FD
beforeNMI = 0 and afterNMI = 0
C1D7  A5 40     LDA $40 = 01                    A:01 X:00 Y:80 P:64 SP:FD
beforeNMI = 0 and afterNMI = 0
C1D9  D0 FC     BNE $C1D7                       A:01 X:00 Y:80 P:64 SP:FD
beforeNMI = 0 and afterNMI = 0
C1D7  A5 40     LDA $40 = 01                    A:01 X:00 Y:80 P:64 SP:FD
beforeNMI = 0 and afterNMI = 0
C1D9  D0 FC     BNE $C1D7                       A:01 X:00 Y:80 P:64 SP:FD
beforeNMI = 0 and afterNMI = 0
C1D7  A5 40     LDA $40 = 01                    A:01 X:00 Y:80 P:64 SP:FD
beforeNMI = 0 and afterNMI = 0
C1D9  D0 FC     BNE $C1D7                       A:01 X:00 Y:80 P:64 SP:FD
beforeNMI = 0 and afterNMI = 0
C1D7  A5 40     LDA $40 = 01                    A:01 X:00 Y:80 P:64 SP:FD
beforeNMI = 0 and afterNMI = 0
C1D9  D0 FC     BNE $C1D7                       A:01 X:00 Y:80 P:64 SP:FD
beforeNMI = 0 and afterNMI = 0
C1D7  A5 40     LDA $40 = 01                    A:01 X:00 Y:80 P:64 SP:FD
beforeNMI = 0 and afterNMI = 0
C1D9  D0 FC     BNE $C1D7                       A:01 X:00 Y:80 P:64 SP:FD
beforeNMI = 0 and afterNMI = 0
C1D7  A5 40     LDA $40 = 01                    A:01 X:00 Y:80 P:64 SP:FD
beforeNMI = 0 and afterNMI = 0
C1D9  D0 FC     BNE $C1D7                       A:01 X:00 Y:80 P:64 SP:FD
beforeNMI = 0 and afterNMI = 0
C1D7  A5 40     LDA $40 = 01                    A:01 X:00 Y:80 P:64 SP:FD
beforeNMI = 0 and afterNMI = 0
C1D9  D0 FC     BNE $C1D7                       A:01 X:00 Y:80 P:64 SP:FD
beforeNMI = 0 and afterNMI = 0
C1D7  A5 40     LDA $40 = 01                    A:01 X:00 Y:80 P:64 SP:FD
beforeNMI = 0 and afterNMI = 0
C1D9  D0 FC     BNE $C1D7                       A:01 X:00 Y:80 P:64 SP:FD
beforeNMI = 0 and afterNMI = 0
C1D7  A5 40     LDA $40 = 01                    A:01 X:00 Y:80 P:64 SP:FD
beforeNMI = 0 and afterNMI = 0
C1D9  D0 FC     BNE $C1D7                       A:01 X:00 Y:80 P:64 SP:FD
beforeNMI = 0 and afterNMI = 0
C1D7  A5 40     LDA $40 = 01                    A:01 X:00 Y:80 P:64 SP:FD
beforeNMI = 0 and afterNMI = 0
C1D9  D0 FC     BNE $C1D7                       A:01 X:00 Y:80 P:64 SP:FD
beforeNMI = 0 and afterNMI = 0
C1D7  A5 40     LDA $40 = 01                    A:01 X:00 Y:80 P:64 SP:FD
beforeNMI = 0 and afterNMI = 0
C1D9  D0 FC     BNE $C1D7                       A:01 X:00 Y:80 P:64 SP:FD
beforeNMI = 0 and afterNMI = 0
C1D7  A5 40     LDA $40 = 01                    A:01 X:00 Y:80 P:64 SP:FD
beforeNMI = 0 and afterNMI = 0
C1D9  D0 FC     BNE $C1D7                       A:01 X:00 Y:80 P:64 SP:FD
beforeNMI = 0 and afterNMI = 0
C1D7  A5 40     LDA $40 = 01                    A:01 X:00 Y:80 P:64 SP:FD
beforeNMI = 0 and afterNMI = 0
C1D9  D0 FC     BNE $C1D7                       A:01 X:00 Y:80 P:64 SP:FD
beforeNMI = 0 and afterNMI = 0
C1D7  A5 40     LDA $40 = 01                    A:01 X:00 Y:80 P:64 SP:FD
beforeNMI = 0 and afterNMI = 0
C1D9  D0 FC     BNE $C1D7                       A:01 X:00 Y:80 P:64 SP:FD
beforeNMI = 0 and afterNMI = 0
C1D7  A5 40     LDA $40 = 01                    A:01 X:00 Y:80 P:64 SP:FD
beforeNMI = 0 and afterNMI = 0
C1D9  D0 FC     BNE $C1D7                       A:01 X:00 Y:80 P:64 SP:FD
beforeNMI = 0 and afterNMI = 0
C1D7  A5 40     LDA $40 = 01                    A:01 X:00 Y:80 P:64 SP:FD
beforeNMI = 0 and afterNMI = 0
C1D9  D0 FC     BNE $C1D7                       A:01 X:00 Y:80 P:64 SP:FD
beforeNMI = 0 and afterNMI = 0
C1D7  A5 40     LDA $40 = 01                    A:01 X:00 Y:80 P:64 SP:FD
beforeNMI = 0 and afterNMI = 0
C1D9  D0 FC     BNE $C1D7                       A:01 X:00 Y:80 P:64 SP:FD
beforeNMI = 0 and afterNMI = 0
C1D7  A5 40     LDA $40 = 01                    A:01 X:00 Y:80 P:64 SP:FD
beforeNMI = 0 and afterNMI = 0
C1D9  D0 FC     BNE $C1D7                       A:01 X:00 Y:80 P:64 SP:FD
beforeNMI = 0 and afterNMI = 0
C1D7  A5 40     LDA $40 = 01                    A:01 X:00 Y:80 P:64 SP:FD
beforeNMI = 0 and afterNMI = 0
C1D9  D0 FC     BNE $C1D7                       A:01 X:00 Y:80 P:64 SP:FD
beforeNMI = 0 and afterNMI = 0
C1D7  A5 40     LDA $40 = 01                    A:01 X:00 Y:80 P:64 SP:FD
beforeNMI = 0 and afterNMI = 0
C1D9  D0 FC     BNE $C1D7                       A:01 X:00 Y:80 P:64 SP:FD
beforeNMI = 0 and afterNMI = 0
C1D7  A5 40     LDA $40 = 01                    A:01 X:00 Y:80 P:64 SP:FD
beforeNMI = 0 and afterNMI = 0
C1D9  D0 FC     BNE $C1D7                       A:01 X:00 Y:80 P:64 SP:FD
beforeNMI = 0 and afterNMI = 0
C1D7  A5 40     LDA $40 = 01                    A:01 X:00 Y:80 P:64 SP:FD
beforeNMI = 0 and afterNMI = 0
C1D9  D0 FC     BNE $C1D7                       A:01 X:00 Y:80 P:64 SP:FD
beforeNMI = 0 and afterNMI = 0
C1D7  A5 40     LDA $40 = 01                    A:01 X:00 Y:80 P:64 SP:FD
beforeNMI = 0 and afterNMI = 0
C1D9  D0 FC     BNE $C1D7                       A:01 X:00 Y:80 P:64 SP:FD
beforeNMI = 0 and afterNMI = 0
C1D7  A5 40     LDA $40 = 01                    A:01 X:00 Y:80 P:64 SP:FD
beforeNMI = 0 and afterNMI = 0
C1D9  D0 FC     BNE $C1D7                       A:01 X:00 Y:80 P:64 SP:FD
beforeNMI = 0 and afterNMI = 0
C1D7  A5 40     LDA $40 = 01                    A:01 X:00 Y:80 P:64 SP:FD
beforeNMI = 0 and afterNMI = 0
C1D9  D0 FC     BNE $C1D7                       A:01 X:00 Y:80 P:64 SP:FD
beforeNMI = 0 and afterNMI = 0
C1D7  A5 40     LDA $40 = 01                    A:01 X:00 Y:80 P:64 SP:FD
beforeNMI = 0 and afterNMI = 0
C1D9  D0 FC     BNE $C1D7                       A:01 X:00 Y:80 P:64 SP:FD
beforeNMI = 0 and afterNMI = 0
C1D7  A5 40     LDA $40 = 01                    A:01 X:00 Y:80 P:64 SP:FD
beforeNMI = 0 and afterNMI = 0
C1D9  D0 FC     BNE $C1D7                       A:01 X:00 Y:80 P:64 SP:FD
beforeNMI = 0 and afterNMI = 0
C1D7  A5 40     LDA $40 = 01                    A:01 X:00 Y:80 P:64 SP:FD
beforeNMI = 0 and afterNMI = 0
C1D9  D0 FC     BNE $C1D7                       A:01 X:00 Y:80 P:64 SP:FD
beforeNMI = 0 and afterNMI = 0
C1D7  A5 40     LDA $40 = 01                    A:01 X:00 Y:80 P:64 SP:FD
beforeNMI = 0 and afterNMI = 0
C1D9  D0 FC     BNE $C1D7                       A:01 X:00 Y:80 P:64 SP:FD
beforeNMI = 0 and afterNMI = 0
C1D7  A5 40     LDA $40 = 01                    A:01 X:00 Y:80 P:64 SP:FD
beforeNMI = 0 and afterNMI = 0
C1D9  D0 FC     BNE $C1D7                       A:01 X:00 Y:80 P:64 SP:FD
beforeNMI = 0 and afterNMI = 0
C1D7  A5 40     LDA $40 = 01                    A:01 X:00 Y:80 P:64 SP:FD
beforeNMI = 0 and afterNMI = 0
C1D9  D0 FC     BNE $C1D7                       A:01 X:00 Y:80 P:64 SP:FD
beforeNMI = 0 and afterNMI = 0
C1D7  A5 40     LDA $40 = 01                    A:01 X:00 Y:80 P:64 SP:FD
beforeNMI = 0 and afterNMI = 0
C1D9  D0 FC     BNE $C1D7                       A:01 X:00 Y:80 P:64 SP:FD
beforeNMI = 0 and afterNMI = 0
C1D7  A5 40     LDA $40 = 01                    A:01 X:00 Y:80 P:64 SP:FD
beforeNMI = 0 and afterNMI = 0
C1D9  D0 FC     BNE $C1D7                       A:01 X:00 Y:80 P:64 SP:FD
beforeNMI = 0 and afterNMI = 0
C1D7  A5 40     LDA $40 = 01                    A:01 X:00 Y:80 P:64 SP:FD
beforeNMI = 0 and afterNMI = 0
C1D9  D0 FC     BNE $C1D7                       A:01 X:00 Y:80 P:64 SP:FD
beforeNMI = 0 and afterNMI = 0
C1D7  A5 40     LDA $40 = 01                    A:01 X:00 Y:80 P:64 SP:FD
beforeNMI = 0 and afterNMI = 0
C1D9  D0 FC     BNE $C1D7                       A:01 X:00 Y:80 P:64 SP:FD
beforeNMI = 0 and afterNMI = 0
C1D7  A5 40     LDA $40 = 01                    A:01 X:00 Y:80 P:64 SP:FD
beforeNMI = 0 and afterNMI = 0
C1D9  D0 FC     BNE $C1D7                       A:01 X:00 Y:80 P:64 SP:FD
beforeNMI = 0 and afterNMI = 0
C1D7  A5 40     LDA $40 = 01                    A:01 X:00 Y:80 P:64 SP:FD
beforeNMI = 0 and afterNMI = 0
C1D9  D0 FC     BNE $C1D7                       A:01 X:00 Y:80 P:64 SP:FD
beforeNMI = 0 and afterNMI = 0
C1D7  A5 40     LDA $40 = 01                    A:01 X:00 Y:80 P:64 SP:FD
beforeNMI = 0 and afterNMI = 0
C1D9  D0 FC     BNE $C1D7                       A:01 X:00 Y:80 P:64 SP:FD
beforeNMI = 0 and afterNMI = 0
C1D7  A5 40     LDA $40 = 01                    A:01 X:00 Y:80 P:64 SP:FD
beforeNMI = 0 and afterNMI = 0
C1D9  D0 FC     BNE $C1D7                       A:01 X:00 Y:80 P:64 SP:FD
beforeNMI = 0 and afterNMI = 0
C1D7  A5 40     LDA $40 = 01                    A:01 X:00 Y:80 P:64 SP:FD
beforeNMI = 0 and afterNMI = 0
C1D9  D0 FC     BNE $C1D7                       A:01 X:00 Y:80 P:64 SP:FD
beforeNMI = 0 and afterNMI = 0
C1D7  A5 40     LDA $40 = 01                    A:01 X:00 Y:80 P:64 SP:FD
beforeNMI = 0 and afterNMI = 0
C1D9  D0 FC     BNE $C1D7                       A:01 X:00 Y:80 P:64 SP:FD
beforeNMI = 0 and afterNMI = 0
C1D7  A5 40     LDA $40 = 01                    A:01 X:00 Y:80 P:64 SP:FD
beforeNMI = 0 and afterNMI = 0
C1D9  D0 FC     BNE $C1D7                       A:01 X:00 Y:80 P:64 SP:FD
beforeNMI = 0 and afterNMI = 0
C1D7  A5 40     LDA $40 = 01                    A:01 X:00 Y:80 P:64 SP:FD
beforeNMI = 0 and afterNMI = 0
C1D9  D0 FC     BNE $C1D7                       A:01 X:00 Y:80 P:64 SP:FD
beforeNMI = 0 and afterNMI = 0
C1D7  A5 40     LDA $40 = 01                    A:01 X:00 Y:80 P:64 SP:FD
beforeNMI = 0 and afterNMI = 0
C1D9  D0 FC     BNE $C1D7                       A:01 X:00 Y:80 P:64 SP:FD
beforeNMI = 0 and afterNMI = 0
C1D7  A5 40     LDA $40 = 01                    A:01 X:00 Y:80 P:64 SP:FD
beforeNMI = 0 and afterNMI = 0
C1D9  D0 FC     BNE $C1D7                       A:01 X:00 Y:80 P:64 SP:FD
beforeNMI = 0 and afterNMI = 0
C1D7  A5 40     LDA $40 = 01                    A:01 X:00 Y:80 P:64 SP:FD
beforeNMI = 0 and afterNMI = 0
C1D9  D0 FC     BNE $C1D7                       A:01 X:00 Y:80 P:64 SP:FD
beforeNMI = 0 and afterNMI = 0
C1D7  A5 40     LDA $40 = 01                    A:01 X:00 Y:80 P:64 SP:FD
beforeNMI = 0 and afterNMI = 0
C1D9  D0 FC     BNE $C1D7                       A:01 X:00 Y:80 P:64 SP:FD
beforeNMI = 0 and afterNMI = 0
C1D7  A5 40     LDA $40 = 01                    A:01 X:00 Y:80 P:64 SP:FD
beforeNMI = 0 and afterNMI = 0
C1D9  D0 FC     BNE $C1D7                       A:01 X:00 Y:80 P:64 SP:FD
beforeNMI = 0 and afterNMI = 0
C1D7  A5 40     LDA $40 = 01                    A:01 X:00 Y:80 P:64 SP:FD
beforeNMI = 0 and afterNMI = 0
C1D9  D0 FC     BNE $C1D7                       A:01 X:00 Y:80 P:64 SP:FD
beforeNMI = 0 and afterNMI = 0
C1D7  A5 40     LDA $40 = 01                    A:01 X:00 Y:80 P:64 SP:FD
beforeNMI = 0 and afterNMI = 0
C1D9  D0 FC     BNE $C1D7                       A:01 X:00 Y:80 P:64 SP:FD
beforeNMI = 0 and afterNMI = 0
C1D7  A5 40     LDA $40 = 01                    A:01 X:00 Y:80 P:64 SP:FD
beforeNMI = 0 and afterNMI = 0
C1D9  D0 FC     BNE $C1D7                       A:01 X:00 Y:80 P:64 SP:FD
beforeNMI = 0 and afterNMI = 0
C1D7  A5 40     LDA $40 = 01                    A:01 X:00 Y:80 P:64 SP:FD
beforeNMI = 0 and afterNMI = 0
C1D9  D0 FC     BNE $C1D7                       A:01 X:00 Y:80 P:64 SP:FD
beforeNMI = 0 and afterNMI = 0
C1D7  A5 40     LDA $40 = 01                    A:01 X:00 Y:80 P:64 SP:FD
beforeNMI = 0 and afterNMI = 0
C1D9  D0 FC     BNE $C1D7                       A:01 X:00 Y:80 P:64 SP:FD
beforeNMI = 0 and afterNMI = 0
C1D7  A5 40     LDA $40 = 01                    A:01 X:00 Y:80 P:64 SP:FD
beforeNMI = 0 and afterNMI = 0
C1D9  D0 FC     BNE $C1D7                       A:01 X:00 Y:80 P:64 SP:FD
beforeNMI = 0 and afterNMI = 0
C1D7  A5 40     LDA $40 = 01                    A:01 X:00 Y:80 P:64 SP:FD
beforeNMI = 0 and afterNMI = 0
C1D9  D0 FC     BNE $C1D7                       A:01 X:00 Y:80 P:64 SP:FD
beforeNMI = 0 and afterNMI = 0
C1D7  A5 40     LDA $40 = 01                    A:01 X:00 Y:80 P:64 SP:FD
beforeNMI = 0 and afterNMI = 0
C1D9  D0 FC     BNE $C1D7                       A:01 X:00 Y:80 P:64 SP:FD
beforeNMI = 0 and afterNMI = 0
C1D7  A5 40     LDA $40 = 01                    A:01 X:00 Y:80 P:64 SP:FD
beforeNMI = 0 and afterNMI = 0
C1D9  D0 FC     BNE $C1D7                       A:01 X:00 Y:80 P:64 SP:FD
beforeNMI = 0 and afterNMI = 0
C1D7  A5 40     LDA $40 = 01                    A:01 X:00 Y:80 P:64 SP:FD
beforeNMI = 0 and afterNMI = 0
C1D9  D0 FC     BNE $C1D7                       A:01 X:00 Y:80 P:64 SP:FD
beforeNMI = 0 and afterNMI = 0
C1D7  A5 40     LDA $40 = 01                    A:01 X:00 Y:80 P:64 SP:FD
beforeNMI = 0 and afterNMI = 0
C1D9  D0 FC     BNE $C1D7                       A:01 X:00 Y:80 P:64 SP:FD
beforeNMI = 0 and afterNMI = 0
C1D7  A5 40     LDA $40 = 01                    A:01 X:00 Y:80 P:64 SP:FD
beforeNMI = 0 and afterNMI = 0
C1D9  D0 FC     BNE $C1D7                       A:01 X:00 Y:80 P:64 SP:FD
beforeNMI = 0 and afterNMI = 0
C1D7  A5 40     LDA $40 = 01                    A:01 X:00 Y:80 P:64 SP:FD
beforeNMI = 0 and afterNMI = 0
C1D9  D0 FC     BNE $C1D7                       A:01 X:00 Y:80 P:64 SP:FD
beforeNMI = 0 and afterNMI = 0
C1D7  A5 40     LDA $40 = 01                    A:01 X:00 Y:80 P:64 SP:FD
beforeNMI = 0 and afterNMI = 0
C1D9  D0 FC     BNE $C1D7                       A:01 X:00 Y:80 P:64 SP:FD
beforeNMI = 0 and afterNMI = 0
C1D7  A5 40     LDA $40 = 01                    A:01 X:00 Y:80 P:64 SP:FD
beforeNMI = 0 and afterNMI = 0
C1D9  D0 FC     BNE $C1D7                       A:01 X:00 Y:80 P:64 SP:FD
beforeNMI = 0 and afterNMI = 0
C1D7  A5 40     LDA $40 = 01                    A:01 X:00 Y:80 P:64 SP:FD
beforeNMI = 0 and afterNMI = 0
C1D9  D0 FC     BNE $C1D7                       A:01 X:00 Y:80 P:64 SP:FD
beforeNMI = 0 and afterNMI = 0
C1D7  A5 40     LDA $40 = 01                    A:01 X:00 Y:80 P:64 SP:FD
beforeNMI = 0 and afterNMI = 0
C1D9  D0 FC     BNE $C1D7                       A:01 X:00 Y:80 P:64 SP:FD
beforeNMI = 0 and afterNMI = 0
C1D7  A5 40     LDA $40 = 01                    A:01 X:00 Y:80 P:64 SP:FD
beforeNMI = 0 and afterNMI = 0
C1D9  D0 FC     BNE $C1D7                       A:01 X:00 Y:80 P:64 SP:FD
beforeNMI = 0 and afterNMI = 0
C1D7  A5 40     LDA $40 = 01                    A:01 X:00 Y:80 P:64 SP:FD
beforeNMI = 0 and afterNMI = 0
C1D9  D0 FC     BNE $C1D7                       A:01 X:00 Y:80 P:64 SP:FD
beforeNMI = 0 and afterNMI = 0
C1D7  A5 40     LDA $40 = 01                    A:01 X:00 Y:80 P:64 SP:FD
beforeNMI = 0 and afterNMI = 0
C1D9  D0 FC     BNE $C1D7                       A:01 X:00 Y:80 P:64 SP:FD
beforeNMI = 0 and afterNMI = 0
C1D7  A5 40     LDA $40 = 01                    A:01 X:00 Y:80 P:64 SP:FD
beforeNMI = 0 and afterNMI = 0
C1D9  D0 FC     BNE $C1D7                       A:01 X:00 Y:80 P:64 SP:FD
beforeNMI = 0 and afterNMI = 0
C1D7  A5 40     LDA $40 = 01                    A:01 X:00 Y:80 P:64 SP:FD
beforeNMI = 0 and afterNMI = 0
C1D9  D0 FC     BNE $C1D7                       A:01 X:00 Y:80 P:64 SP:FD
beforeNMI = 0 and afterNMI = 0
C1D7  A5 40     LDA $40 = 01                    A:01 X:00 Y:80 P:64 SP:FD
beforeNMI = 0 and afterNMI = 0
C1D9  D0 FC     BNE $C1D7                       A:01 X:00 Y:80 P:64 SP:FD
beforeNMI = 0 and afterNMI = 0
C1D7  A5 40     LDA $40 = 01                    A:01 X:00 Y:80 P:64 SP:FD
beforeNMI = 0 and afterNMI = 0
C1D9  D0 FC     BNE $C1D7                       A:01 X:00 Y:80 P:64 SP:FD
beforeNMI = 0 and afterNMI = 0
C1D7  A5 40     LDA $40 = 01                    A:01 X:00 Y:80 P:64 SP:FD
beforeNMI = 0 and afterNMI = 0
C1D9  D0 FC     BNE $C1D7                       A:01 X:00 Y:80 P:64 SP:FD
beforeNMI = 0 and afterNMI = 0
C1D7  A5 40     LDA $40 = 01                    A:01 X:00 Y:80 P:64 SP:FD
beforeNMI = 0 and afterNMI = 0
C1D9  D0 FC     BNE $C1D7                       A:01 X:00 Y:80 P:64 SP:FD
beforeNMI = 0 and afterNMI = 0
C1D7  A5 40     LDA $40 = 01                    A:01 X:00 Y:80 P:64 SP:FD
beforeNMI = 0 and afterNMI = 0
C1D9  D0 FC     BNE $C1D7                       A:01 X:00 Y:80 P:64 SP:FD
beforeNMI = 0 and afterNMI = 0
C1D7  A5 40     LDA $40 = 01                    A:01 X:00 Y:80 P:64 SP:FD
beforeNMI = 0 and afterNMI = 0
C1D9  D0 FC     BNE $C1D7                       A:01 X:00 Y:80 P:64 SP:FD
beforeNMI = 0 and afterNMI = 0
C1D7  A5 40     LDA $40 = 01                    A:01 X:00 Y:80 P:64 SP:FD
beforeNMI = 0 and afterNMI = 0
C1D9  D0 FC     BNE $C1D7                       A:01 X:00 Y:80 P:64 SP:FD
beforeNMI = 0 and afterNMI = 0
C1D7  A5 40     LDA $40 = 01                    A:01 X:00 Y:80 P:64 SP:FD
beforeNMI = 0 and afterNMI = 0
C1D9  D0 FC     BNE $C1D7                       A:01 X:00 Y:80 P:64 SP:FD
beforeNMI = 0 and afterNMI = 0
C1D7  A5 40     LDA $40 = 01                    A:01 X:00 Y:80 P:64 SP:FD
beforeNMI = 0 and afterNMI = 0
C1D9  D0 FC     BNE $C1D7                       A:01 X:00 Y:80 P:64 SP:FD
beforeNMI = 0 and afterNMI = 0
C1D7  A5 40     LDA $40 = 01                    A:01 X:00 Y:80 P:64 SP:FD
beforeNMI = 0 and afterNMI = 0
C1D9  D0 FC     BNE $C1D7                       A:01 X:00 Y:80 P:64 SP:FD
beforeNMI = 0 and afterNMI = 0
C1D7  A5 40     LDA $40 = 01                    A:01 X:00 Y:80 P:64 SP:FD
beforeNMI = 0 and afterNMI = 0
C1D9  D0 FC     BNE $C1D7                       A:01 X:00 Y:80 P:64 SP:FD
beforeNMI = 0 and afterNMI = 0
C1D7  A5 40     LDA $40 = 01                    A:01 X:00 Y:80 P:64 SP:FD
beforeNMI = 0 and afterNMI = 0
C1D9  D0 FC     BNE $C1D7                       A:01 X:00 Y:80 P:64 SP:FD
beforeNMI = 0 and afterNMI = 0
C1D7  A5 40     LDA $40 = 01                    A:01 X:00 Y:80 P:64 SP:FD
beforeNMI = 0 and afterNMI = 0
C1D9  D0 FC     BNE $C1D7                       A:01 X:00 Y:80 P:64 SP:FD
beforeNMI = 0 and afterNMI = 0
C1D7  A5 40     LDA $40 = 01                    A:01 X:00 Y:80 P:64 SP:FD
beforeNMI = 0 and afterNMI = 0
C1D9  D0 FC     BNE $C1D7                       A:01 X:00 Y:80 P:64 SP:FD
beforeNMI = 0 and afterNMI = 0
C1D7  A5 40     LDA $40 = 01                    A:01 X:00 Y:80 P:64 SP:FD
beforeNMI = 0 and afterNMI = 0
C1D9  D0 FC     BNE $C1D7                       A:01 X:00 Y:80 P:64 SP:FD
beforeNMI = 0 and afterNMI = 0
C1D7  A5 40     LDA $40 = 01                    A:01 X:00 Y:80 P:64 SP:FD
beforeNMI = 0 and afterNMI = 0
C1D9  D0 FC     BNE $C1D7                       A:01 X:00 Y:80 P:64 SP:FD
beforeNMI = 0 and afterNMI = 0
C1D7  A5 40     LDA $40 = 01                    A:01 X:00 Y:80 P:64 SP:FD
beforeNMI = 0 and afterNMI = 0
C1D9  D0 FC     BNE $C1D7                       A:01 X:00 Y:80 P:64 SP:FD
beforeNMI = 0 and afterNMI = 0
C1D7  A5 40     LDA $40 = 01                    A:01 X:00 Y:80 P:64 SP:FD
beforeNMI = 0 and afterNMI = 0
C1D9  D0 FC     BNE $C1D7                       A:01 X:00 Y:80 P:64 SP:FD
beforeNMI = 0 and afterNMI = 0
C1D7  A5 40     LDA $40 = 01                    A:01 X:00 Y:80 P:64 SP:FD
beforeNMI = 0 and afterNMI = 0
C1D9  D0 FC     BNE $C1D7                       A:01 X:00 Y:80 P:64 SP:FD
beforeNMI = 0 and afterNMI = 0
C1D7  A5 40     LDA $40 = 01                    A:01 X:00 Y:80 P:64 SP:FD
beforeNMI = 0 and afterNMI = 0
C1D9  D0 FC     BNE $C1D7                       A:01 X:00 Y:80 P:64 SP:FD
beforeNMI = 0 and afterNMI = 0
C1D7  A5 40     LDA $40 = 01                    A:01 X:00 Y:80 P:64 SP:FD
beforeNMI = 0 and afterNMI = 0
C1D9  D0 FC     BNE $C1D7                       A:01 X:00 Y:80 P:64 SP:FD
beforeNMI = 0 and afterNMI = 0
C1D7  A5 40     LDA $40 = 01                    A:01 X:00 Y:80 P:64 SP:FD
beforeNMI = 0 and afterNMI = 0
C1D9  D0 FC     BNE $C1D7                       A:01 X:00 Y:80 P:64 SP:FD
beforeNMI = 0 and afterNMI = 0
C1D7  A5 40     LDA $40 = 01                    A:01 X:00 Y:80 P:64 SP:FD
beforeNMI = 0 and afterNMI = 0
C1D9  D0 FC     BNE $C1D7                       A:01 X:00 Y:80 P:64 SP:FD
beforeNMI = 0 and afterNMI = 0
C1D7  A5 40     LDA $40 = 01                    A:01 X:00 Y:80 P:64 SP:FD
beforeNMI = 0 and afterNMI = 0
C1D9  D0 FC     BNE $C1D7                       A:01 X:00 Y:80 P:64 SP:FD
beforeNMI = 0 and afterNMI = 0
C1D7  A5 40     LDA $40 = 01                    A:01 X:00 Y:80 P:64 SP:FD
beforeNMI = 0 and afterNMI = 0
C1D9  D0 FC     BNE $C1D7                       A:01 X:00 Y:80 P:64 SP:FD
beforeNMI = 0 and afterNMI = 0
C1D7  A5 40     LDA $40 = 01                    A:01 X:00 Y:80 P:64 SP:FD
beforeNMI = 0 and afterNMI = 0
C1D9  D0 FC     BNE $C1D7                       A:01 X:00 Y:80 P:64 SP:FD
beforeNMI = 0 and afterNMI = 0
C1D7  A5 40     LDA $40 = 01                    A:01 X:00 Y:80 P:64 SP:FD
beforeNMI = 0 and afterNMI = 0
C1D9  D0 FC     BNE $C1D7                       A:01 X:00 Y:80 P:64 SP:FD
beforeNMI = 0 and afterNMI = 0
C1D7  A5 40     LDA $40 = 01                    A:01 X:00 Y:80 P:64 SP:FD
beforeNMI = 0 and afterNMI = 0
C1D9  D0 FC     BNE $C1D7                       A:01 X:00 Y:80 P:64 SP:FD
beforeNMI = 0 and afterNMI = 0
C1D7  A5 40     LDA $40 = 01                    A:01 X:00 Y:80 P:64 SP:FD
beforeNMI = 0 and afterNMI = 0
C1D9  D0 FC     BNE $C1D7                       A:01 X:00 Y:80 P:64 SP:FD
beforeNMI = 0 and afterNMI = 0
C1D7  A5 40     LDA $40 = 01                    A:01 X:00 Y:80 P:64 SP:FD
beforeNMI = 0 and afterNMI = 0
C1D9  D0 FC     BNE $C1D7                       A:01 X:00 Y:80 P:64 SP:FD
beforeNMI = 0 and afterNMI = 0
C1D7  A5 40     LDA $40 = 01                    A:01 X:00 Y:80 P:64 SP:FD
beforeNMI = 0 and afterNMI = 0
C1D9  D0 FC     BNE $C1D7                       A:01 X:00 Y:80 P:64 SP:FD
beforeNMI = 0 and afterNMI = 0
C1D7  A5 40     LDA $40 = 01                    A:01 X:00 Y:80 P:64 SP:FD
beforeNMI = 0 and afterNMI = 0
C1D9  D0 FC     BNE $C1D7                       A:01 X:00 Y:80 P:64 SP:FD
beforeNMI = 0 and afterNMI = 0
C1D7  A5 40     LDA $40 = 01                    A:01 X:00 Y:80 P:64 SP:FD
beforeNMI = 0 and afterNMI = 0
C1D9  D0 FC     BNE $C1D7                       A:01 X:00 Y:80 P:64 SP:FD
beforeNMI = 0 and afterNMI = 0
C1D7  A5 40     LDA $40 = 01                    A:01 X:00 Y:80 P:64 SP:FD
beforeNMI = 0 and afterNMI = 0
C1D9  D0 FC     BNE $C1D7                       A:01 X:00 Y:80 P:64 SP:FD
beforeNMI = 0 and afterNMI = 0
C1D7  A5 40     LDA $40 = 01                    A:01 X:00 Y:80 P:64 SP:FD
beforeNMI = 0 and afterNMI = 0
C1D9  D0 FC     BNE $C1D7                       A:01 X:00 Y:80 P:64 SP:FD
beforeNMI = 0 and afterNMI = 0
C1D7  A5 40     LDA $40 = 01                    A:01 X:00 Y:80 P:64 SP:FD
beforeNMI = 0 and afterNMI = 0
C1D9  D0 FC     BNE $C1D7                       A:01 X:00 Y:80 P:64 SP:FD
beforeNMI = 0 and afterNMI = 0
C1D7  A5 40     LDA $40 = 01                    A:01 X:00 Y:80 P:64 SP:FD
beforeNMI = 0 and afterNMI = 0
C1D9  D0 FC     BNE $C1D7                       A:01 X:00 Y:80 P:64 SP:FD
beforeNMI = 0 and afterNMI = 0
C1D7  A5 40     LDA $40 = 01                    A:01 X:00 Y:80 P:64 SP:FD
beforeNMI = 0 and afterNMI = 0
C1D9  D0 FC     BNE $C1D7                       A:01 X:00 Y:80 P:64 SP:FD
beforeNMI = 0 and afterNMI = 0
C1D7  A5 40     LDA $40 = 01                    A:01 X:00 Y:80 P:64 SP:FD
beforeNMI = 0 and afterNMI = 0
C1D9  D0 FC     BNE $C1D7                       A:01 X:00 Y:80 P:64 SP:FD
beforeNMI = 0 and afterNMI = 0
C1D7  A5 40     LDA $40 = 01                    A:01 X:00 Y:80 P:64 SP:FD
beforeNMI = 0 and afterNMI = 0
C1D9  D0 FC     BNE $C1D7                       A:01 X:00 Y:80 P:64 SP:FD
beforeNMI = 0 and afterNMI = 0
C1D7  A5 40     LDA $40 = 01                    A:01 X:00 Y:80 P:64 SP:FD
beforeNMI = 0 and afterNMI = 0
C1D9  D0 FC     BNE $C1D7                       A:01 X:00 Y:80 P:64 SP:FD
beforeNMI = 0 and afterNMI = 0
C1D7  A5 40     LDA $40 = 01                    A:01 X:00 Y:80 P:64 SP:FD
beforeNMI = 0 and afterNMI = 0
C1D9  D0 FC     BNE $C1D7                       A:01 X:00 Y:80 P:64 SP:FD
beforeNMI = 0 and afterNMI = 0
C1D7  A5 40     LDA $40 = 01                    A:01 X:00 Y:80 P:64 SP:FD
beforeNMI = 0 and afterNMI = 0
C1D9  D0 FC     BNE $C1D7                       A:01 X:00 Y:80 P:64 SP:FD
beforeNMI = 0 and afterNMI = 0
C1D7  A5 40     LDA $40 = 01                    A:01 X:00 Y:80 P:64 SP:FD
beforeNMI = 0 and afterNMI = 0
C1D9  D0 FC     BNE $C1D7                       A:01 X:00 Y:80 P:64 SP:FD
beforeNMI = 0 and afterNMI = 0
C1D7  A5 40     LDA $40 = 01                    A:01 X:00 Y:80 P:64 SP:FD
beforeNMI = 0 and afterNMI = 0
C1D9  D0 FC     BNE $C1D7                       A:01 X:00 Y:80 P:64 SP:FD
beforeNMI = 0 and afterNMI = 0
C1D7  A5 40     LDA $40 = 01                    A:01 X:00 Y:80 P:64 SP:FD
beforeNMI = 0 and afterNMI = 0
C1D9  D0 FC     BNE $C1D7                       A:01 X:00 Y:80 P:64 SP:FD
beforeNMI = 0 and afterNMI = 0
C1D7  A5 40     LDA $40 = 01                    A:01 X:00 Y:80 P:64 SP:FD
beforeNMI = 0 and afterNMI = 0
C1D9  D0 FC     BNE $C1D7                       A:01 X:00 Y:80 P:64 SP:FD
beforeNMI = 0 and afterNMI = 0
C1D7  A5 40     LDA $40 = 01                    A:01 X:00 Y:80 P:64 SP:FD
beforeNMI = 0 and afterNMI = 0
C1D9  D0 FC     BNE $C1D7                       A:01 X:00 Y:80 P:64 SP:FD
beforeNMI = 0 and afterNMI = 0
C1D7  A5 40     LDA $40 = 01                    A:01 X:00 Y:80 P:64 SP:FD
beforeNMI = 0 and afterNMI = 0
C1D9  D0 FC     BNE $C1D7                       A:01 X:00 Y:80 P:64 SP:FD
beforeNMI = 0 and afterNMI = 0
C1D7  A5 40     LDA $40 = 01                    A:01 X:00 Y:80 P:64 SP:FD
beforeNMI = 0 and afterNMI = 0
C1D9  D0 FC     BNE $C1D7                       A:01 X:00 Y:80 P:64 SP:FD
beforeNMI = 0 and afterNMI = 0
C1D7  A5 40     LDA $40 = 01                    A:01 X:00 Y:80 P:64 SP:FD
beforeNMI = 0 and afterNMI = 0
C1D9  D0 FC     BNE $C1D7                       A:01 X:00 Y:80 P:64 SP:FD
beforeNMI = 0 and afterNMI = 0
C1D7  A5 40     LDA $40 = 01                    A:01 X:00 Y:80 P:64 SP:FD
beforeNMI = 0 and afterNMI = 0
C1D9  D0 FC     BNE $C1D7                       A:01 X:00 Y:80 P:64 SP:FD
beforeNMI = 0 and afterNMI = 0
C1D7  A5 40     LDA $40 = 01                    A:01 X:00 Y:80 P:64 SP:FD
beforeNMI = 0 and afterNMI = 0
C1D9  D0 FC     BNE $C1D7                       A:01 X:00 Y:80 P:64 SP:FD
beforeNMI = 0 and afterNMI = 0
C1D7  A5 40     LDA $40 = 01                    A:01 X:00 Y:80 P:64 SP:FD
beforeNMI = 0 and afterNMI = 0
C1D9  D0 FC     BNE $C1D7                       A:01 X:00 Y:80 P:64 SP:FD
beforeNMI = 0 and afterNMI = 0
C1D7  A5 40     LDA $40 = 01                    A:01 X:00 Y:80 P:64 SP:FD
beforeNMI = 0 and afterNMI = 0
C1D9  D0 FC     BNE $C1D7                       A:01 X:00 Y:80 P:64 SP:FD
beforeNMI = 0 and afterNMI = 0
C1D7  A5 40     LDA $40 = 01                    A:01 X:00 Y:80 P:64 SP:FD
beforeNMI = 0 and afterNMI = 0
C1D9  D0 FC     BNE $C1D7                       A:01 X:00 Y:80 P:64 SP:FD
beforeNMI = 0 and afterNMI = 0
C1D7  A5 40     LDA $40 = 01                    A:01 X:00 Y:80 P:64 SP:FD
beforeNMI = 0 and afterNMI = 0
C1D9  D0 FC     BNE $C1D7                       A:01 X:00 Y:80 P:64 SP:FD
beforeNMI = 0 and afterNMI = 0
C1D7  A5 40     LDA $40 = 01                    A:01 X:00 Y:80 P:64 SP:FD
beforeNMI = 0 and afterNMI = 0
C1D9  D0 FC     BNE $C1D7                       A:01 X:00 Y:80 P:64 SP:FD
beforeNMI = 0 and afterNMI = 0
C1D7  A5 40     LDA $40 = 01                    A:01 X:00 Y:80 P:64 SP:FD
beforeNMI = 0 and afterNMI = 0
C1D9  D0 FC     BNE $C1D7                       A:01 X:00 Y:80 P:64 SP:FD
beforeNMI = 0 and afterNMI = 0
C1D7  A5 40     LDA $40 = 01                    A:01 X:00 Y:80 P:64 SP:FD
beforeNMI = 0 and afterNMI = 0
C1D9  D0 FC     BNE $C1D7                       A:01 X:00 Y:80 P:64 SP:FD
beforeNMI = 0 and afterNMI = 0
C1D7  A5 40     LDA $40 = 01                    A:01 X:00 Y:80 P:64 SP:FD
beforeNMI = 0 and afterNMI = 0
C1D9  D0 FC     BNE $C1D7                       A:01 X:00 Y:80 P:64 SP:FD
beforeNMI = 0 and afterNMI = 0
C1D7  A5 40     LDA $40 = 01                    A:01 X:00 Y:80 P:64 SP:FD
beforeNMI = 0 and afterNMI = 0
C1D9  D0 FC     BNE $C1D7                       A:01 X:00 Y:80 P:64 SP:FD
beforeNMI = 0 and afterNMI = 0
C1D7  A5 40     LDA $40 = 01                    A:01 X:00 Y:80 P:64 SP:FD
beforeNMI = 0 and afterNMI = 0
C1D9  D0 FC     BNE $C1D7                       A:01 X:00 Y:80 P:64 SP:FD
beforeNMI = 0 and afterNMI = 0
C1D7  A5 40     LDA $40 = 01                    A:01 X:00 Y:80 P:64 SP:FD
beforeNMI = 0 and afterNMI = 0
C1D9  D0 FC     BNE $C1D7                       A:01 X:00 Y:80 P:64 SP:FD
beforeNMI = 0 and afterNMI = 0
C1D7  A5 40     LDA $40 = 01                    A:01 X:00 Y:80 P:64 SP:FD
beforeNMI = 0 and afterNMI = 0
C1D9  D0 FC     BNE $C1D7                       A:01 X:00 Y:80 P:64 SP:FD
beforeNMI = 0 and afterNMI = 0
C1D7  A5 40     LDA $40 = 01                    A:01 X:00 Y:80 P:64 SP:FD
beforeNMI = 0 and afterNMI = 0
C1D9  D0 FC     BNE $C1D7                       A:01 X:00 Y:80 P:64 SP:FD
beforeNMI = 0 and afterNMI = 0
C1D7  A5 40     LDA $40 = 01                    A:01 X:00 Y:80 P:64 SP:FD
beforeNMI = 0 and afterNMI = 0
C1D9  D0 FC     BNE $C1D7                       A:01 X:00 Y:80 P:64 SP:FD
beforeNMI = 0 and afterNMI = 0
C1D7  A5 40     LDA $40 = 01                    A:01 X:00 Y:80 P:64 SP:FD
beforeNMI = 0 and afterNMI = 0
C1D9  D0 FC     BNE $C1D7                       A:01 X:00 Y:80 P:64 SP:FD
beforeNMI = 0 and afterNMI = 0
C1D7  A5 40     LDA $40 = 01                    A:01 X:00 Y:80 P:64 SP:FD
beforeNMI = 0 and afterNMI = 0
C1D9  D0 FC     BNE $C1D7                       A:01 X:00 Y:80 P:64 SP:FD
beforeNMI = 0 and afterNMI = 0
C1D7  A5 40     LDA $40 = 01                    A:01 X:00 Y:80 P:64 SP:FD
beforeNMI = 0 and afterNMI = 0
C1D9  D0 FC     BNE $C1D7                       A:01 X:00 Y:80 P:64 SP:FD
beforeNMI = 0 and afterNMI = 0
C1D7  A5 40     LDA $40 = 01                    A:01 X:00 Y:80 P:64 SP:FD
beforeNMI = 0 and afterNMI = 0
C1D9  D0 FC     BNE $C1D7                       A:01 X:00 Y:80 P:64 SP:FD
beforeNMI = 0 and afterNMI = 0
C1D7  A5 40     LDA $40 = 01                    A:01 X:00 Y:80 P:64 SP:FD
beforeNMI = 0 and afterNMI = 0
C1D9  D0 FC     BNE $C1D7                       A:01 X:00 Y:80 P:64 SP:FD
beforeNMI = 0 and afterNMI = 0
C1D7  A5 40     LDA $40 = 01                    A:01 X:00 Y:80 P:64 SP:FD
beforeNMI = 0 and afterNMI = 0
C1D9  D0 FC     BNE $C1D7                       A:01 X:00 Y:80 P:64 SP:FD
beforeNMI = 0 and afterNMI = 0
C1D7  A5 40     LDA $40 = 01                    A:01 X:00 Y:80 P:64 SP:FD
beforeNMI = 0 and afterNMI = 0
C1D9  D0 FC     BNE $C1D7                       A:01 X:00 Y:80 P:64 SP:FD
beforeNMI = 0 and afterNMI = 0
C1D7  A5 40     LDA $40 = 01                    A:01 X:00 Y:80 P:64 SP:FD
beforeNMI = 0 and afterNMI = 0
C1D9  D0 FC     BNE $C1D7                       A:01 X:00 Y:80 P:64 SP:FD
beforeNMI = 0 and afterNMI = 0
C1D7  A5 40     LDA $40 = 01                    A:01 X:00 Y:80 P:64 SP:FD
beforeNMI = 0 and afterNMI = 0
C1D9  D0 FC     BNE $C1D7                       A:01 X:00 Y:80 P:64 SP:FD
beforeNMI = 0 and afterNMI = 0
C1D7  A5 40     LDA $40 = 01                    A:01 X:00 Y:80 P:64 SP:FD
beforeNMI = 0 and afterNMI = 0
C1D9  D0 FC     BNE $C1D7                       A:01 X:00 Y:80 P:64 SP:FD
beforeNMI = 0 and afterNMI = 0
C1D7  A5 40     LDA $40 = 01                    A:01 X:00 Y:80 P:64 SP:FD
beforeNMI = 0 and afterNMI = 0
C1D9  D0 FC     BNE $C1D7                       A:01 X:00 Y:80 P:64 SP:FD
beforeNMI = 0 and afterNMI = 0
C1D7  A5 40     LDA $40 = 01                    A:01 X:00 Y:80 P:64 SP:FD
beforeNMI = 0 and afterNMI = 0
C1D9  D0 FC     BNE $C1D7                       A:01 X:00 Y:80 P:64 SP:FD
beforeNMI = 0 and afterNMI = 0
C1D7  A5 40     LDA $40 = 01                    A:01 X:00 Y:80 P:64 SP:FD
beforeNMI = 0 and afterNMI = 0
C1D9  D0 FC     BNE $C1D7                       A:01 X:00 Y:80 P:64 SP:FD
beforeNMI = 0 and afterNMI = 0
C1D7  A5 40     LDA $40 = 01                    A:01 X:00 Y:80 P:64 SP:FD
beforeNMI = 0 and afterNMI = 0
C1D9  D0 FC     BNE $C1D7                       A:01 X:00 Y:80 P:64 SP:FD
beforeNMI = 0 and afterNMI = 0
C1D7  A5 40     LDA $40 = 01                    A:01 X:00 Y:80 P:64 SP:FD
beforeNMI = 0 and afterNMI = 0
C1D9  D0 FC     BNE $C1D7                       A:01 X:00 Y:80 P:64 SP:FD
beforeNMI = 0 and afterNMI = 0
C1D7  A5 40     LDA $40 = 01                    A:01 X:00 Y:80 P:64 SP:FD
beforeNMI = 0 and afterNMI = 0
C1D9  D0 FC     BNE $C1D7                       A:01 X:00 Y:80 P:64 SP:FD
beforeNMI = 0 and afterNMI = 0
C1D7  A5 40     LDA $40 = 01                    A:01 X:00 Y:80 P:64 SP:FD
beforeNMI = 0 and afterNMI = 0
C1D9  D0 FC     BNE $C1D7                       A:01 X:00 Y:80 P:64 SP:FD
beforeNMI = 0 and afterNMI = 0
C1D7  A5 40     LDA $40 = 01                    A:01 X:00 Y:80 P:64 SP:FD
beforeNMI = 0 and afterNMI = 0
C1D9  D0 FC     BNE $C1D7                       A:01 X:00 Y:80 P:64 SP:FD
beforeNMI = 0 and afterNMI = 0
C1D7  A5 40     LDA $40 = 01                    A:01 X:00 Y:80 P:64 SP:FD
beforeNMI = 0 and afterNMI = 0
C1D9  D0 FC     BNE $C1D7                       A:01 X:00 Y:80 P:64 SP:FD
beforeNMI = 0 and afterNMI = 0
C1D7  A5 40     LDA $40 = 01                    A:01 X:00 Y:80 P:64 SP:FD
beforeNMI = 0 and afterNMI = 0
C1D9  D0 FC     BNE $C1D7                       A:01 X:00 Y:80 P:64 SP:FD
beforeNMI = 0 and afterNMI = 0
C1D7  A5 40     LDA $40 = 01                    A:01 X:00 Y:80 P:64 SP:FD
beforeNMI = 0 and afterNMI = 0
C1D9  D0 FC     BNE $C1D7                       A:01 X:00 Y:80 P:64 SP:FD
beforeNMI = 0 and afterNMI = 0
C1D7  A5 40     LDA $40 = 01                    A:01 X:00 Y:80 P:64 SP:FD
beforeNMI = 0 and afterNMI = 0
C1D9  D0 FC     BNE $C1D7                       A:01 X:00 Y:80 P:64 SP:FD
beforeNMI = 0 and afterNMI = 0
C1D7  A5 40     LDA $40 = 01                    A:01 X:00 Y:80 P:64 SP:FD
beforeNMI = 0 and afterNMI = 0
C1D9  D0 FC     BNE $C1D7                       A:01 X:00 Y:80 P:64 SP:FD
beforeNMI = 0 and afterNMI = 0
C1D7  A5 40     LDA $40 = 01                    A:01 X:00 Y:80 P:64 SP:FD
beforeNMI = 0 and afterNMI = 0
C1D9  D0 FC     BNE $C1D7                       A:01 X:00 Y:80 P:64 SP:FD
beforeNMI = 0 and afterNMI = 0
C1D7  A5 40     LDA $40 = 01                    A:01 X:00 Y:80 P:64 SP:FD
beforeNMI = 0 and afterNMI = 0
C1D9  D0 FC     BNE $C1D7                       A:01 X:00 Y:80 P:64 SP:FD
beforeNMI = 0 and afterNMI = 0
C1D7  A5 40     LDA $40 = 01                    A:01 X:00 Y:80 P:64 SP:FD
beforeNMI = 0 and afterNMI = 0
C1D9  D0 FC     BNE $C1D7                       A:01 X:00 Y:80 P:64 SP:FD
beforeNMI = 0 and afterNMI = 0
C1D7  A5 40     LDA $40 = 01                    A:01 X:00 Y:80 P:64 SP:FD
beforeNMI = 0 and afterNMI = 0
C1D9  D0 FC     BNE $C1D7                       A:01 X:00 Y:80 P:64 SP:FD
beforeNMI = 0 and afterNMI = 0
C1D7  A5 40     LDA $40 = 01                    A:01 X:00 Y:80 P:64 SP:FD
beforeNMI = 0 and afterNMI = 0
C1D9  D0 FC     BNE $C1D7                       A:01 X:00 Y:80 P:64 SP:FD
beforeNMI = 0 and afterNMI = 0
C1D7  A5 40     LDA $40 = 01                    A:01 X:00 Y:80 P:64 SP:FD
beforeNMI = 0 and afterNMI = 0
C1D9  D0 FC     BNE $C1D7                       A:01 X:00 Y:80 P:64 SP:FD
beforeNMI = 0 and afterNMI = 0
C1D7  A5 40     LDA $40 = 01                    A:01 X:00 Y:80 P:64 SP:FD
beforeNMI = 0 and afterNMI = 0
C1D9  D0 FC     BNE $C1D7                       A:01 X:00 Y:80 P:64 SP:FD
beforeNMI = 0 and afterNMI = 0
C1D7  A5 40     LDA $40 = 01                    A:01 X:00 Y:80 P:64 SP:FD
beforeNMI = 0 and afterNMI = 0
C1D9  D0 FC     BNE $C1D7                       A:01 X:00 Y:80 P:64 SP:FD
beforeNMI = 0 and afterNMI = 0
C1D7  A5 40     LDA $40 = 01                    A:01 X:00 Y:80 P:64 SP:FD
beforeNMI = 0 and afterNMI = 0
C1D9  D0 FC     BNE $C1D7                       A:01 X:00 Y:80 P:64 SP:FD
beforeNMI = 0 and afterNMI = 0
C1D7  A5 40     LDA $40 = 01                    A:01 X:00 Y:80 P:64 SP:FD
beforeNMI = 0 and afterNMI = 0
C1D9  D0 FC     BNE $C1D7                       A:01 X:00 Y:80 P:64 SP:FD
beforeNMI = 0 and afterNMI = 0
C1D7  A5 40     LDA $40 = 01                    A:01 X:00 Y:80 P:64 SP:FD
beforeNMI = 0 and afterNMI = 0
C1D9  D0 FC     BNE $C1D7                       A:01 X:00 Y:80 P:64 SP:FD
beforeNMI = 0 and afterNMI = 0
C1D7  A5 40     LDA $40 = 01                    A:01 X:00 Y:80 P:64 SP:FD
beforeNMI = 0 and afterNMI = 0
C1D9  D0 FC     BNE $C1D7                       A:01 X:00 Y:80 P:64 SP:FD
beforeNMI = 0 and afterNMI = 0
C1D7  A5 40     LDA $40 = 01                    A:01 X:00 Y:80 P:64 SP:FD
beforeNMI = 0 and afterNMI = 0
C1D9  D0 FC     BNE $C1D7                       A:01 X:00 Y:80 P:64 SP:FD
beforeNMI = 0 and afterNMI = 0
C1D7  A5 40     LDA $40 = 01                    A:01 X:00 Y:80 P:64 SP:FD
beforeNMI = 0 and afterNMI = 0
C1D9  D0 FC     BNE $C1D7                       A:01 X:00 Y:80 P:64 SP:FD
beforeNMI = 0 and afterNMI = 0
C1D7  A5 40     LDA $40 = 01                    A:01 X:00 Y:80 P:64 SP:FD
beforeNMI = 0 and afterNMI = 0
C1D9  D0 FC     BNE $C1D7                       A:01 X:00 Y:80 P:64 SP:FD
beforeNMI = 0 and afterNMI = 0
C1D7  A5 40     LDA $40 = 01                    A:01 X:00 Y:80 P:64 SP:FD
beforeNMI = 0 and afterNMI = 0
C1D9  D0 FC     BNE $C1D7                       A:01 X:00 Y:80 P:64 SP:FD
beforeNMI = 0 and afterNMI = 0
C1D7  A5 40     LDA $40 = 01                    A:01 X:00 Y:80 P:64 SP:FD
beforeNMI = 0 and afterNMI = 0
C1D9  D0 FC     BNE $C1D7                       A:01 X:00 Y:80 P:64 SP:FD
beforeNMI = 0 and afterNMI = 0
C1D7  A5 40     LDA $40 = 01                    A:01 X:00 Y:80 P:64 SP:FD
beforeNMI = 0 and afterNMI = 0
C1D9  D0 FC     BNE $C1D7                       A:01 X:00 Y:80 P:64 SP:FD
beforeNMI = 0 and afterNMI = 0
C1D7  A5 40     LDA $40 = 01                    A:01 X:00 Y:80 P:64 SP:FD
beforeNMI = 0 and afterNMI = 0
C1D9  D0 FC     BNE $C1D7                       A:01 X:00 Y:80 P:64 SP:FD
beforeNMI = 0 and afterNMI = 0
C1D7  A5 40     LDA $40 = 01                    A:01 X:00 Y:80 P:64 SP:FD
beforeNMI = 0 and afterNMI = 0
C1D9  D0 FC     BNE $C1D7                       A:01 X:00 Y:80 P:64 SP:FD
beforeNMI = 0 and afterNMI = 0
C1D7  A5 40     LDA $40 = 01                    A:01 X:00 Y:80 P:64 SP:FD
beforeNMI = 0 and afterNMI = 0
C1D9  D0 FC     BNE $C1D7                       A:01 X:00 Y:80 P:64 SP:FD
beforeNMI = 0 and afterNMI = 0
C1D7  A5 40     LDA $40 = 01                    A:01 X:00 Y:80 P:64 SP:FD
beforeNMI = 0 and afterNMI = 0
C1D9  D0 FC     BNE $C1D7                       A:01 X:00 Y:80 P:64 SP:FD
beforeNMI = 0 and afterNMI = 0
C1D7  A5 40     LDA $40 = 01                    A:01 X:00 Y:80 P:64 SP:FD
beforeNMI = 0 and afterNMI = 0
C1D9  D0 FC     BNE $C1D7                       A:01 X:00 Y:80 P:64 SP:FD
beforeNMI = 0 and afterNMI = 0
C1D7  A5 40     LDA $40 = 01                    A:01 X:00 Y:80 P:64 SP:FD
beforeNMI = 0 and afterNMI = 0
C1D9  D0 FC     BNE $C1D7                       A:01 X:00 Y:80 P:64 SP:FD
beforeNMI = 0 and afterNMI = 0
C1D7  A5 40     LDA $40 = 01                    A:01 X:00 Y:80 P:64 SP:FD
beforeNMI = 0 and afterNMI = 0
C1D9  D0 FC     BNE $C1D7                       A:01 X:00 Y:80 P:64 SP:FD
beforeNMI = 0 and afterNMI = 0
C1D7  A5 40     LDA $40 = 01                    A:01 X:00 Y:80 P:64 SP:FD
beforeNMI = 0 and afterNMI = 0
C1D9  D0 FC     BNE $C1D7                       A:01 X:00 Y:80 P:64 SP:FD
beforeNMI = 0 and afterNMI = 0
C1D7  A5 40     LDA $40 = 01                    A:01 X:00 Y:80 P:64 SP:FD
beforeNMI = 0 and afterNMI = 0
C1D9  D0 FC     BNE $C1D7                       A:01 X:00 Y:80 P:64 SP:FD
beforeNMI = 0 and afterNMI = 0
C1D7  A5 40     LDA $40 = 01                    A:01 X:00 Y:80 P:64 SP:FD
beforeNMI = 0 and afterNMI = 0
C1D9  D0 FC     BNE $C1D7                       A:01 X:00 Y:80 P:64 SP:FD
beforeNMI = 0 and afterNMI = 0
C1D7  A5 40     LDA $40 = 01                    A:01 X:00 Y:80 P:64 SP:FD
beforeNMI = 0 and afterNMI = 0
C1D9  D0 FC     BNE $C1D7                       A:01 X:00 Y:80 P:64 SP:FD
beforeNMI = 0 and afterNMI = 0
C1D7  A5 40     LDA $40 = 01                    A:01 X:00 Y:80 P:64 SP:FD
beforeNMI = 0 and afterNMI = 0
C1D9  D0 FC     BNE $C1D7                       A:01 X:00 Y:80 P:64 SP:FD
beforeNMI = 0 and afterNMI = 0
C1D7  A5 40     LDA $40 = 01                    A:01 X:00 Y:80 P:64 SP:FD
beforeNMI = 0 and afterNMI = 0
C1D9  D0 FC     BNE $C1D7                       A:01 X:00 Y:80 P:64 SP:FD
beforeNMI = 0 and afterNMI = 0
C1D7  A5 40     LDA $40 = 01                    A:01 X:00 Y:80 P:64 SP:FD
beforeNMI = 0 and afterNMI = 0
C1D9  D0 FC     BNE $C1D7                       A:01 X:00 Y:80 P:64 SP:FD
beforeNMI = 0 and afterNMI = 0
C1D7  A5 40     LDA $40 = 01                    A:01 X:00 Y:80 P:64 SP:FD
beforeNMI = 0 and afterNMI = 0
C1D9  D0 FC     BNE $C1D7                       A:01 X:00 Y:80 P:64 SP:FD
beforeNMI = 0 and afterNMI = 0
C1D7  A5 40     LDA $40 = 01                    A:01 X:00 Y:80 P:64 SP:FD
beforeNMI = 0 and afterNMI = 0
C1D9  D0 FC     BNE $C1D7                       A:01 X:00 Y:80 P:64 SP:FD
beforeNMI = 0 and afterNMI = 0
C1D7  A5 40     LDA $40 = 01                    A:01 X:00 Y:80 P:64 SP:FD
beforeNMI = 0 and afterNMI = 0
C1D9  D0 FC     BNE $C1D7                       A:01 X:00 Y:80 P:64 SP:FD
beforeNMI = 0 and afterNMI = 0
C1D7  A5 40     LDA $40 = 01                    A:01 X:00 Y:80 P:64 SP:FD
beforeNMI = 0 and afterNMI = 0
C1D9  D0 FC     BNE $C1D7                       A:01 X:00 Y:80 P:64 SP:FD
beforeNMI = 0 and afterNMI = 0
C1D7  A5 40     LDA $40 = 01                    A:01 X:00 Y:80 P:64 SP:FD
beforeNMI = 0 and afterNMI = 0
C1D9  D0 FC     BNE $C1D7                       A:01 X:00 Y:80 P:64 SP:FD
beforeNMI = 0 and afterNMI = 0
C1D7  A5 40     LDA $40 = 01                    A:01 X:00 Y:80 P:64 SP:FD
beforeNMI = 0 and afterNMI = 0
C1D9  D0 FC     BNE $C1D7                       A:01 X:00 Y:80 P:64 SP:FD
beforeNMI = 0 and afterNMI = 0
C1D7  A5 40     LDA $40 = 01                    A:01 X:00 Y:80 P:64 SP:FD
beforeNMI = 0 and afterNMI = 0
C1D9  D0 FC     BNE $C1D7                       A:01 X:00 Y:80 P:64 SP:FD
beforeNMI = 0 and afterNMI = 0
C1D7  A5 40     LDA $40 = 01                    A:01 X:00 Y:80 P:64 SP:FD
beforeNMI = 0 and afterNMI = 0
C1D9  D0 FC     BNE $C1D7                       A:01 X:00 Y:80 P:64 SP:FD
beforeNMI = 0 and afterNMI = 0
C1D7  A5 40     LDA $40 = 01                    A:01 X:00 Y:80 P:64 SP:FD
beforeNMI = 0 and afterNMI = 0
C1D9  D0 FC     BNE $C1D7                       A:01 X:00 Y:80 P:64 SP:FD
beforeNMI = 0 and afterNMI = 0
C1D7  A5 40     LDA $40 = 01                    A:01 X:00 Y:80 P:64 SP:FD
beforeNMI = 0 and afterNMI = 0
C1D9  D0 FC     BNE $C1D7                       A:01 X:00 Y:80 P:64 SP:FD
beforeNMI = 0 and afterNMI = 0
C1D7  A5 40     LDA $40 = 01                    A:01 X:00 Y:80 P:64 SP:FD
beforeNMI = 0 and afterNMI = 0
C1D9  D0 FC     BNE $C1D7                       A:01 X:00 Y:80 P:64 SP:FD
beforeNMI = 0 and afterNMI = 0
C1D7  A5 40     LDA $40 = 01                    A:01 X:00 Y:80 P:64 SP:FD
beforeNMI = 0 and afterNMI = 0
C1D9  D0 FC     BNE $C1D7                       A:01 X:00 Y:80 P:64 SP:FD
beforeNMI = 0 and afterNMI = 0
C1D7  A5 40     LDA $40 = 01                    A:01 X:00 Y:80 P:64 SP:FD
beforeNMI = 0 and afterNMI = 0
C1D9  D0 FC     BNE $C1D7                       A:01 X:00 Y:80 P:64 SP:FD
beforeNMI = 0 and afterNMI = 0
C1D7  A5 40     LDA $40 = 01                    A:01 X:00 Y:80 P:64 SP:FD
beforeNMI = 0 and afterNMI = 0
C1D9  D0 FC     BNE $C1D7                       A:01 X:00 Y:80 P:64 SP:FD
beforeNMI = 0 and afterNMI = 0
C1D7  A5 40     LDA $40 = 01                    A:01 X:00 Y:80 P:64 SP:FD
beforeNMI = 0 and afterNMI = 0
C1D9  D0 FC     BNE $C1D7                       A:01 X:00 Y:80 P:64 SP:FD
beforeNMI = 0 and afterNMI = 0
C1D7  A5 40     LDA $40 = 01                    A:01 X:00 Y:80 P:64 SP:FD
beforeNMI = 0 and afterNMI = 0
C1D9  D0 FC     BNE $C1D7                       A:01 X:00 Y:80 P:64 SP:FD
beforeNMI = 0 and afterNMI = 0
C1D7  A5 40     LDA $40 = 01                    A:01 X:00 Y:80 P:64 SP:FD
beforeNMI = 0 and afterNMI = 0
C1D9  D0 FC     BNE $C1D7                       A:01 X:00 Y:80 P:64 SP:FD
beforeNMI = 0 and afterNMI = 0
C1D7  A5 40     LDA $40 = 01                    A:01 X:00 Y:80 P:64 SP:FD
beforeNMI = 0 and afterNMI = 0
C1D9  D0 FC     BNE $C1D7                       A:01 X:00 Y:80 P:64 SP:FD
beforeNMI = 0 and afterNMI = 0
C1D7  A5 40     LDA $40 = 01                    A:01 X:00 Y:80 P:64 SP:FD
beforeNMI = 0 and afterNMI = 0
C1D9  D0 FC     BNE $C1D7                       A:01 X:00 Y:80 P:64 SP:FD
beforeNMI = 0 and afterNMI = 0
C1D7  A5 40     LDA $40 = 01                    A:01 X:00 Y:80 P:64 SP:FD
beforeNMI = 0 and afterNMI = 0
C1D9  D0 FC     BNE $C1D7                       A:01 X:00 Y:80 P:64 SP:FD
beforeNMI = 0 and afterNMI = 0
C1D7  A5 40     LDA $40 = 01                    A:01 X:00 Y:80 P:64 SP:FD
beforeNMI = 0 and afterNMI = 0
C1D9  D0 FC     BNE $C1D7                       A:01 X:00 Y:80 P:64 SP:FD
beforeNMI = 0 and afterNMI = 0
C1D7  A5 40     LDA $40 = 01                    A:01 X:00 Y:80 P:64 SP:FD
beforeNMI = 0 and afterNMI = 0
C1D9  D0 FC     BNE $C1D7                       A:01 X:00 Y:80 P:64 SP:FD
beforeNMI = 0 and afterNMI = 0
C1D7  A5 40     LDA $40 = 01                    A:01 X:00 Y:80 P:64 SP:FD
beforeNMI = 0 and afterNMI = 0
C1D9  D0 FC     BNE $C1D7                       A:01 X:00 Y:80 P:64 SP:FD
beforeNMI = 0 and afterNMI = 0
C1D7  A5 40     LDA $40 = 01                    A:01 X:00 Y:80 P:64 SP:FD
beforeNMI = 0 and afterNMI = 0
C1D9  D0 FC     BNE $C1D7                       A:01 X:00 Y:80 P:64 SP:FD
beforeNMI = 0 and afterNMI = 0
C1D7  A5 40     LDA $40 = 01                    A:01 X:00 Y:80 P:64 SP:FD
beforeNMI = 0 and afterNMI = 0
C1D9  D0 FC     BNE $C1D7                       A:01 X:00 Y:80 P:64 SP:FD
beforeNMI = 0 and afterNMI = 0
C1D7  A5 40     LDA $40 = 01                    A:01 X:00 Y:80 P:64 SP:FD
beforeNMI = 0 and afterNMI = 0
C1D9  D0 FC     BNE $C1D7                       A:01 X:00 Y:80 P:64 SP:FD
beforeNMI = 0 and afterNMI = 0
C1D7  A5 40     LDA $40 = 01                    A:01 X:00 Y:80 P:64 SP:FD
beforeNMI = 0 and afterNMI = 0
C1D9  D0 FC     BNE $C1D7                       A:01 X:00 Y:80 P:64 SP:FD
beforeNMI = 0 and afterNMI = 0
C1D7  A5 40     LDA $40 = 01                    A:01 X:00 Y:80 P:64 SP:FD
beforeNMI = 0 and afterNMI = 0
C1D9  D0 FC     BNE $C1D7                       A:01 X:00 Y:80 P:64 SP:FD
beforeNMI = 0 and afterNMI = 0
C1D7  A5 40     LDA $40 = 01                    A:01 X:00 Y:80 P:64 SP:FD
beforeNMI = 0 and afterNMI = 0
C1D9  D0 FC     BNE $C1D7                       A:01 X:00 Y:80 P:64 SP:FD
beforeNMI = 0 and afterNMI = 0
C1D7  A5 40     LDA $40 = 01                    A:01 X:00 Y:80 P:64 SP:FD
beforeNMI = 0 and afterNMI = 0
C1D9  D0 FC     BNE $C1D7                       A:01 X:00 Y:80 P:64 SP:FD
beforeNMI = 0 and afterNMI = 0
C1D7  A5 40     LDA $40 = 01                    A:01 X:00 Y:80 P:64 SP:FD
beforeNMI = 0 and afterNMI = 0
C1D9  D0 FC     BNE $C1D7                       A:01 X:00 Y:80 P:64 SP:FD
beforeNMI = 0 and afterNMI = 0
C1D7  A5 40     LDA $40 = 01                    A:01 X:00 Y:80 P:64 SP:FD
beforeNMI = 0 and afterNMI = 0
C1D9  D0 FC     BNE $C1D7                       A:01 X:00 Y:80 P:64 SP:FD
beforeNMI = 0 and afterNMI = 0
C1D7  A5 40     LDA $40 = 01                    A:01 X:00 Y:80 P:64 SP:FD
beforeNMI = 0 and afterNMI = 0
C1D9  D0 FC     BNE $C1D7                       A:01 X:00 Y:80 P:64 SP:FD
beforeNMI = 0 and afterNMI = 0
C1D7  A5 40     LDA $40 = 01                    A:01 X:00 Y:80 P:64 SP:FD
beforeNMI = 0 and afterNMI = 0
C1D9  D0 FC     BNE $C1D7                       A:01 X:00 Y:80 P:64 SP:FD
beforeNMI = 0 and afterNMI = 0
C1D7  A5 40     LDA $40 = 01                    A:01 X:00 Y:80 P:64 SP:FD
beforeNMI = 0 and afterNMI = 0
C1D9  D0 FC     BNE $C1D7                       A:01 X:00 Y:80 P:64 SP:FD
beforeNMI = 0 and afterNMI = 0
C1D7  A5 40     LDA $40 = 01                    A:01 X:00 Y:80 P:64 SP:FD
beforeNMI = 0 and afterNMI = 0
C1D9  D0 FC     BNE $C1D7                       A:01 X:00 Y:80 P:64 SP:FD
beforeNMI = 0 and afterNMI = 0
C1D7  A5 40     LDA $40 = 01                    A:01 X:00 Y:80 P:64 SP:FD
beforeNMI = 0 and afterNMI = 0
C1D9  D0 FC     BNE $C1D7                       A:01 X:00 Y:80 P:64 SP:FD
beforeNMI = 0 and afterNMI = 0
C1D7  A5 40     LDA $40 = 01                    A:01 X:00 Y:80 P:64 SP:FD
beforeNMI = 0 and afterNMI = 0
C1D9  D0 FC     BNE $C1D7                       A:01 X:00 Y:80 P:64 SP:FD
beforeNMI = 0 and afterNMI = 0
C1D7  A5 40     LDA $40 = 01                    A:01 X:00 Y:80 P:64 SP:FD
beforeNMI = 0 and afterNMI = 0
C1D9  D0 FC     BNE $C1D7                       A:01 X:00 Y:80 P:64 SP:FD
beforeNMI = 0 and afterNMI = 0
C1D7  A5 40     LDA $40 = 01                    A:01 X:00 Y:80 P:64 SP:FD
beforeNMI = 0 and afterNMI = 0
C1D9  D0 FC     BNE $C1D7                       A:01 X:00 Y:80 P:64 SP:FD
beforeNMI = 0 and afterNMI = 0
C1D7  A5 40     LDA $40 = 01                    A:01 X:00 Y:80 P:64 SP:FD
beforeNMI = 0 and afterNMI = 0
C1D9  D0 FC     BNE $C1D7                       A:01 X:00 Y:80 P:64 SP:FD
beforeNMI = 0 and afterNMI = 0
C1D7  A5 40     LDA $40 = 01                    A:01 X:00 Y:80 P:64 SP:FD
beforeNMI = 0 and afterNMI = 0
C1D9  D0 FC     BNE $C1D7                       A:01 X:00 Y:80 P:64 SP:FD
beforeNMI = 0 and afterNMI = 0
C1D7  A5 40     LDA $40 = 01                    A:01 X:00 Y:80 P:64 SP:FD
beforeNMI = 0 and afterNMI = 0
C1D9  D0 FC     BNE $C1D7                       A:01 X:00 Y:80 P:64 SP:FD
beforeNMI = 0 and afterNMI = 0
C1D7  A5 40     LDA $40 = 01                    A:01 X:00 Y:80 P:64 SP:FD
beforeNMI = 0 and afterNMI = 0
C1D9  D0 FC     BNE $C1D7                       A:01 X:00 Y:80 P:64 SP:FD
beforeNMI = 0 and afterNMI = 0
C1D7  A5 40     LDA $40 = 01                    A:01 X:00 Y:80 P:64 SP:FD
beforeNMI = 0 and afterNMI = 0
C1D9  D0 FC     BNE $C1D7                       A:01 X:00 Y:80 P:64 SP:FD
beforeNMI = 0 and afterNMI = 0
C1D7  A5 40     LDA $40 = 01                    A:01 X:00 Y:80 P:64 SP:FD
beforeNMI = 0 and afterNMI = 0
C1D9  D0 FC     BNE $C1D7                       A:01 X:00 Y:80 P:64 SP:FD
beforeNMI = 0 and afterNMI = 0
C1D7  A5 40     LDA $40 = 01                    A:01 X:00 Y:80 P:64 SP:FD
beforeNMI = 0 and afterNMI = 0
C1D9  D0 FC     BNE $C1D7                       A:01 X:00 Y:80 P:64 SP:FD
beforeNMI = 0 and afterNMI = 0
C1D7  A5 40     LDA $40 = 01                    A:01 X:00 Y:80 P:64 SP:FD
beforeNMI = 0 and afterNMI = 0
C1D9  D0 FC     BNE $C1D7                       A:01 X:00 Y:80 P:64 SP:FD
beforeNMI = 0 and afterNMI = 0
C1D7  A5 40     LDA $40 = 01                    A:01 X:00 Y:80 P:64 SP:FD
beforeNMI = 0 and afterNMI = 0
C1D9  D0 FC     BNE $C1D7                       A:01 X:00 Y:80 P:64 SP:FD
beforeNMI = 0 and afterNMI = 0
C1D7  A5 40     LDA $40 = 01                    A:01 X:00 Y:80 P:64 SP:FD
beforeNMI = 0 and afterNMI = 0
C1D9  D0 FC     BNE $C1D7                       A:01 X:00 Y:80 P:64 SP:FD
beforeNMI = 0 and afterNMI = 0
C1D7  A5 40     LDA $40 = 01                    A:01 X:00 Y:80 P:64 SP:FD
beforeNMI = 0 and afterNMI = 0
C1D9  D0 FC     BNE $C1D7                       A:01 X:00 Y:80 P:64 SP:FD
beforeNMI = 0 and afterNMI = 0
C1D7  A5 40     LDA $40 = 01                    A:01 X:00 Y:80 P:64 SP:FD
beforeNMI = 0 and afterNMI = 0
C1D9  D0 FC     BNE $C1D7                       A:01 X:00 Y:80 P:64 SP:FD
beforeNMI = 0 and afterNMI = 0
C1D7  A5 40     LDA $40 = 01                    A:01 X:00 Y:80 P:64 SP:FD
beforeNMI = 0 and afterNMI = 0
C1D9  D0 FC     BNE $C1D7                       A:01 X:00 Y:80 P:64 SP:FD
beforeNMI = 0 and afterNMI = 0
C1D7  A5 40     LDA $40 = 01                    A:01 X:00 Y:80 P:64 SP:FD
beforeNMI = 0 and afterNMI = 0
C1D9  D0 FC     BNE $C1D7                       A:01 X:00 Y:80 P:64 SP:FD
beforeNMI = 0 and afterNMI = 0
C1D7  A5 40     LDA $40 = 01                    A:01 X:00 Y:80 P:64 SP:FD
beforeNMI = 0 and afterNMI = 0
C1D9  D0 FC     BNE $C1D7                       A:01 X:00 Y:80 P:64 SP:FD
beforeNMI = 0 and afterNMI = 0
C1D7  A5 40     LDA $40 = 01                    A:01 X:00 Y:80 P:64 SP:FD
beforeNMI = 0 and afterNMI = 0
C1D9  D0 FC     BNE $C1D7                       A:01 X:00 Y:80 P:64 SP:FD
beforeNMI = 0 and afterNMI = 0
C1D7  A5 40     LDA $40 = 01                    A:01 X:00 Y:80 P:64 SP:FD
beforeNMI = 0 and afterNMI = 0
C1D9  D0 FC     BNE $C1D7                       A:01 X:00 Y:80 P:64 SP:FD
beforeNMI = 0 and afterNMI = 0
C1D7  A5 40     LDA $40 = 01                    A:01 X:00 Y:80 P:64 SP:FD
beforeNMI = 0 and afterNMI = 0
C1D9  D0 FC     BNE $C1D7                       A:01 X:00 Y:80 P:64 SP:FD
beforeNMI = 0 and afterNMI = 0
C1D7  A5 40     LDA $40 = 01                    A:01 X:00 Y:80 P:64 SP:FD
beforeNMI = 0 and afterNMI = 0
C1D9  D0 FC     BNE $C1D7                       A:01 X:00 Y:80 P:64 SP:FD
beforeNMI = 0 and afterNMI = 0
C1D7  A5 40     LDA $40 = 01                    A:01 X:00 Y:80 P:64 SP:FD
beforeNMI = 0 and afterNMI = 0
C1D9  D0 FC     BNE $C1D7                       A:01 X:00 Y:80 P:64 SP:FD
beforeNMI = 0 and afterNMI = 0
C1D7  A5 40     LDA $40 = 01                    A:01 X:00 Y:80 P:64 SP:FD
beforeNMI = 0 and afterNMI = 0
C1D9  D0 FC     BNE $C1D7                       A:01 X:00 Y:80 P:64 SP:FD
beforeNMI = 0 and afterNMI = 0
C1D7  A5 40     LDA $40 = 01                    A:01 X:00 Y:80 P:64 SP:FD
beforeNMI = 0 and afterNMI = 0
C1D9  D0 FC     BNE $C1D7                       A:01 X:00 Y:80 P:64 SP:FD
beforeNMI = 0 and afterNMI = 0
C1D7  A5 40     LDA $40 = 01                    A:01 X:00 Y:80 P:64 SP:FD
beforeNMI = 0 and afterNMI = 0
C1D9  D0 FC     BNE $C1D7                       A:01 X:00 Y:80 P:64 SP:FD
beforeNMI = 0 and afterNMI = 0
C1D7  A5 40     LDA $40 = 01                    A:01 X:00 Y:80 P:64 SP:FD
beforeNMI = 0 and afterNMI = 0
C1D9  D0 FC     BNE $C1D7                       A:01 X:00 Y:80 P:64 SP:FD
beforeNMI = 0 and afterNMI = 0
C1D7  A5 40     LDA $40 = 01                    A:01 X:00 Y:80 P:64 SP:FD
beforeNMI = 0 and afterNMI = 0
C1D9  D0 FC     BNE $C1D7                       A:01 X:00 Y:80 P:64 SP:FD
beforeNMI = 0 and afterNMI = 0
C1D7  A5 40     LDA $40 = 01                    A:01 X:00 Y:80 P:64 SP:FD
beforeNMI = 0 and afterNMI = 0
C1D9  D0 FC     BNE $C1D7                       A:01 X:00 Y:80 P:64 SP:FD
beforeNMI = 0 and afterNMI = 0
C1D7  A5 40     LDA $40 = 01                    A:01 X:00 Y:80 P:64 SP:FD
beforeNMI = 0 and afterNMI = 0
C1D9  D0 FC     BNE $C1D7                       A:01 X:00 Y:80 P:64 SP:FD
beforeNMI = 0 and afterNMI = 0
C1D7  A5 40     LDA $40 = 01                    A:01 X:00 Y:80 P:64 SP:FD
beforeNMI = 0 and afterNMI = 0
C1D9  D0 FC     BNE $C1D7                       A:01 X:00 Y:80 P:64 SP:FD
beforeNMI = 0 and afterNMI = 0
C1D7  A5 40     LDA $40 = 01                    A:01 X:00 Y:80 P:64 SP:FD
beforeNMI = 0 and afterNMI = 0
C1D9  D0 FC     BNE $C1D7                       A:01 X:00 Y:80 P:64 SP:FD
beforeNMI = 0 and afterNMI = 0
C1D7  A5 40     LDA $40 = 01                    A:01 X:00 Y:80 P:64 SP:FD
beforeNMI = 0 and afterNMI = 0
C1D9  D0 FC     BNE $C1D7                       A:01 X:00 Y:80 P:64 SP:FD
beforeNMI = 0 and afterNMI = 0
C1D7  A5 40     LDA $40 = 01                    A:01 X:00 Y:80 P:64 SP:FD
beforeNMI = 0 and afterNMI = 0
C1D9  D0 FC     BNE $C1D7                       A:01 X:00 Y:80 P:64 SP:FD
beforeNMI = 0 and afterNMI = 0
C1D7  A5 40     LDA $40 = 01                    A:01 X:00 Y:80 P:64 SP:FD
beforeNMI = 0 and afterNMI = 0
C1D9  D0 FC     BNE $C1D7                       A:01 X:00 Y:80 P:64 SP:FD
beforeNMI = 0 and afterNMI = 0
C1D7  A5 40     LDA $40 = 01                    A:01 X:00 Y:80 P:64 SP:FD
beforeNMI = 0 and afterNMI = 0
C1D9  D0 FC     BNE $C1D7                       A:01 X:00 Y:80 P:64 SP:FD
beforeNMI = 0 and afterNMI = 0
C1D7  A5 40     LDA $40 = 01                    A:01 X:00 Y:80 P:64 SP:FD
beforeNMI = 0 and afterNMI = 0
C1D9  D0 FC     BNE $C1D7                       A:01 X:00 Y:80 P:64 SP:FD
beforeNMI = 0 and afterNMI = 0
C1D7  A5 40     LDA $40 = 01                    A:01 X:00 Y:80 P:64 SP:FD
beforeNMI = 0 and afterNMI = 0
C1D9  D0 FC     BNE $C1D7                       A:01 X:00 Y:80 P:64 SP:FD
beforeNMI = 0 and afterNMI = 0
C1D7  A5 40     LDA $40 = 01                    A:01 X:00 Y:80 P:64 SP:FD
beforeNMI = 0 and afterNMI = 0
C1D9  D0 FC     BNE $C1D7                       A:01 X:00 Y:80 P:64 SP:FD
beforeNMI = 0 and afterNMI = 0
C1D7  A5 40     LDA $40 = 01                    A:01 X:00 Y:80 P:64 SP:FD
beforeNMI = 0 and afterNMI = 0
C1D9  D0 FC     BNE $C1D7                       A:01 X:00 Y:80 P:64 SP:FD
beforeNMI = 0 and afterNMI = 0
C1D7  A5 40     LDA $40 = 01                    A:01 X:00 Y:80 P:64 SP:FD
beforeNMI = 0 and afterNMI = 0
C1D9  D0 FC     BNE $C1D7                       A:01 X:00 Y:80 P:64 SP:FD
beforeNMI = 0 and afterNMI = 0
C1D7  A5 40     LDA $40 = 01                    A:01 X:00 Y:80 P:64 SP:FD
beforeNMI = 0 and afterNMI = 0
C1D9  D0 FC     BNE $C1D7                       A:01 X:00 Y:80 P:64 SP:FD
beforeNMI = 0 and afterNMI = 0
C1D7  A5 40     LDA $40 = 01                    A:01 X:00 Y:80 P:64 SP:FD
beforeNMI = 0 and afterNMI = 0
C1D9  D0 FC     BNE $C1D7                       A:01 X:00 Y:80 P:64 SP:FD
beforeNMI = 0 and afterNMI = 0
C1D7  A5 40     LDA $40 = 01                    A:01 X:00 Y:80 P:64 SP:FD
beforeNMI = 0 and afterNMI = 0
C1D9  D0 FC     BNE $C1D7                       A:01 X:00 Y:80 P:64 SP:FD
beforeNMI = 0 and afterNMI = 0
C1D7  A5 40     LDA $40 = 01                    A:01 X:00 Y:80 P:64 SP:FD
beforeNMI = 0 and afterNMI = 0
C1D9  D0 FC     BNE $C1D7                       A:01 X:00 Y:80 P:64 SP:FD
beforeNMI = 0 and afterNMI = 0
C1D7  A5 40     LDA $40 = 01                    A:01 X:00 Y:80 P:64 SP:FD
beforeNMI = 0 and afterNMI = 0
C1D9  D0 FC     BNE $C1D7                       A:01 X:00 Y:80 P:64 SP:FD
beforeNMI = 0 and afterNMI = 0
C1D7  A5 40     LDA $40 = 01                    A:01 X:00 Y:80 P:64 SP:FD
beforeNMI = 0 and afterNMI = 0
C1D9  D0 FC     BNE $C1D7                       A:01 X:00 Y:80 P:64 SP:FD
beforeNMI = 0 and afterNMI = 0
C1D7  A5 40     LDA $40 = 01                    A:01 X:00 Y:80 P:64 SP:FD
beforeNMI = 0 and afterNMI = 0
C1D9  D0 FC     BNE $C1D7                       A:01 X:00 Y:80 P:64 SP:FD
beforeNMI = 0 and afterNMI = 0
C1D7  A5 40     LDA $40 = 01                    A:01 X:00 Y:80 P:64 SP:FD
beforeNMI = 0 and afterNMI = 0
C1D9  D0 FC     BNE $C1D7                       A:01 X:00 Y:80 P:64 SP:FD
beforeNMI = 0 and afterNMI = 0
C1D7  A5 40     LDA $40 = 01                    A:01 X:00 Y:80 P:64 SP:FD
beforeNMI = 0 and afterNMI = 0
C1D9  D0 FC     BNE $C1D7                       A:01 X:00 Y:80 P:64 SP:FD
beforeNMI = 0 and afterNMI = 0
C1D7  A5 40     LDA $40 = 01                    A:01 X:00 Y:80 P:64 SP:FD
beforeNMI = 0 and afterNMI = 0
C1D9  D0 FC     BNE $C1D7                       A:01 X:00 Y:80 P:64 SP:FD
beforeNMI = 0 and afterNMI = 0
C1D7  A5 40     LDA $40 = 01                    A:01 X:00 Y:80 P:64 SP:FD
beforeNMI = 0 and afterNMI = 0
C1D9  D0 FC     BNE $C1D7                       A:01 X:00 Y:80 P:64 SP:FD
beforeNMI = 0 and afterNMI = 0
C1D7  A5 40     LDA $40 = 01                    A:01 X:00 Y:80 P:64 SP:FD
beforeNMI = 0 and afterNMI = 0
C1D9  D0 FC     BNE $C1D7                       A:01 X:00 Y:80 P:64 SP:FD
beforeNMI = 0 and afterNMI = 0
C1D7  A5 40     LDA $40 = 01                    A:01 X:00 Y:80 P:64 SP:FD
beforeNMI = 0 and afterNMI = 0
C1D9  D0 FC     BNE $C1D7                       A:01 X:00 Y:80 P:64 SP:FD
beforeNMI = 0 and afterNMI = 0
C1D7  A5 40     LDA $40 = 01                    A:01 X:00 Y:80 P:64 SP:FD
beforeNMI = 0 and afterNMI = 0
C1D9  D0 FC     BNE $C1D7                       A:01 X:00 Y:80 P:64 SP:FD
beforeNMI = 0 and afterNMI = 0
C1D7  A5 40     LDA $40 = 01                    A:01 X:00 Y:80 P:64 SP:FD
beforeNMI = 0 and afterNMI = 0
C1D9  D0 FC     BNE $C1D7                       A:01 X:00 Y:80 P:64 SP:FD
beforeNMI = 0 and afterNMI = 0
C1D7  A5 40     LDA $40 = 01                    A:01 X:00 Y:80 P:64 SP:FD
beforeNMI = 0 and afterNMI = 0
C1D9  D0 FC     BNE $C1D7                       A:01 X:00 Y:80 P:64 SP:FD
beforeNMI = 0 and afterNMI = 0
C1D7  A5 40     LDA $40 = 01                    A:01 X:00 Y:80 P:64 SP:FD
beforeNMI = 0 and afterNMI = 0
C1D9  D0 FC     BNE $C1D7                       A:01 X:00 Y:80 P:64 SP:FD
beforeNMI = 0 and afterNMI = 0
C1D7  A5 40     LDA $40 = 01                    A:01 X:00 Y:80 P:64 SP:FD
beforeNMI = 0 and afterNMI = 0
C1D9  D0 FC     BNE $C1D7                       A:01 X:00 Y:80 P:64 SP:FD
beforeNMI = 0 and afterNMI = 0
C1D7  A5 40     LDA $40 = 01                    A:01 X:00 Y:80 P:64 SP:FD
beforeNMI = 0 and afterNMI = 0
C1D9  D0 FC     BNE $C1D7                       A:01 X:00 Y:80 P:64 SP:FD
beforeNMI = 0 and afterNMI = 0
C1D7  A5 40     LDA $40 = 01                    A:01 X:00 Y:80 P:64 SP:FD
beforeNMI = 0 and afterNMI = 0
C1D9  D0 FC     BNE $C1D7                       A:01 X:00 Y:80 P:64 SP:FD
beforeNMI = 0 and afterNMI = 0
C1D7  A5 40     LDA $40 = 01                    A:01 X:00 Y:80 P:64 SP:FD
beforeNMI = 0 and afterNMI = 0
C1D9  D0 FC     BNE $C1D7                       A:01 X:00 Y:80 P:64 SP:FD
beforeNMI = 0 and afterNMI = 0
C1D7  A5 40     LDA $40 = 01                    A:01 X:00 Y:80 P:64 SP:FD
beforeNMI = 0 and afterNMI = 0
C1D9  D0 FC     BNE $C1D7                       A:01 X:00 Y:80 P:64 SP:FD
beforeNMI = 0 and afterNMI = 0
C1D7  A5 40     LDA $40 = 01                    A:01 X:00 Y:80 P:64 SP:FD
beforeNMI = 0 and afterNMI = 0
C1D9  D0 FC     BNE $C1D7                       A:01 X:00 Y:80 P:64 SP:FD
beforeNMI = 0 and afterNMI = 0
C1D7  A5 40     LDA $40 = 01                    A:01 X:00 Y:80 P:64 SP:FD
beforeNMI = 0 and afterNMI = 0
C1D9  D0 FC     BNE $C1D7                       A:01 X:00 Y:80 P:64 SP:FD
beforeNMI = 0 and afterNMI = 0
C1D7  A5 40     LDA $40 = 01                    A:01 X:00 Y:80 P:64 SP:FD
beforeNMI = 0 and afterNMI = 0
C1D9  D0 FC     BNE $C1D7                       A:01 X:00 Y:80 P:64 SP:FD
beforeNMI = 0 and afterNMI = 0
C1D7  A5 40     LDA $40 = 01                    A:01 X:00 Y:80 P:64 SP:FD
beforeNMI = 0 and afterNMI = 0
C1D9  D0 FC     BNE $C1D7                       A:01 X:00 Y:80 P:64 SP:FD
beforeNMI = 0 and afterNMI = 0
C1D7  A5 40     LDA $40 = 01                    A:01 X:00 Y:80 P:64 SP:FD
beforeNMI = 0 and afterNMI = 0
C1D9  D0 FC     BNE $C1D7                       A:01 X:00 Y:80 P:64 SP:FD
beforeNMI = 0 and afterNMI = 0
C1D7  A5 40     LDA $40 = 01                    A:01 X:00 Y:80 P:64 SP:FD
beforeNMI = 0 and afterNMI = 0
C1D9  D0 FC     BNE $C1D7                       A:01 X:00 Y:80 P:64 SP:FD
beforeNMI = 0 and afterNMI = 0
C1D7  A5 40     LDA $40 = 01                    A:01 X:00 Y:80 P:64 SP:FD
beforeNMI = 0 and afterNMI = 0
C1D9  D0 FC     BNE $C1D7                       A:01 X:00 Y:80 P:64 SP:FD
beforeNMI = 0 and afterNMI = 0
C1D7  A5 40     LDA $40 = 01                    A:01 X:00 Y:80 P:64 SP:FD
beforeNMI = 0 and afterNMI = 0
C1D9  D0 FC     BNE $C1D7                       A:01 X:00 Y:80 P:64 SP:FD
beforeNMI = 0 and afterNMI = 0
C1D7  A5 40     LDA $40 = 01                    A:01 X:00 Y:80 P:64 SP:FD
beforeNMI = 0 and afterNMI = 0
C1D9  D0 FC     BNE $C1D7                       A:01 X:00 Y:80 P:64 SP:FD
beforeNMI = 0 and afterNMI = 0
C1D7  A5 40     LDA $40 = 01                    A:01 X:00 Y:80 P:64 SP:FD
beforeNMI = 0 and afterNMI = 0
C1D9  D0 FC     BNE $C1D7                       A:01 X:00 Y:80 P:64 SP:FD
beforeNMI = 0 and afterNMI = 0
C1D7  A5 40     LDA $40 = 01                    A:01 X:00 Y:80 P:64 SP:FD
beforeNMI = 0 and afterNMI = 0
C1D9  D0 FC     BNE $C1D7                       A:01 X:00 Y:80 P:64 SP:FD
beforeNMI = 0 and afterNMI = 0
C1D7  A5 40     LDA $40 = 01                    A:01 X:00 Y:80 P:64 SP:FD
beforeNMI = 0 and afterNMI = 0
C1D9  D0 FC     BNE $C1D7                       A:01 X:00 Y:80 P:64 SP:FD
beforeNMI = 0 and afterNMI = 0
C1D7  A5 40     LDA $40 = 01                    A:01 X:00 Y:80 P:64 SP:FD
beforeNMI = 0 and afterNMI = 0
C1D9  D0 FC     BNE $C1D7                       A:01 X:00 Y:80 P:64 SP:FD
beforeNMI = 0 and afterNMI = 0
C1D7  A5 40     LDA $40 = 01                    A:01 X:00 Y:80 P:64 SP:FD
beforeNMI = 0 and afterNMI = 0
C1D9  D0 FC     BNE $C1D7                       A:01 X:00 Y:80 P:64 SP:FD
beforeNMI = 0 and afterNMI = 0
C1D7  A5 40     LDA $40 = 01                    A:01 X:00 Y:80 P:64 SP:FD
beforeNMI = 0 and afterNMI = 0
C1D9  D0 FC     BNE $C1D7                       A:01 X:00 Y:80 P:64 SP:FD
beforeNMI = 0 and afterNMI = 0
C1D7  A5 40     LDA $40 = 01                    A:01 X:00 Y:80 P:64 SP:FD
beforeNMI = 0 and afterNMI = 0
C1D9  D0 FC     BNE $C1D7                       A:01 X:00 Y:80 P:64 SP:FD
beforeNMI = 0 and afterNMI = 0
C1D7  A5 40     LDA $40 = 01                    A:01 X:00 Y:80 P:64 SP:FD
beforeNMI = 0 and afterNMI = 0
C1D9  D0 FC     BNE $C1D7                       A:01 X:00 Y:80 P:64 SP:FD
beforeNMI = 0 and afterNMI = 0
C1D7  A5 40     LDA $40 = 01                    A:01 X:00 Y:80 P:64 SP:FD
beforeNMI = 0 and afterNMI = 0
C1D9  D0 FC     BNE $C1D7                       A:01 X:00 Y:80 P:64 SP:FD
beforeNMI = 0 and afterNMI = 0
C1D7  A5 40     LDA $40 = 01                    A:01 X:00 Y:80 P:64 SP:FD
beforeNMI = 0 and afterNMI = 0
C1D9  D0 FC     BNE $C1D7                       A:01 X:00 Y:80 P:64 SP:FD
beforeNMI = 0 and afterNMI = 0
C1D7  A5 40     LDA $40 = 01                    A:01 X:00 Y:80 P:64 SP:FD
beforeNMI = 0 and afterNMI = 0
C1D9  D0 FC     BNE $C1D7                       A:01 X:00 Y:80 P:64 SP:FD
beforeNMI = 0 and afterNMI = 0
C1D7  A5 40     LDA $40 = 01                    A:01 X:00 Y:80 P:64 SP:FD
beforeNMI = 0 and afterNMI = 0
C1D9  D0 FC     BNE $C1D7                       A:01 X:00 Y:80 P:64 SP:FD
beforeNMI = 0 and afterNMI = 0
C1D7  A5 40     LDA $40 = 01                    A:01 X:00 Y:80 P:64 SP:FD
beforeNMI = 0 and afterNMI = 0
C1D9  D0 FC     BNE $C1D7                       A:01 X:00 Y:80 P:64 SP:FD
beforeNMI = 0 and afterNMI = 0
C1D7  A5 40     LDA $40 = 01                    A:01 X:00 Y:80 P:64 SP:FD
beforeNMI = 0 and afterNMI = 0
C1D9  D0 FC     BNE $C1D7                       A:01 X:00 Y:80 P:64 SP:FD
beforeNMI = 0 and afterNMI = 0
C1D7  A5 40     LDA $40 = 01                    A:01 X:00 Y:80 P:64 SP:FD
beforeNMI = 0 and afterNMI = 0
C1D9  D0 FC     BNE $C1D7                       A:01 X:00 Y:80 P:64 SP:FD
beforeNMI = 0 and afterNMI = 0
C1D7  A5 40     LDA $40 = 01                    A:01 X:00 Y:80 P:64 SP:FD
beforeNMI = 0 and afterNMI = 0
C1D9  D0 FC     BNE $C1D7                       A:01 X:00 Y:80 P:64 SP:FD
beforeNMI = 0 and afterNMI = 0
C1D7  A5 40     LDA $40 = 01                    A:01 X:00 Y:80 P:64 SP:FD
beforeNMI = 0 and afterNMI = 0
C1D9  D0 FC     BNE $C1D7                       A:01 X:00 Y:80 P:64 SP:FD
beforeNMI = 0 and afterNMI = 0
C1D7  A5 40     LDA $40 = 01                    A:01 X:00 Y:80 P:64 SP:FD
beforeNMI = 0 and afterNMI = 0
C1D9  D0 FC     BNE $C1D7                       A:01 X:00 Y:80 P:64 SP:FD
beforeNMI = 0 and afterNMI = 0
C1D7  A5 40     LDA $40 = 01                    A:01 X:00 Y:80 P:64 SP:FD
beforeNMI = 0 and afterNMI = 0
C1D9  D0 FC     BNE $C1D7                       A:01 X:00 Y:80 P:64 SP:FD
beforeNMI = 0 and afterNMI = 0
C1D7  A5 40     LDA $40 = 01                    A:01 X:00 Y:80 P:64 SP:FD
beforeNMI = 0 and afterNMI = 0
C1D9  D0 FC     BNE $C1D7                       A:01 X:00 Y:80 P:64 SP:FD
beforeNMI = 0 and afterNMI = 0
C1D7  A5 40     LDA $40 = 01                    A:01 X:00 Y:80 P:64 SP:FD
beforeNMI = 0 and afterNMI = 0
C1D9  D0 FC     BNE $C1D7                       A:01 X:00 Y:80 P:64 SP:FD
beforeNMI = 0 and afterNMI = 0
C1D7  A5 40     LDA $40 = 01                    A:01 X:00 Y:80 P:64 SP:FD
beforeNMI = 0 and afterNMI = 0
C1D9  D0 FC     BNE $C1D7                       A:01 X:00 Y:80 P:64 SP:FD
beforeNMI = 0 and afterNMI = 0
C1D7  A5 40     LDA $40 = 01                    A:01 X:00 Y:80 P:64 SP:FD
beforeNMI = 0 and afterNMI = 0
C1D9  D0 FC     BNE $C1D7                       A:01 X:00 Y:80 P:64 SP:FD
beforeNMI = 0 and afterNMI = 0
C1D7  A5 40     LDA $40 = 01                    A:01 X:00 Y:80 P:64 SP:FD
beforeNMI = 0 and afterNMI = 0
C1D9  D0 FC     BNE $C1D7                       A:01 X:00 Y:80 P:64 SP:FD
beforeNMI = 0 and afterNMI = 0
C1D7  A5 40     LDA $40 = 01                    A:01 X:00 Y:80 P:64 SP:FD
beforeNMI = 0 and afterNMI = 0
C1D9  D0 FC     BNE $C1D7                       A:01 X:00 Y:80 P:64 SP:FD
beforeNMI = 0 and afterNMI = 0
C1D7  A5 40     LDA $40 = 01                    A:01 X:00 Y:80 P:64 SP:FD
beforeNMI = 0 and afterNMI = 0
C1D9  D0 FC     BNE $C1D7                       A:01 X:00 Y:80 P:64 SP:FD
beforeNMI = 0 and afterNMI = 0
C1D7  A5 40     LDA $40 = 01                    A:01 X:00 Y:80 P:64 SP:FD
beforeNMI = 0 and afterNMI = 0
C1D9  D0 FC     BNE $C1D7                       A:01 X:00 Y:80 P:64 SP:FD
beforeNMI = 0 and afterNMI = 0
C1D7  A5 40     LDA $40 = 01                    A:01 X:00 Y:80 P:64 SP:FD
beforeNMI = 0 and afterNMI = 0
C1D9  D0 FC     BNE $C1D7                       A:01 X:00 Y:80 P:64 SP:FD
beforeNMI = 0 and afterNMI = 0
C1D7  A5 40     LDA $40 = 01                    A:01 X:00 Y:80 P:64 SP:FD
beforeNMI = 0 and afterNMI = 0
C1D9  D0 FC     BNE $C1D7                       A:01 X:00 Y:80 P:64 SP:FD
beforeNMI = 0 and afterNMI = 0
C1D7  A5 40     LDA $40 = 01                    A:01 X:00 Y:80 P:64 SP:FD
beforeNMI = 0 and afterNMI = 0
C1D9  D0 FC     BNE $C1D7                       A:01 X:00 Y:80 P:64 SP:FD
beforeNMI = 0 and afterNMI = 0
C1D7  A5 40     LDA $40 = 01                    A:01 X:00 Y:80 P:64 SP:FD
beforeNMI = 0 and afterNMI = 0
C1D9  D0 FC     BNE $C1D7                       A:01 X:00 Y:80 P:64 SP:FD
beforeNMI = 0 and afterNMI = 0
C1D7  A5 40     LDA $40 = 01                    A:01 X:00 Y:80 P:64 SP:FD
beforeNMI = 0 and afterNMI = 0
C1D9  D0 FC     BNE $C1D7                       A:01 X:00 Y:80 P:64 SP:FD
beforeNMI = 0 and afterNMI = 0
C1D7  A5 40     LDA $40 = 01                    A:01 X:00 Y:80 P:64 SP:FD
beforeNMI = 0 and afterNMI = 0
C1D9  D0 FC     BNE $C1D7                       A:01 X:00 Y:80 P:64 SP:FD
beforeNMI = 0 and afterNMI = 0
C1D7  A5 40     LDA $40 = 01                    A:01 X:00 Y:80 P:64 SP:FD
beforeNMI = 0 and afterNMI = 0
C1D9  D0 FC     BNE $C1D7                       A:01 X:00 Y:80 P:64 SP:FD
beforeNMI = 0 and afterNMI = 0
C1D7  A5 40     LDA $40 = 01                    A:01 X:00 Y:80 P:64 SP:FD
beforeNMI = 0 and afterNMI = 0
C1D9  D0 FC     BNE $C1D7                       A:01 X:00 Y:80 P:64 SP:FD
beforeNMI = 0 and afterNMI = 0
C1D7  A5 40     LDA $40 = 01                    A:01 X:00 Y:80 P:64 SP:FD
beforeNMI = 0 and afterNMI = 0
C1D9  D0 FC     BNE $C1D7                       A:01 X:00 Y:80 P:64 SP:FD
beforeNMI = 0 and afterNMI = 0
C1D7  A5 40     LDA $40 = 01                    A:01 X:00 Y:80 P:64 SP:FD
beforeNMI = 0 and afterNMI = 0
C1D9  D0 FC     BNE $C1D7                       A:01 X:00 Y:80 P:64 SP:FD
beforeNMI = 0 and afterNMI = 0
C1D7  A5 40     LDA $40 = 01                    A:01 X:00 Y:80 P:64 SP:FD
beforeNMI = 0 and afterNMI = 0
C1D9  D0 FC     BNE $C1D7                       A:01 X:00 Y:80 P:64 SP:FD
beforeNMI = 0 and afterNMI = 0
C1D7  A5 40     LDA $40 = 01                    A:01 X:00 Y:80 P:64 SP:FD
beforeNMI = 0 and afterNMI = 0
C1D9  D0 FC     BNE $C1D7                       A:01 X:00 Y:80 P:64 SP:FD
beforeNMI = 0 and afterNMI = 0
C1D7  A5 40     LDA $40 = 01                    A:01 X:00 Y:80 P:64 SP:FD
beforeNMI = 0 and afterNMI = 0
C1D9  D0 FC     BNE $C1D7                       A:01 X:00 Y:80 P:64 SP:FD
beforeNMI = 0 and afterNMI = 0
C1D7  A5 40     LDA $40 = 01                    A:01 X:00 Y:80 P:64 SP:FD
beforeNMI = 0 and afterNMI = 0
C1D9  D0 FC     BNE $C1D7                       A:01 X:00 Y:80 P:64 SP:FD
beforeNMI = 0 and afterNMI = 0
C1D7  A5 40     LDA $40 = 01                    A:01 X:00 Y:80 P:64 SP:FD
beforeNMI = 0 and afterNMI = 0
C1D9  D0 FC     BNE $C1D7                       A:01 X:00 Y:80 P:64 SP:FD
beforeNMI = 0 and afterNMI = 0
C1D7  A5 40     LDA $40 = 01                    A:01 X:00 Y:80 P:64 SP:FD
beforeNMI = 0 and afterNMI = 0
C1D9  D0 FC     BNE $C1D7                       A:01 X:00 Y:80 P:64 SP:FD
beforeNMI = 0 and afterNMI = 0
C1D7  A5 40     LDA $40 = 01                    A:01 X:00 Y:80 P:64 SP:FD
beforeNMI = 0 and afterNMI = 0
C1D9  D0 FC     BNE $C1D7                       A:01 X:00 Y:80 P:64 SP:FD
beforeNMI = 0 and afterNMI = 0
C1D7  A5 40     LDA $40 = 01                    A:01 X:00 Y:80 P:64 SP:FD
beforeNMI = 0 and afterNMI = 0
C1D9  D0 FC     BNE $C1D7                       A:01 X:00 Y:80 P:64 SP:FD
beforeNMI = 0 and afterNMI = 0
C1D7  A5 40     LDA $40 = 01                    A:01 X:00 Y:80 P:64 SP:FD
beforeNMI = 0 and afterNMI = 0
C1D9  D0 FC     BNE $C1D7                       A:01 X:00 Y:80 P:64 SP:FD
beforeNMI = 0 and afterNMI = 0
C1D7  A5 40     LDA $40 = 01                    A:01 X:00 Y:80 P:64 SP:FD
beforeNMI = 0 and afterNMI = 0
C1D9  D0 FC     BNE $C1D7                       A:01 X:00 Y:80 P:64 SP:FD
beforeNMI = 0 and afterNMI = 0
C1D7  A5 40     LDA $40 = 01                    A:01 X:00 Y:80 P:64 SP:FD
beforeNMI = 0 and afterNMI = 0
C1D9  D0 FC     BNE $C1D7                       A:01 X:00 Y:80 P:64 SP:FD
beforeNMI = 0 and afterNMI = 0
C1D7  A5 40     LDA $40 = 01                    A:01 X:00 Y:80 P:64 SP:FD
beforeNMI = 0 and afterNMI = 0
C1D9  D0 FC     BNE $C1D7                       A:01 X:00 Y:80 P:64 SP:FD
beforeNMI = 0 and afterNMI = 0
C1D7  A5 40     LDA $40 = 01                    A:01 X:00 Y:80 P:64 SP:FD
beforeNMI = 0 and afterNMI = 0
C1D9  D0 FC     BNE $C1D7                       A:01 X:00 Y:80 P:64 SP:FD
beforeNMI = 0 and afterNMI = 0
C1D7  A5 40     LDA $40 = 01                    A:01 X:00 Y:80 P:64 SP:FD
beforeNMI = 0 and afterNMI = 0
C1D9  D0 FC     BNE $C1D7                       A:01 X:00 Y:80 P:64 SP:FD
beforeNMI = 0 and afterNMI = 0
C1D7  A5 40     LDA $40 = 01                    A:01 X:00 Y:80 P:64 SP:FD
beforeNMI = 0 and afterNMI = 0
C1D9  D0 FC     BNE $C1D7                       A:01 X:00 Y:80 P:64 SP:FD
beforeNMI = 0 and afterNMI = 0
C1D7  A5 40     LDA $40 = 01                    A:01 X:00 Y:80 P:64 SP:FD
beforeNMI = 0 and afterNMI = 0
C1D9  D0 FC     BNE $C1D7                       A:01 X:00 Y:80 P:64 SP:FD
beforeNMI = 0 and afterNMI = 0
C1D7  A5 40     LDA $40 = 01                    A:01 X:00 Y:80 P:64 SP:FD
beforeNMI = 0 and afterNMI = 0
C1D9  D0 FC     BNE $C1D7                       A:01 X:00 Y:80 P:64 SP:FD
beforeNMI = 0 and afterNMI = 0
C1D7  A5 40     LDA $40 = 01                    A:01 X:00 Y:80 P:64 SP:FD
beforeNMI = 0 and afterNMI = 0
C1D9  D0 FC     BNE $C1D7                       A:01 X:00 Y:80 P:64 SP:FD
beforeNMI = 0 and afterNMI = 0
C1D7  A5 40     LDA $40 = 01                    A:01 X:00 Y:80 P:64 SP:FD
beforeNMI = 0 and afterNMI = 0
C1D9  D0 FC     BNE $C1D7                       A:01 X:00 Y:80 P:64 SP:FD
beforeNMI = 0 and afterNMI = 0
C1D7  A5 40     LDA $40 = 01                    A:01 X:00 Y:80 P:64 SP:FD
beforeNMI = 0 and afterNMI = 0
C1D9  D0 FC     BNE $C1D7                       A:01 X:00 Y:80 P:64 SP:FD
beforeNMI = 0 and afterNMI = 0
C1D7  A5 40     LDA $40 = 01                    A:01 X:00 Y:80 P:64 SP:FD
beforeNMI = 0 and afterNMI = 0
C1D9  D0 FC     BNE $C1D7                       A:01 X:00 Y:80 P:64 SP:FD
beforeNMI = 0 and afterNMI = 0
C1D7  A5 40     LDA $40 = 01                    A:01 X:00 Y:80 P:64 SP:FD
beforeNMI = 0 and afterNMI = 0
C1D9  D0 FC     BNE $C1D7                       A:01 X:00 Y:80 P:64 SP:FD
beforeNMI = 0 and afterNMI = 0
C1D7  A5 40     LDA $40 = 01                    A:01 X:00 Y:80 P:64 SP:FD
beforeNMI = 0 and afterNMI = 0
C1D9  D0 FC     BNE $C1D7                       A:01 X:00 Y:80 P:64 SP:FD
beforeNMI = 0 and afterNMI = 0
C1D7  A5 40     LDA $40 = 01                    A:01 X:00 Y:80 P:64 SP:FD
beforeNMI = 0 and afterNMI = 0
C1D9  D0 FC     BNE $C1D7                       A:01 X:00 Y:80 P:64 SP:FD
beforeNMI = 0 and afterNMI = 0
C1D7  A5 40     LDA $40 = 01                    A:01 X:00 Y:80 P:64 SP:FD
beforeNMI = 0 and afterNMI = 0
C1D9  D0 FC     BNE $C1D7                       A:01 X:00 Y:80 P:64 SP:FD
beforeNMI = 0 and afterNMI = 0
C1D7  A5 40     LDA $40 = 01                    A:01 X:00 Y:80 P:64 SP:FD
beforeNMI = 0 and afterNMI = 0
C1D9  D0 FC     BNE $C1D7                       A:01 X:00 Y:80 P:64 SP:FD
beforeNMI = 0 and afterNMI = 0
C1D7  A5 40     LDA $40 = 01                    A:01 X:00 Y:80 P:64 SP:FD
beforeNMI = 0 and afterNMI = 0
C1D9  D0 FC     BNE $C1D7                       A:01 X:00 Y:80 P:64 SP:FD
beforeNMI = 0 and afterNMI = 0
C1D7  A5 40     LDA $40 = 01                    A:01 X:00 Y:80 P:64 SP:FD
beforeNMI = 0 and afterNMI = 0
C1D9  D0 FC     BNE $C1D7                       A:01 X:00 Y:80 P:64 SP:FD
beforeNMI = 0 and afterNMI = 0
C1D7  A5 40     LDA $40 = 01                    A:01 X:00 Y:80 P:64 SP:FD
beforeNMI = 0 and afterNMI = 0
C1D9  D0 FC     BNE $C1D7                       A:01 X:00 Y:80 P:64 SP:FD
beforeNMI = 0 and afterNMI = 0
C1D7  A5 40     LDA $40 = 01                    A:01 X:00 Y:80 P:64 SP:FD
beforeNMI = 0 and afterNMI = 0
C1D9  D0 FC     BNE $C1D7                       A:01 X:00 Y:80 P:64 SP:FD
beforeNMI = 0 and afterNMI = 0
C1D7  A5 40     LDA $40 = 01                    A:01 X:00 Y:80 P:64 SP:FD
beforeNMI = 0 and afterNMI = 0
C1D9  D0 FC     BNE $C1D7                       A:01 X:00 Y:80 P:64 SP:FD
beforeNMI = 0 and afterNMI = 0
C1D7  A5 40     LDA $40 = 01                    A:01 X:00 Y:80 P:64 SP:FD
beforeNMI = 0 and afterNMI = 0
C1D9  D0 FC     BNE $C1D7                       A:01 X:00 Y:80 P:64 SP:FD
beforeNMI = 0 and afterNMI = 0
C1D7  A5 40     LDA $40 = 01                    A:01 X:00 Y:80 P:64 SP:FD
beforeNMI = 0 and afterNMI = 0
C1D9  D0 FC     BNE $C1D7                       A:01 X:00 Y:80 P:64 SP:FD
beforeNMI = 0 and afterNMI = 0
C1D7  A5 40     LDA $40 = 01                    A:01 X:00 Y:80 P:64 SP:FD
beforeNMI = 0 and afterNMI = 0
C1D9  D0 FC     BNE $C1D7                       A:01 X:00 Y:80 P:64 SP:FD
beforeNMI = 0 and afterNMI = 0
C1D7  A5 40     LDA $40 = 01                    A:01 X:00 Y:80 P:64 SP:FD
beforeNMI = 0 and afterNMI = 0
C1D9  D0 FC     BNE $C1D7                       A:01 X:00 Y:80 P:64 SP:FD
beforeNMI = 0 and afterNMI = 0
C1D7  A5 40     LDA $40 = 01                    A:01 X:00 Y:80 P:64 SP:FD
beforeNMI = 0 and afterNMI = 0
C1D9  D0 FC     BNE $C1D7                       A:01 X:00 Y:80 P:64 SP:FD
beforeNMI = 0 and afterNMI = 0
C1D7  A5 40     LDA $40 = 01                    A:01 X:00 Y:80 P:64 SP:FD
beforeNMI = 0 and afterNMI = 0
C1D9  D0 FC     BNE $C1D7                       A:01 X:00 Y:80 P:64 SP:FD
beforeNMI = 0 and afterNMI = 0
C1D7  A5 40     LDA $40 = 01                    A:01 X:00 Y:80 P:64 SP:FD
beforeNMI = 0 and afterNMI = 0
C1D9  D0 FC     BNE $C1D7                       A:01 X:00 Y:80 P:64 SP:FD
beforeNMI = 0 and afterNMI = 0
C1D7  A5 40     LDA $40 = 01                    A:01 X:00 Y:80 P:64 SP:FD
beforeNMI = 0 and afterNMI = 0
C1D9  D0 FC     BNE $C1D7                       A:01 X:00 Y:80 P:64 SP:FD
beforeNMI = 0 and afterNMI = 0
C1D7  A5 40     LDA $40 = 01                    A:01 X:00 Y:80 P:64 SP:FD
beforeNMI = 0 and afterNMI = 0
C1D9  D0 FC     BNE $C1D7                       A:01 X:00 Y:80 P:64 SP:FD
beforeNMI = 0 and afterNMI = 0
C1D7  A5 40     LDA $40 = 01                    A:01 X:00 Y:80 P:64 SP:FD
beforeNMI = 0 and afterNMI = 0
C1D9  D0 FC     BNE $C1D7                       A:01 X:00 Y:80 P:64 SP:FD
beforeNMI = 0 and afterNMI = 0
C1D7  A5 40     LDA $40 = 01                    A:01 X:00 Y:80 P:64 SP:FD
beforeNMI = 0 and afterNMI = 0
C1D9  D0 FC     BNE $C1D7                       A:01 X:00 Y:80 P:64 SP:FD
beforeNMI = 0 and afterNMI = 0
C1D7  A5 40     LDA $40 = 01                    A:01 X:00 Y:80 P:64 SP:FD
beforeNMI = 0 and afterNMI = 0
C1D9  D0 FC     BNE $C1D7                       A:01 X:00 Y:80 P:64 SP:FD
beforeNMI = 0 and afterNMI = 0
C1D7  A5 40     LDA $40 = 01                    A:01 X:00 Y:80 P:64 SP:FD
beforeNMI = 0 and afterNMI = 0
C1D9  D0 FC     BNE $C1D7                       A:01 X:00 Y:80 P:64 SP:FD
beforeNMI = 0 and afterNMI = 0
C1D7  A5 40     LDA $40 = 01                    A:01 X:00 Y:80 P:64 SP:FD
beforeNMI = 0 and afterNMI = 0
C1D9  D0 FC     BNE $C1D7                       A:01 X:00 Y:80 P:64 SP:FD
beforeNMI = 0 and afterNMI = 0
C1D7  A5 40     LDA $40 = 01                    A:01 X:00 Y:80 P:64 SP:FD
beforeNMI = 0 and afterNMI = 0
C1D9  D0 FC     BNE $C1D7                       A:01 X:00 Y:80 P:64 SP:FD
beforeNMI = 0 and afterNMI = 0
C1D7  A5 40     LDA $40 = 01                    A:01 X:00 Y:80 P:64 SP:FD
beforeNMI = 0 and afterNMI = 0
C1D9  D0 FC     BNE $C1D7                       A:01 X:00 Y:80 P:64 SP:FD
beforeNMI = 0 and afterNMI = 0
C1D7  A5 40     LDA $40 = 01                    A:01 X:00 Y:80 P:64 SP:FD
beforeNMI = 0 and afterNMI = 0
C1D9  D0 FC     BNE $C1D7                       A:01 X:00 Y:80 P:64 SP:FD
beforeNMI = 0 and afterNMI = 0
C1D7  A5 40     LDA $40 = 01                    A:01 X:00 Y:80 P:64 SP:FD
beforeNMI = 0 and afterNMI = 0
C1D9  D0 FC     BNE $C1D7                       A:01 X:00 Y:80 P:64 SP:FD
beforeNMI = 0 and afterNMI = 0
C1D7  A5 40     LDA $40 = 01                    A:01 X:00 Y:80 P:64 SP:FD
beforeNMI = 0 and afterNMI = 0
C1D9  D0 FC     BNE $C1D7                       A:01 X:00 Y:80 P:64 SP:FD
beforeNMI = 0 and afterNMI = 0
C1D7  A5 40     LDA $40 = 01                    A:01 X:00 Y:80 P:64 SP:FD
beforeNMI = 0 and afterNMI = 0
C1D9  D0 FC     BNE $C1D7                       A:01 X:00 Y:80 P:64 SP:FD
beforeNMI = 0 and afterNMI = 0
C1D7  A5 40     LDA $40 = 01                    A:01 X:00 Y:80 P:64 SP:FD
beforeNMI = 0 and afterNMI = 0
C1D9  D0 FC     BNE $C1D7                       A:01 X:00 Y:80 P:64 SP:FD
beforeNMI = 0 and afterNMI = 0
C1D7  A5 40     LDA $40 = 01                    A:01 X:00 Y:80 P:64 SP:FD
beforeNMI = 0 and afterNMI = 0
C1D9  D0 FC     BNE $C1D7                       A:01 X:00 Y:80 P:64 SP:FD
beforeNMI = 0 and afterNMI = 0
C1D7  A5 40     LDA $40 = 01                    A:01 X:00 Y:80 P:64 SP:FD
beforeNMI = 0 and afterNMI = 0
C1D9  D0 FC     BNE $C1D7                       A:01 X:00 Y:80 P:64 SP:FD
beforeNMI = 0 and afterNMI = 0
C1D7  A5 40     LDA $40 = 01                    A:01 X:00 Y:80 P:64 SP:FD
beforeNMI = 0 and afterNMI = 0
C1D9  D0 FC     BNE $C1D7                       A:01 X:00 Y:80 P:64 SP:FD
beforeNMI = 0 and afterNMI = 0
C1D7  A5 40     LDA $40 = 01                    A:01 X:00 Y:80 P:64 SP:FD
beforeNMI = 0 and afterNMI = 0
C1D9  D0 FC     BNE $C1D7                       A:01 X:00 Y:80 P:64 SP:FD
beforeNMI = 0 and afterNMI = 0
C1D7  A5 40     LDA $40 = 01                    A:01 X:00 Y:80 P:64 SP:FD
beforeNMI = 0 and afterNMI = 0
C1D9  D0 FC     BNE $C1D7                       A:01 X:00 Y:80 P:64 SP:FD
beforeNMI = 0 and afterNMI = 0
C1D7  A5 40     LDA $40 = 01                    A:01 X:00 Y:80 P:64 SP:FD
beforeNMI = 0 and afterNMI = 0
C1D9  D0 FC     BNE $C1D7                       A:01 X:00 Y:80 P:64 SP:FD
beforeNMI = 0 and afterNMI = 0
C1D7  A5 40     LDA $40 = 01                    A:01 X:00 Y:80 P:64 SP:FD
beforeNMI = 0 and afterNMI = 0
C1D9  D0 FC     BNE $C1D7                       A:01 X:00 Y:80 P:64 SP:FD
beforeNMI = 0 and afterNMI = 0
C1D7  A5 40     LDA $40 = 01                    A:01 X:00 Y:80 P:64 SP:FD
beforeNMI = 0 and afterNMI = 0
C1D9  D0 FC     BNE $C1D7                       A:01 X:00 Y:80 P:64 SP:FD
beforeNMI = 0 and afterNMI = 0
C1D7  A5 40     LDA $40 = 01                    A:01 X:00 Y:80 P:64 SP:FD
beforeNMI = 0 and afterNMI = 0
C1D9  D0 FC     BNE $C1D7                       A:01 X:00 Y:80 P:64 SP:FD
beforeNMI = 0 and afterNMI = 0
C1D7  A5 40     LDA $40 = 01                    A:01 X:00 Y:80 P:64 SP:FD
beforeNMI = 0 and afterNMI = 0
C1D9  D0 FC     BNE $C1D7                       A:01 X:00 Y:80 P:64 SP:FD
beforeNMI = 0 and afterNMI = 0
C1D7  A5 40     LDA $40 = 01                    A:01 X:00 Y:80 P:64 SP:FD
beforeNMI = 0 and afterNMI = 0
C1D9  D0 FC     BNE $C1D7                       A:01 X:00 Y:80 P:64 SP:FD
beforeNMI = 0 and afterNMI = 0
C1D7  A5 40     LDA $40 = 01                    A:01 X:00 Y:80 P:64 SP:FD
beforeNMI = 0 and afterNMI = 0
C1D9  D0 FC     BNE $C1D7                       A:01 X:00 Y:80 P:64 SP:FD
beforeNMI = 0 and afterNMI = 0
C1D7  A5 40     LDA $40 = 01                    A:01 X:00 Y:80 P:64 SP:FD
beforeNMI = 0 and afterNMI = 0
C1D9  D0 FC     BNE $C1D7                       A:01 X:00 Y:80 P:64 SP:FD
beforeNMI = 0 and afterNMI = 0
C1D7  A5 40     LDA $40 = 01                    A:01 X:00 Y:80 P:64 SP:FD
beforeNMI = 0 and afterNMI = 0
C1D9  D0 FC     BNE $C1D7                       A:01 X:00 Y:80 P:64 SP:FD
beforeNMI = 0 and afterNMI = 0
C1D7  A5 40     LDA $40 = 01                    A:01 X:00 Y:80 P:64 SP:FD
beforeNMI = 0 and afterNMI = 0
C1D9  D0 FC     BNE $C1D7                       A:01 X:00 Y:80 P:64 SP:FD
beforeNMI = 0 and afterNMI = 0
C1D7  A5 40     LDA $40 = 01                    A:01 X:00 Y:80 P:64 SP:FD
beforeNMI = 0 and afterNMI = 0
C1D9  D0 FC     BNE $C1D7                       A:01 X:00 Y:80 P:64 SP:FD
beforeNMI = 0 and afterNMI = 0
C1D7  A5 40     LDA $40 = 01                    A:01 X:00 Y:80 P:64 SP:FD
beforeNMI = 0 and afterNMI = 0
C1D9  D0 FC     BNE $C1D7                       A:01 X:00 Y:80 P:64 SP:FD
beforeNMI = 0 and afterNMI = 0
C1D7  A5 40     LDA $40 = 01                    A:01 X:00 Y:80 P:64 SP:FD
beforeNMI = 0 and afterNMI = 0
C1D9  D0 FC     BNE $C1D7                       A:01 X:00 Y:80 P:64 SP:FD
beforeNMI = 0 and afterNMI = 0
C1D7  A5 40     LDA $40 = 01                    A:01 X:00 Y:80 P:64 SP:FD
beforeNMI = 0 and afterNMI = 0
C1D9  D0 FC     BNE $C1D7                       A:01 X:00 Y:80 P:64 SP:FD
beforeNMI = 0 and afterNMI = 0
C1D7  A5 40     LDA $40 = 01                    A:01 X:00 Y:80 P:64 SP:FD
beforeNMI = 0 and afterNMI = 0
C1D9  D0 FC     BNE $C1D7                       A:01 X:00 Y:80 P:64 SP:FD
beforeNMI = 0 and afterNMI = 0
C1D7  A5 40     LDA $40 = 01                    A:01 X:00 Y:80 P:64 SP:FD
beforeNMI = 0 and afterNMI = 0
C1D9  D0 FC     BNE $C1D7                       A:01 X:00 Y:80 P:64 SP:FD
beforeNMI = 0 and afterNMI = 0
C1D7  A5 40     LDA $40 = 01                    A:01 X:00 Y:80 P:64 SP:FD
beforeNMI = 0 and afterNMI = 0
C1D9  D0 FC     BNE $C1D7                       A:01 X:00 Y:80 P:64 SP:FD
beforeNMI = 0 and afterNMI = 0
C1D7  A5 40     LDA $40 = 01                    A:01 X:00 Y:80 P:64 SP:FD
beforeNMI = 0 and afterNMI = 0
C1D9  D0 FC     BNE $C1D7                       A:01 X:00 Y:80 P:64 SP:FD
beforeNMI = 0 and afterNMI = 0
C1D7  A5 40     LDA $40 = 01                    A:01 X:00 Y:80 P:64 SP:FD
beforeNMI = 0 and afterNMI = 0
C1D9  D0 FC     BNE $C1D7                       A:01 X:00 Y:80 P:64 SP:FD
beforeNMI = 0 and afterNMI = 0
C1D7  A5 40     LDA $40 = 01                    A:01 X:00 Y:80 P:64 SP:FD
beforeNMI = 0 and afterNMI = 0
C1D9  D0 FC     BNE $C1D7                       A:01 X:00 Y:80 P:64 SP:FD
beforeNMI = 0 and afterNMI = 0
C1D7  A5 40     LDA $40 = 01                    A:01 X:00 Y:80 P:64 SP:FD
beforeNMI = 0 and afterNMI = 0
C1D9  D0 FC     BNE $C1D7                       A:01 X:00 Y:80 P:64 SP:FD
beforeNMI = 0 and afterNMI = 0
C1D7  A5 40     LDA $40 = 01                    A:01 X:00 Y:80 P:64 SP:FD
beforeNMI = 0 and afterNMI = 0
C1D9  D0 FC     BNE $C1D7                       A:01 X:00 Y:80 P:64 SP:FD
beforeNMI = 0 and afterNMI = 0
C1D7  A5 40     LDA $40 = 01                    A:01 X:00 Y:80 P:64 SP:FD
beforeNMI = 0 and afterNMI = 0
C1D9  D0 FC     BNE $C1D7                       A:01 X:00 Y:80 P:64 SP:FD
beforeNMI = 0 and afterNMI = 0
C1D7  A5 40     LDA $40 = 01                    A:01 X:00 Y:80 P:64 SP:FD
beforeNMI = 0 and afterNMI = 0
C1D9  D0 FC     BNE $C1D7                       A:01 X:00 Y:80 P:64 SP:FD
beforeNMI = 0 and afterNMI = 0
C1D7  A5 40     LDA $40 = 01                    A:01 X:00 Y:80 P:64 SP:FD
beforeNMI = 0 and afterNMI = 0
C1D9  D0 FC     BNE $C1D7                       A:01 X:00 Y:80 P:64 SP:FD
beforeNMI = 0 and afterNMI = 0
C1D7  A5 40     LDA $40 = 01                    A:01 X:00 Y:80 P:64 SP:FD
beforeNMI = 0 and afterNMI = 0
C1D9  D0 FC     BNE $C1D7                       A:01 X:00 Y:80 P:64 SP:FD
beforeNMI = 0 and afterNMI = 0
C1D7  A5 40     LDA $40 = 01                    A:01 X:00 Y:80 P:64 SP:FD
beforeNMI = 0 and afterNMI = 0
C1D9  D0 FC     BNE $C1D7                       A:01 X:00 Y:80 P:64 SP:FD
beforeNMI = 0 and afterNMI = 0
C1D7  A5 40     LDA $40 = 01                    A:01 X:00 Y:80 P:64 SP:FD
beforeNMI = 0 and afterNMI = 0
C1D9  D0 FC     BNE $C1D7                       A:01 X:00 Y:80 P:64 SP:FD
beforeNMI = 0 and afterNMI = 0
C1D7  A5 40     LDA $40 = 01                    A:01 X:00 Y:80 P:64 SP:FD
beforeNMI = 0 and afterNMI = 0
C1D9  D0 FC     BNE $C1D7                       A:01 X:00 Y:80 P:64 SP:FD
beforeNMI = 0 and afterNMI = 0
C1D7  A5 40     LDA $40 = 01                    A:01 X:00 Y:80 P:64 SP:FD
beforeNMI = 0 and afterNMI = 0
C1D9  D0 FC     BNE $C1D7                       A:01 X:00 Y:80 P:64 SP:FD
beforeNMI = 0 and afterNMI = 0
C1D7  A5 40     LDA $40 = 01                    A:01 X:00 Y:80 P:64 SP:FD
beforeNMI = 0 and afterNMI = 0
C1D9  D0 FC     BNE $C1D7                       A:01 X:00 Y:80 P:64 SP:FD
beforeNMI = 0 and afterNMI = 0
C1D7  A5 40     LDA $40 = 01                    A:01 X:00 Y:80 P:64 SP:FD
beforeNMI = 0 and afterNMI = 0
C1D9  D0 FC     BNE $C1D7                       A:01 X:00 Y:80 P:64 SP:FD
beforeNMI = 0 and afterNMI = 0
C1D7  A5 40     LDA $40 = 01                    A:01 X:00 Y:80 P:64 SP:FD
beforeNMI = 0 and afterNMI = 0
C1D9  D0 FC     BNE $C1D7                       A:01 X:00 Y:80 P:64 SP:FD
beforeNMI = 0 and afterNMI = 0
C1D7  A5 40     LDA $40 = 01                    A:01 X:00 Y:80 P:64 SP:FD
beforeNMI = 0 and afterNMI = 0
C1D9  D0 FC     BNE $C1D7                       A:01 X:00 Y:80 P:64 SP:FD
beforeNMI = 0 and afterNMI = 0
C1D7  A5 40     LDA $40 = 01                    A:01 X:00 Y:80 P:64 SP:FD
beforeNMI = 0 and afterNMI = 0
C1D9  D0 FC     BNE $C1D7                       A:01 X:00 Y:80 P:64 SP:FD
beforeNMI = 0 and afterNMI = 0
C1D7  A5 40     LDA $40 = 01                    A:01 X:00 Y:80 P:64 SP:FD
beforeNMI = 0 and afterNMI = 0
C1D9  D0 FC     BNE $C1D7                       A:01 X:00 Y:80 P:64 SP:FD
beforeNMI = 0 and afterNMI = 0
C1D7  A5 40     LDA $40 = 01                    A:01 X:00 Y:80 P:64 SP:FD
beforeNMI = 0 and afterNMI = 0
C1D9  D0 FC     BNE $C1D7                       A:01 X:00 Y:80 P:64 SP:FD
beforeNMI = 0 and afterNMI = 0
C1D7  A5 40     LDA $40 = 01                    A:01 X:00 Y:80 P:64 SP:FD
beforeNMI = 0 and afterNMI = 0
C1D9  D0 FC     BNE $C1D7                       A:01 X:00 Y:80 P:64 SP:FD
beforeNMI = 0 and afterNMI = 0
C1D7  A5 40     LDA $40 = 01                    A:01 X:00 Y:80 P:64 SP:FD
beforeNMI = 0 and afterNMI = 0
C1D9  D0 FC     BNE $C1D7                       A:01 X:00 Y:80 P:64 SP:FD
beforeNMI = 0 and afterNMI = 0
C1D7  A5 40     LDA $40 = 01                    A:01 X:00 Y:80 P:64 SP:FD
beforeNMI = 0 and afterNMI = 0
C1D9  D0 FC     BNE $C1D7                       A:01 X:00 Y:80 P:64 SP:FD
beforeNMI = 0 and afterNMI = 0
C1D7  A5 40     LDA $40 = 01                    A:01 X:00 Y:80 P:64 SP:FD
beforeNMI = 0 and afterNMI = 0
C1D9  D0 FC     BNE $C1D7                       A:01 X:00 Y:80 P:64 SP:FD
beforeNMI = 0 and afterNMI = 0
C1D7  A5 40     LDA $40 = 01                    A:01 X:00 Y:80 P:64 SP:FD
beforeNMI = 0 and afterNMI = 0
C1D9  D0 FC     BNE $C1D7                       A:01 X:00 Y:80 P:64 SP:FD
beforeNMI = 0 and afterNMI = 0
C1D7  A5 40     LDA $40 = 01                    A:01 X:00 Y:80 P:64 SP:FD
beforeNMI = 0 and afterNMI = 0
C1D9  D0 FC     BNE $C1D7                       A:01 X:00 Y:80 P:64 SP:FD
beforeNMI = 0 and afterNMI = 0
C1D7  A5 40     LDA $40 = 01                    A:01 X:00 Y:80 P:64 SP:FD
beforeNMI = 0 and afterNMI = 0
C1D9  D0 FC     BNE $C1D7                       A:01 X:00 Y:80 P:64 SP:FD
beforeNMI = 0 and afterNMI = 0
C1D7  A5 40     LDA $40 = 01                    A:01 X:00 Y:80 P:64 SP:FD
beforeNMI = 0 and afterNMI = 0
C1D9  D0 FC     BNE $C1D7                       A:01 X:00 Y:80 P:64 SP:FD
beforeNMI = 0 and afterNMI = 0
C1D7  A5 40     LDA $40 = 01                    A:01 X:00 Y:80 P:64 SP:FD
beforeNMI = 0 and afterNMI = 0
C1D9  D0 FC     BNE $C1D7                       A:01 X:00 Y:80 P:64 SP:FD
beforeNMI = 0 and afterNMI = 0
C1D7  A5 40     LDA $40 = 01                    A:01 X:00 Y:80 P:64 SP:FD
beforeNMI = 0 and afterNMI = 0
C1D9  D0 FC     BNE $C1D7                       A:01 X:00 Y:80 P:64 SP:FD
beforeNMI = 0 and afterNMI = 0
C1D7  A5 40     LDA $40 = 01                    A:01 X:00 Y:80 P:64 SP:FD
beforeNMI = 0 and afterNMI = 0
C1D9  D0 FC     BNE $C1D7                       A:01 X:00 Y:80 P:64 SP:FD
beforeNMI = 0 and afterNMI = 0
C1D7  A5 40     LDA $40 = 01                    A:01 X:00 Y:80 P:64 SP:FD
beforeNMI = 0 and afterNMI = 0
C1D9  D0 FC     BNE $C1D7                       A:01 X:00 Y:80 P:64 SP:FD
beforeNMI = 0 and afterNMI = 0
C1D7  A5 40     LDA $40 = 01                    A:01 X:00 Y:80 P:64 SP:FD
beforeNMI = 0 and afterNMI = 0
C1D9  D0 FC     BNE $C1D7                       A:01 X:00 Y:80 P:64 SP:FD
beforeNMI = 0 and afterNMI = 0
C1D7  A5 40     LDA $40 = 01                    A:01 X:00 Y:80 P:64 SP:FD
beforeNMI = 0 and afterNMI = 0
C1D9  D0 FC     BNE $C1D7                       A:01 X:00 Y:80 P:64 SP:FD
beforeNMI = 0 and afterNMI = 0
C1D7  A5 40     LDA $40 = 01                    A:01 X:00 Y:80 P:64 SP:FD
beforeNMI = 0 and afterNMI = 0
C1D9  D0 FC     BNE $C1D7                       A:01 X:00 Y:80 P:64 SP:FD
beforeNMI = 0 and afterNMI = 0
C1D7  A5 40     LDA $40 = 01                    A:01 X:00 Y:80 P:64 SP:FD
beforeNMI = 0 and afterNMI = 0
C1D9  D0 FC     BNE $C1D7                       A:01 X:00 Y:80 P:64 SP:FD
beforeNMI = 0 and afterNMI = 0
C1D7  A5 40     LDA $40 = 01                    A:01 X:00 Y:80 P:64 SP:FD
beforeNMI = 0 and afterNMI = 0
C1D9  D0 FC     BNE $C1D7                       A:01 X:00 Y:80 P:64 SP:FD
beforeNMI = 0 and afterNMI = 0
C1D7  A5 40     LDA $40 = 01                    A:01 X:00 Y:80 P:64 SP:FD
beforeNMI = 0 and afterNMI = 0
C1D9  D0 FC     BNE $C1D7                       A:01 X:00 Y:80 P:64 SP:FD
beforeNMI = 0 and afterNMI = 0
C1D7  A5 40     LDA $40 = 01                    A:01 X:00 Y:80 P:64 SP:FD
beforeNMI = 0 and afterNMI = 0
C1D9  D0 FC     BNE $C1D7                       A:01 X:00 Y:80 P:64 SP:FD
beforeNMI = 0 and afterNMI = 0
C1D7  A5 40     LDA $40 = 01                    A:01 X:00 Y:80 P:64 SP:FD
beforeNMI = 0 and afterNMI = 0
C1D9  D0 FC     BNE $C1D7                       A:01 X:00 Y:80 P:64 SP:FD
beforeNMI = 0 and afterNMI = 0
C1D7  A5 40     LDA $40 = 01                    A:01 X:00 Y:80 P:64 SP:FD
beforeNMI = 0 and afterNMI = 0
C1D9  D0 FC     BNE $C1D7                       A:01 X:00 Y:80 P:64 SP:FD
beforeNMI = 0 and afterNMI = 0
C1D7  A5 40     LDA $40 = 01                    A:01 X:00 Y:80 P:64 SP:FD
beforeNMI = 0 and afterNMI = 0
C1D9  D0 FC     BNE $C1D7                       A:01 X:00 Y:80 P:64 SP:FD
beforeNMI = 0 and afterNMI = 0
C1D7  A5 40     LDA $40 = 01                    A:01 X:00 Y:80 P:64 SP:FD
beforeNMI = 0 and afterNMI = 0
C1D9  D0 FC     BNE $C1D7                       A:01 X:00 Y:80 P:64 SP:FD
beforeNMI = 0 and afterNMI = 0
C1D7  A5 40     LDA $40 = 01                    A:01 X:00 Y:80 P:64 SP:FD
beforeNMI = 0 and afterNMI = 0
C1D9  D0 FC     BNE $C1D7                       A:01 X:00 Y:80 P:64 SP:FD
beforeNMI = 0 and afterNMI = 0
C1D7  A5 40     LDA $40 = 01                    A:01 X:00 Y:80 P:64 SP:FD
beforeNMI = 0 and afterNMI = 0
C1D9  D0 FC     BNE $C1D7                       A:01 X:00 Y:80 P:64 SP:FD
beforeNMI = 0 and afterNMI = 0
C1D7  A5 40     LDA $40 = 01                    A:01 X:00 Y:80 P:64 SP:FD
beforeNMI = 0 and afterNMI = 0
C1D9  D0 FC     BNE $C1D7                       A:01 X:00 Y:80 P:64 SP:FD
beforeNMI = 0 and afterNMI = 0
C1D7  A5 40     LDA $40 = 01                    A:01 X:00 Y:80 P:64 SP:FD
beforeNMI = 0 and afterNMI = 0
C1D9  D0 FC     BNE $C1D7                       A:01 X:00 Y:80 P:64 SP:FD
beforeNMI = 0 and afterNMI = 0
C1D7  A5 40     LDA $40 = 01                    A:01 X:00 Y:80 P:64 SP:FD
beforeNMI = 0 and afterNMI = 0
C1D9  D0 FC     BNE $C1D7                       A:01 X:00 Y:80 P:64 SP:FD
beforeNMI = 0 and afterNMI = 0
C1D7  A5 40     LDA $40 = 01                    A:01 X:00 Y:80 P:64 SP:FD
beforeNMI = 0 and afterNMI = 0
C1D9  D0 FC     BNE $C1D7                       A:01 X:00 Y:80 P:64 SP:FD
beforeNMI = 0 and afterNMI = 0
C1D7  A5 40     LDA $40 = 01                    A:01 X:00 Y:80 P:64 SP:FD
beforeNMI = 0 and afterNMI = 0
C1D9  D0 FC     BNE $C1D7                       A:01 X:00 Y:80 P:64 SP:FD
beforeNMI = 0 and afterNMI = 0
C1D7  A5 40     LDA $40 = 01                    A:01 X:00 Y:80 P:64 SP:FD
beforeNMI = 0 and afterNMI = 0
C1D9  D0 FC     BNE $C1D7                       A:01 X:00 Y:80 P:64 SP:FD
beforeNMI = 0 and afterNMI = 0
C1D7  A5 40     LDA $40 = 01                    A:01 X:00 Y:80 P:64 SP:FD
beforeNMI = 0 and afterNMI = 0
C1D9  D0 FC     BNE $C1D7                       A:01 X:00 Y:80 P:64 SP:FD
beforeNMI = 0 and afterNMI = 0
C1D7  A5 40     LDA $40 = 01                    A:01 X:00 Y:80 P:64 SP:FD
beforeNMI = 0 and afterNMI = 0
C1D9  D0 FC     BNE $C1D7                       A:01 X:00 Y:80 P:64 SP:FD
beforeNMI = 0 and afterNMI = 0
C1D7  A5 40     LDA $40 = 01                    A:01 X:00 Y:80 P:64 SP:FD
beforeNMI = 0 and afterNMI = 0
C1D9  D0 FC     BNE $C1D7                       A:01 X:00 Y:80 P:64 SP:FD
beforeNMI = 0 and afterNMI = 0
C1D7  A5 40     LDA $40 = 01                    A:01 X:00 Y:80 P:64 SP:FD
beforeNMI = 0 and afterNMI = 0
C1D9  D0 FC     BNE $C1D7                       A:01 X:00 Y:80 P:64 SP:FD
beforeNMI = 0 and afterNMI = 0
C1D7  A5 40     LDA $40 = 01                    A:01 X:00 Y:80 P:64 SP:FD
beforeNMI = 0 and afterNMI = 0
C1D9  D0 FC     BNE $C1D7                       A:01 X:00 Y:80 P:64 SP:FD
beforeNMI = 0 and afterNMI = 0
C1D7  A5 40     LDA $40 = 01                    A:01 X:00 Y:80 P:64 SP:FD
beforeNMI = 0 and afterNMI = 0
C1D9  D0 FC     BNE $C1D7                       A:01 X:00 Y:80 P:64 SP:FD
beforeNMI = 0 and afterNMI = 0
C1D7  A5 40     LDA $40 = 01                    A:01 X:00 Y:80 P:64 SP:FD
beforeNMI = 0 and afterNMI = 0
C1D9  D0 FC     BNE $C1D7                       A:01 X:00 Y:80 P:64 SP:FD
beforeNMI = 0 and afterNMI = 0
C1D7  A5 40     LDA $40 = 01                    A:01 X:00 Y:80 P:64 SP:FD
beforeNMI = 0 and afterNMI = 0
C1D9  D0 FC     BNE $C1D7                       A:01 X:00 Y:80 P:64 SP:FD
beforeNMI = 0 and afterNMI = 0
C1D7  A5 40     LDA $40 = 01                    A:01 X:00 Y:80 P:64 SP:FD
beforeNMI = 0 and afterNMI = 0
C1D9  D0 FC     BNE $C1D7                       A:01 X:00 Y:80 P:64 SP:FD
beforeNMI = 0 and afterNMI = 0
C1D7  A5 40     LDA $40 = 01                    A:01 X:00 Y:80 P:64 SP:FD
beforeNMI = 0 and afterNMI = 0
C1D9  D0 FC     BNE $C1D7                       A:01 X:00 Y:80 P:64 SP:FD
beforeNMI = 0 and afterNMI = 0
C1D7  A5 40     LDA $40 = 01                    A:01 X:00 Y:80 P:64 SP:FD
beforeNMI = 0 and afterNMI = 0
C1D9  D0 FC     BNE $C1D7                       A:01 X:00 Y:80 P:64 SP:FD
beforeNMI = 0 and afterNMI = 0
C1D7  A5 40     LDA $40 = 01                    A:01 X:00 Y:80 P:64 SP:FD
beforeNMI = 0 and afterNMI = 0
C1D9  D0 FC     BNE $C1D7                       A:01 X:00 Y:80 P:64 SP:FD
beforeNMI = 0 and afterNMI = 0
C1D7  A5 40     LDA $40 = 01                    A:01 X:00 Y:80 P:64 SP:FD
beforeNMI = 0 and afterNMI = 0
C1D9  D0 FC     BNE $C1D7                       A:01 X:00 Y:80 P:64 SP:FD
beforeNMI = 0 and afterNMI = 0
C1D7  A5 40     LDA $40 = 01                    A:01 X:00 Y:80 P:64 SP:FD
beforeNMI = 0 and afterNMI = 0
C1D9  D0 FC     BNE $C1D7                       A:01 X:00 Y:80 P:64 SP:FD
beforeNMI = 0 and afterNMI = 0
C1D7  A5 40     LDA $40 = 01                    A:01 X:00 Y:80 P:64 SP:FD
beforeNMI = 0 and afterNMI = 0
C1D9  D0 FC     BNE $C1D7                       A:01 X:00 Y:80 P:64 SP:FD
beforeNMI = 0 and afterNMI = 0
C1D7  A5 40     LDA $40 = 01                    A:01 X:00 Y:80 P:64 SP:FD
beforeNMI = 0 and afterNMI = 0
C1D9  D0 FC     BNE $C1D7                       A:01 X:00 Y:80 P:64 SP:FD
beforeNMI = 0 and afterNMI = 0
C1D7  A5 40     LDA $40 = 01                    A:01 X:00 Y:80 P:64 SP:FD
beforeNMI = 0 and afterNMI = 0
C1D9  D0 FC     BNE $C1D7                       A:01 X:00 Y:80 P:64 SP:FD
beforeNMI = 0 and afterNMI = 0
C1D7  A5 40     LDA $40 = 01                    A:01 X:00 Y:80 P:64 SP:FD
beforeNMI = 0 and afterNMI = 0
C1D9  D0 FC     BNE $C1D7                       A:01 X:00 Y:80 P:64 SP:FD
beforeNMI = 0 and afterNMI = 0
C1D7  A5 40     LDA $40 = 01                    A:01 X:00 Y:80 P:64 SP:FD
beforeNMI = 0 and afterNMI = 0
C1D9  D0 FC     BNE $C1D7                       A:01 X:00 Y:80 P:64 SP:FD
beforeNMI = 0 and afterNMI = 0
C1D7  A5 40     LDA $40 = 01                    A:01 X:00 Y:80 P:64 SP:FD
beforeNMI = 0 and afterNMI = 0
C1D9  D0 FC     BNE $C1D7                       A:01 X:00 Y:80 P:64 SP:FD
beforeNMI = 0 and afterNMI = 0
C1D7  A5 40     LDA $40 = 01                    A:01 X:00 Y:80 P:64 SP:FD
beforeNMI = 0 and afterNMI = 0
C1D9  D0 FC     BNE $C1D7                       A:01 X:00 Y:80 P:64 SP:FD
beforeNMI = 0 and afterNMI = 0
C1D7  A5 40     LDA $40 = 01                    A:01 X:00 Y:80 P:64 SP:FD
beforeNMI = 0 and afterNMI = 0
C1D9  D0 FC     BNE $C1D7                       A:01 X:00 Y:80 P:64 SP:FD
beforeNMI = 0 and afterNMI = 0
C1D7  A5 40     LDA $40 = 01                    A:01 X:00 Y:80 P:64 SP:FD
beforeNMI = 0 and afterNMI = 0
C1D9  D0 FC     BNE $C1D7                       A:01 X:00 Y:80 P:64 SP:FD
beforeNMI = 0 and afterNMI = 0
C1D7  A5 40     LDA $40 = 01                    A:01 X:00 Y:80 P:64 SP:FD
beforeNMI = 0 and afterNMI = 0
C1D9  D0 FC     BNE $C1D7                       A:01 X:00 Y:80 P:64 SP:FD
beforeNMI = 0 and afterNMI = 0
C1D7  A5 40     LDA $40 = 01                    A:01 X:00 Y:80 P:64 SP:FD
beforeNMI = 0 and afterNMI = 0
C1D9  D0 FC     BNE $C1D7                       A:01 X:00 Y:80 P:64 SP:FD
beforeNMI = 0 and afterNMI = 0
C1D7  A5 40     LDA $40 = 01                    A:01 X:00 Y:80 P:64 SP:FD
beforeNMI = 0 and afterNMI = 0
C1D9  D0 FC     BNE $C1D7                       A:01 X:00 Y:80 P:64 SP:FD
beforeNMI = 0 and afterNMI = 0
C1D7  A5 40     LDA $40 = 01                    A:01 X:00 Y:80 P:64 SP:FD
beforeNMI = 0 and afterNMI = 0
C1D9  D0 FC     BNE $C1D7                       A:01 X:00 Y:80 P:64 SP:FD
beforeNMI = 0 and afterNMI = 0
C1D7  A5 40     LDA $40 = 01                    A:01 X:00 Y:80 P:64 SP:FD
beforeNMI = 0 and afterNMI = 0
C1D9  D0 FC     BNE $C1D7                       A:01 X:00 Y:80 P:64 SP:FD
beforeNMI = 0 and afterNMI = 0
C1D7  A5 40     LDA $40 = 01                    A:01 X:00 Y:80 P:64 SP:FD
beforeNMI = 0 and afterNMI = 0
C1D9  D0 FC     BNE $C1D7                       A:01 X:00 Y:80 P:64 SP:FD
beforeNMI = 0 and afterNMI = 0
C1D7  A5 40     LDA $40 = 01                    A:01 X:00 Y:80 P:64 SP:FD
beforeNMI = 0 and afterNMI = 0
C1D9  D0 FC     BNE $C1D7                       A:01 X:00 Y:80 P:64 SP:FD
beforeNMI = 0 and afterNMI = 0
C1D7  A5 40     LDA $40 = 01                    A:01 X:00 Y:80 P:64 SP:FD
beforeNMI = 0 and afterNMI = 0
C1D9  D0 FC     BNE $C1D7                       A:01 X:00 Y:80 P:64 SP:FD
beforeNMI = 0 and afterNMI = 0
C1D7  A5 40     LDA $40 = 01                    A:01 X:00 Y:80 P:64 SP:FD
beforeNMI = 0 and afterNMI = 0
C1D9  D0 FC     BNE $C1D7                       A:01 X:00 Y:80 P:64 SP:FD
beforeNMI = 0 and afterNMI = 0
C1D7  A5 40     LDA $40 = 01                    A:01 X:00 Y:80 P:64 SP:FD
beforeNMI = 0 and afterNMI = 0
C1D9  D0 FC     BNE $C1D7                       A:01 X:00 Y:80 P:64 SP:FD
beforeNMI = 0 and afterNMI = 0
C1D7  A5 40     LDA $40 = 01                    A:01 X:00 Y:80 P:64 SP:FD
beforeNMI = 0 and afterNMI = 0
C1D9  D0 FC     BNE $C1D7                       A:01 X:00 Y:80 P:64 SP:FD
beforeNMI = 0 and afterNMI = 0
C1D7  A5 40     LDA $40 = 01                    A:01 X:00 Y:80 P:64 SP:FD
beforeNMI = 0 and afterNMI = 0
C1D9  D0 FC     BNE $C1D7                       A:01 X:00 Y:80 P:64 SP:FD
beforeNMI = 0 and afterNMI = 0
C1D7  A5 40     LDA $40 = 01                    A:01 X:00 Y:80 P:64 SP:FD
beforeNMI = 0 and afterNMI = 0
C1D9  D0 FC     BNE $C1D7                       A:01 X:00 Y:80 P:64 SP:FD
beforeNMI = 0 and afterNMI = 0
C1D7  A5 40     LDA $40 = 01                    A:01 X:00 Y:80 P:64 SP:FD
beforeNMI = 0 and afterNMI = 0
C1D9  D0 FC     BNE $C1D7                       A:01 X:00 Y:80 P:64 SP:FD
beforeNMI = 0 and afterNMI = 0
C1D7  A5 40     LDA $40 = 01                    A:01 X:00 Y:80 P:64 SP:FD
beforeNMI = 0 and afterNMI = 0
C1D9  D0 FC     BNE $C1D7                       A:01 X:00 Y:80 P:64 SP:FD
beforeNMI = 0 and afterNMI = 0
C1D7  A5 40     LDA $40 = 01                    A:01 X:00 Y:80 P:64 SP:FD
beforeNMI = 0 and afterNMI = 0
C1D9  D0 FC     BNE $C1D7                       A:01 X:00 Y:80 P:64 SP:FD
beforeNMI = 0 and afterNMI = 0
C1D7  A5 40     LDA $40 = 01                    A:01 X:00 Y:80 P:64 SP:FD
beforeNMI = 0 and afterNMI = 0
C1D9  D0 FC     BNE $C1D7                       A:01 X:00 Y:80 P:64 SP:FD
beforeNMI = 0 and afterNMI = 0
C1D7  A5 40     LDA $40 = 01                    A:01 X:00 Y:80 P:64 SP:FD
beforeNMI = 0 and afterNMI = 0
C1D9  D0 FC     BNE $C1D7                       A:01 X:00 Y:80 P:64 SP:FD
beforeNMI = 0 and afterNMI = 0
C1D7  A5 40     LDA $40 = 01                    A:01 X:00 Y:80 P:64 SP:FD
beforeNMI = 0 and afterNMI = 0
C1D9  D0 FC     BNE $C1D7                       A:01 X:00 Y:80 P:64 SP:FD
beforeNMI = 0 and afterNMI = 0
C1D7  A5 40     LDA $40 = 01                    A:01 X:00 Y:80 P:64 SP:FD
beforeNMI = 0 and afterNMI = 0
C1D9  D0 FC     BNE $C1D7                       A:01 X:00 Y:80 P:64 SP:FD
beforeNMI = 0 and afterNMI = 0
C1D7  A5 40     LDA $40 = 01                    A:01 X:00 Y:80 P:64 SP:FD
beforeNMI = 0 and afterNMI = 0
C1D9  D0 FC     BNE $C1D7                       A:01 X:00 Y:80 P:64 SP:FD
beforeNMI = 0 and afterNMI = 0
C1D7  A5 40     LDA $40 = 01                    A:01 X:00 Y:80 P:64 SP:FD
beforeNMI = 0 and afterNMI = 0
C1D9  D0 FC     BNE $C1D7                       A:01 X:00 Y:80 P:64 SP:FD
beforeNMI = 0 and afterNMI = 0
C1D7  A5 40     LDA $40 = 01                    A:01 X:00 Y:80 P:64 SP:FD
beforeNMI = 0 and afterNMI = 0
C1D9  D0 FC     BNE $C1D7                       A:01 X:00 Y:80 P:64 SP:FD
beforeNMI = 0 and afterNMI = 0
C1D7  A5 40     LDA $40 = 01                    A:01 X:00 Y:80 P:64 SP:FD
beforeNMI = 0 and afterNMI = 0
C1D9  D0 FC     BNE $C1D7                       A:01 X:00 Y:80 P:64 SP:FD
beforeNMI = 0 and afterNMI = 0
C1D7  A5 40     LDA $40 = 01                    A:01 X:00 Y:80 P:64 SP:FD
beforeNMI = 0 and afterNMI = 0
C1D9  D0 FC     BNE $C1D7                       A:01 X:00 Y:80 P:64 SP:FD
beforeNMI = 0 and afterNMI = 0
C1D7  A5 40     LDA $40 = 01                    A:01 X:00 Y:80 P:64 SP:FD
beforeNMI = 0 and afterNMI = 0
C1D9  D0 FC     BNE $C1D7                       A:01 X:00 Y:80 P:64 SP:FD
beforeNMI = 0 and afterNMI = 0
C1D7  A5 40     LDA $40 = 01                    A:01 X:00 Y:80 P:64 SP:FD
beforeNMI = 0 and afterNMI = 0
C1D9  D0 FC     BNE $C1D7                       A:01 X:00 Y:80 P:64 SP:FD
beforeNMI = 0 and afterNMI = 0
C1D7  A5 40     LDA $40 = 01                    A:01 X:00 Y:80 P:64 SP:FD
beforeNMI = 0 and afterNMI = 0
C1D9  D0 FC     BNE $C1D7                       A:01 X:00 Y:80 P:64 SP:FD
beforeNMI = 0 and afterNMI = 0
C1D7  A5 40     LDA $40 = 01                    A:01 X:00 Y:80 P:64 SP:FD
beforeNMI = 0 and afterNMI = 0
C1D9  D0 FC     BNE $C1D7                       A:01 X:00 Y:80 P:64 SP:FD
beforeNMI = 0 and afterNMI = 0
C1D7  A5 40     LDA $40 = 01                    A:01 X:00 Y:80 P:64 SP:FD
beforeNMI = 0 and afterNMI = 0
C1D9  D0 FC     BNE $C1D7                       A:01 X:00 Y:80 P:64 SP:FD
beforeNMI = 0 and afterNMI = 0
C1D7  A5 40     LDA $40 = 01                    A:01 X:00 Y:80 P:64 SP:FD
beforeNMI = 0 and afterNMI = 0
C1D9  D0 FC     BNE $C1D7                       A:01 X:00 Y:80 P:64 SP:FD
beforeNMI = 0 and afterNMI = 0
C1D7  A5 40     LDA $40 = 01                    A:01 X:00 Y:80 P:64 SP:FD
beforeNMI = 0 and afterNMI = 0
C1D9  D0 FC     BNE $C1D7                       A:01 X:00 Y:80 P:64 SP:FD
beforeNMI = 0 and afterNMI = 0
C1D7  A5 40     LDA $40 = 01                    A:01 X:00 Y:80 P:64 SP:FD
beforeNMI = 0 and afterNMI = 0
C1D9  D0 FC     BNE $C1D7                       A:01 X:00 Y:80 P:64 SP:FD
beforeNMI = 0 and afterNMI = 0
C1D7  A5 40     LDA $40 = 01                    A:01 X:00 Y:80 P:64 SP:FD
beforeNMI = 0 and afterNMI = 0
C1D9  D0 FC     BNE $C1D7                       A:01 X:00 Y:80 P:64 SP:FD
beforeNMI = 0 and afterNMI = 0
C1D7  A5 40     LDA $40 = 01                    A:01 X:00 Y:80 P:64 SP:FD
beforeNMI = 0 and afterNMI = 0
C1D9  D0 FC     BNE $C1D7                       A:01 X:00 Y:80 P:64 SP:FD
beforeNMI = 0 and afterNMI = 0
C1D7  A5 40     LDA $40 = 01                    A:01 X:00 Y:80 P:64 SP:FD
beforeNMI = 0 and afterNMI = 0
C1D9  D0 FC     BNE $C1D7                       A:01 X:00 Y:80 P:64 SP:FD
beforeNMI = 0 and afterNMI = 0
C1D7  A5 40     LDA $40 = 01                    A:01 X:00 Y:80 P:64 SP:FD
beforeNMI = 0 and afterNMI = 0
C1D9  D0 FC     BNE $C1D7                       A:01 X:00 Y:80 P:64 SP:FD
beforeNMI = 0 and afterNMI = 0
C1D7  A5 40     LDA $40 = 01                    A:01 X:00 Y:80 P:64 SP:FD
beforeNMI = 0 and afterNMI = 0
C1D9  D0 FC     BNE $C1D7                       A:01 X:00 Y:80 P:64 SP:FD
beforeNMI = 0 and afterNMI = 0
C1D7  A5 40     LDA $40 = 01                    A:01 X:00 Y:80 P:64 SP:FD
beforeNMI = 0 and afterNMI = 0
C1D9  D0 FC     BNE $C1D7                       A:01 X:00 Y:80 P:64 SP:FD
beforeNMI = 0 and afterNMI = 0
C1D7  A5 40     LDA $40 = 01                    A:01 X:00 Y:80 P:64 SP:FD
beforeNMI = 0 and afterNMI = 0
C1D9  D0 FC     BNE $C1D7                       A:01 X:00 Y:80 P:64 SP:FD
beforeNMI = 0 and afterNMI = 0
C1D7  A5 40     LDA $40 = 01                    A:01 X:00 Y:80 P:64 SP:FD
beforeNMI = 0 and afterNMI = 0
C1D9  D0 FC     BNE $C1D7                       A:01 X:00 Y:80 P:64 SP:FD
beforeNMI = 0 and afterNMI = 0
C1D7  A5 40     LDA $40 = 01                    A:01 X:00 Y:80 P:64 SP:FD
beforeNMI = 0 and afterNMI = 0
C1D9  D0 FC     BNE $C1D7                       A:01 X:00 Y:80 P:64 SP:FD
beforeNMI = 0 and afterNMI = 0
C1D7  A5 40     LDA $40 = 01                    A:01 X:00 Y:80 P:64 SP:FD
beforeNMI = 0 and afterNMI = 0
C1D9  D0 FC     BNE $C1D7                       A:01 X:00 Y:80 P:64 SP:FD
beforeNMI = 0 and afterNMI = 0
C1D7  A5 40     LDA $40 = 01                    A:01 X:00 Y:80 P:64 SP:FD
beforeNMI = 0 and afterNMI = 0
C1D9  D0 FC     BNE $C1D7                       A:01 X:00 Y:80 P:64 SP:FD
beforeNMI = 0 and afterNMI = 0
C1D7  A5 40     LDA $40 = 01                    A:01 X:00 Y:80 P:64 SP:FD
beforeNMI = 0 and afterNMI = 0
C1D9  D0 FC     BNE $C1D7                       A:01 X:00 Y:80 P:64 SP:FD
beforeNMI = 0 and afterNMI = 0
C1D7  A5 40     LDA $40 = 01                    A:01 X:00 Y:80 P:64 SP:FD
beforeNMI = 0 and afterNMI = 0
C1D9  D0 FC     BNE $C1D7                       A:01 X:00 Y:80 P:64 SP:FD
beforeNMI = 0 and afterNMI = 0
C1D7  A5 40     LDA $40 = 01                    A:01 X:00 Y:80 P:64 SP:FD
beforeNMI = 0 and afterNMI = 0
C1D9  D0 FC     BNE $C1D7                       A:01 X:00 Y:80 P:64 SP:FD
beforeNMI = 0 and afterNMI = 0
C1D7  A5 40     LDA $40 = 01                    A:01 X:00 Y:80 P:64 SP:FD
beforeNMI = 0 and afterNMI = 0
C1D9  D0 FC     BNE $C1D7                       A:01 X:00 Y:80 P:64 SP:FD
beforeNMI = 0 and afterNMI = 0
C1D7  A5 40     LDA $40 = 01                    A:01 X:00 Y:80 P:64 SP:FD
beforeNMI = 0 and afterNMI = 0
C1D9  D0 FC     BNE $C1D7                       A:01 X:00 Y:80 P:64 SP:FD
beforeNMI = 0 and afterNMI = 0
C1D7  A5 40     LDA $40 = 01                    A:01 X:00 Y:80 P:64 SP:FD
beforeNMI = 0 and afterNMI = 0
C1D9  D0 FC     BNE $C1D7                       A:01 X:00 Y:80 P:64 SP:FD
beforeNMI = 0 and afterNMI = 0
C1D7  A5 40     LDA $40 = 01                    A:01 X:00 Y:80 P:64 SP:FD
beforeNMI = 0 and afterNMI = 0
C1D9  D0 FC     BNE $C1D7                       A:01 X:00 Y:80 P:64 SP:FD
beforeNMI = 0 and afterNMI = 0
C1D7  A5 40     LDA $40 = 01                    A:01 X:00 Y:80 P:64 SP:FD
beforeNMI = 0 and afterNMI = 0
C1D9  D0 FC     BNE $C1D7                       A:01 X:00 Y:80 P:64 SP:FD
beforeNMI = 0 and afterNMI = 0
C1D7  A5 40     LDA $40 = 01                    A:01 X:00 Y:80 P:64 SP:FD
beforeNMI = 0 and afterNMI = 0
C1D9  D0 FC     BNE $C1D7                       A:01 X:00 Y:80 P:64 SP:FD
beforeNMI = 0 and afterNMI = 0
C1D7  A5 40     LDA $40 = 01                    A:01 X:00 Y:80 P:64 SP:FD
beforeNMI = 0 and afterNMI = 0
C1D9  D0 FC     BNE $C1D7                       A:01 X:00 Y:80 P:64 SP:FD
beforeNMI = 0 and afterNMI = 0
C1D7  A5 40     LDA $40 = 01                    A:01 X:00 Y:80 P:64 SP:FD
beforeNMI = 0 and afterNMI = 0
C1D9  D0 FC     BNE $C1D7                       A:01 X:00 Y:80 P:64 SP:FD
beforeNMI = 0 and afterNMI = 0
C1D7  A5 40     LDA $40 = 01                    A:01 X:00 Y:80 P:64 SP:FD
beforeNMI = 0 and afterNMI = 0
C1D9  D0 FC     BNE $C1D7                       A:01 X:00 Y:80 P:64 SP:FD
beforeNMI = 0 and afterNMI = 0
C1D7  A5 40     LDA $40 = 01                    A:01 X:00 Y:80 P:64 SP:FD
beforeNMI = 0 and afterNMI = 0
C1D9  D0 FC     BNE $C1D7                       A:01 X:00 Y:80 P:64 SP:FD
beforeNMI = 0 and afterNMI = 0
C1D7  A5 40     LDA $40 = 01                    A:01 X:00 Y:80 P:64 SP:FD
beforeNMI = 0 and afterNMI = 0
C1D9  D0 FC     BNE $C1D7                       A:01 X:00 Y:80 P:64 SP:FD
beforeNMI = 0 and afterNMI = 0
C1D7  A5 40     LDA $40 = 01                    A:01 X:00 Y:80 P:64 SP:FD
beforeNMI = 0 and afterNMI = 0
C1D9  D0 FC     BNE $C1D7                       A:01 X:00 Y:80 P:64 SP:FD
beforeNMI = 0 and afterNMI = 0
C1D7  A5 40     LDA $40 = 01                    A:01 X:00 Y:80 P:64 SP:FD
beforeNMI = 0 and afterNMI = 0
C1D9  D0 FC     BNE $C1D7                       A:01 X:00 Y:80 P:64 SP:FD
beforeNMI = 0 and afterNMI = 0
C1D7  A5 40     LDA $40 = 01                    A:01 X:00 Y:80 P:64 SP:FD
beforeNMI = 0 and afterNMI = 0
C1D9  D0 FC     BNE $C1D7                       A:01 X:00 Y:80 P:64 SP:FD
beforeNMI = 0 and afterNMI = 0
C1D7  A5 40     LDA $40 = 01                    A:01 X:00 Y:80 P:64 SP:FD
beforeNMI = 0 and afterNMI = 0
C1D9  D0 FC     BNE $C1D7                       A:01 X:00 Y:80 P:64 SP:FD
beforeNMI = 0 and afterNMI = 0
C1D7  A5 40     LDA $40 = 01                    A:01 X:00 Y:80 P:64 SP:FD
beforeNMI = 0 and afterNMI = 0
C1D9  D0 FC     BNE $C1D7                       A:01 X:00 Y:80 P:64 SP:FD
beforeNMI = 0 and afterNMI = 0
C1D7  A5 40     LDA $40 = 01                    A:01 X:00 Y:80 P:64 SP:FD
beforeNMI = 0 and afterNMI = 0
C1D9  D0 FC     BNE $C1D7                       A:01 X:00 Y:80 P:64 SP:FD
beforeNMI = 0 and afterNMI = 0
C1D7  A5 40     LDA $40 = 01                    A:01 X:00 Y:80 P:64 SP:FD
beforeNMI = 0 and afterNMI = 0
C1D9  D0 FC     BNE $C1D7                       A:01 X:00 Y:80 P:64 SP:FD
beforeNMI = 0 and afterNMI = 0
C1D7  A5 40     LDA $40 = 01                    A:01 X:00 Y:80 P:64 SP:FD
beforeNMI = 0 and afterNMI = 0
C1D9  D0 FC     BNE $C1D7                       A:01 X:00 Y:80 P:64 SP:FD
beforeNMI = 0 and afterNMI = 0
C1D7  A5 40     LDA $40 = 01                    A:01 X:00 Y:80 P:64 SP:FD
beforeNMI = 0 and afterNMI = 0
C1D9  D0 FC     BNE $C1D7                       A:01 X:00 Y:80 P:64 SP:FD
beforeNMI = 0 and afterNMI = 0
C1D7  A5 40     LDA $40 = 01                    A:01 X:00 Y:80 P:64 SP:FD
beforeNMI = 0 and afterNMI = 0
C1D9  D0 FC     BNE $C1D7                       A:01 X:00 Y:80 P:64 SP:FD
beforeNMI = 0 and afterNMI = 0
C1D7  A5 40     LDA $40 = 01                    A:01 X:00 Y:80 P:64 SP:FD
beforeNMI = 0 and afterNMI = 0
C1D9  D0 FC     BNE $C1D7                       A:01 X:00 Y:80 P:64 SP:FD
beforeNMI = 0 and afterNMI = 0
C1D7  A5 40     LDA $40 = 01                    A:01 X:00 Y:80 P:64 SP:FD
beforeNMI = 0 and afterNMI = 0
C1D9  D0 FC     BNE $C1D7                       A:01 X:00 Y:80 P:64 SP:FD
beforeNMI = 0 and afterNMI = 0
C1D7  A5 40     LDA $40 = 01                    A:01 X:00 Y:80 P:64 SP:FD
beforeNMI = 0 and afterNMI = 0
C1D9  D0 FC     BNE $C1D7                       A:01 X:00 Y:80 P:64 SP:FD
beforeNMI = 0 and afterNMI = 0
C1D7  A5 40     LDA $40 = 01                    A:01 X:00 Y:80 P:64 SP:FD
beforeNMI = 0 and afterNMI = 0
C1D9  D0 FC     BNE $C1D7                       A:01 X:00 Y:80 P:64 SP:FD
beforeNMI = 0 and afterNMI = 0
C1D7  A5 40     LDA $40 = 01                    A:01 X:00 Y:80 P:64 SP:FD
beforeNMI = 0 and afterNMI = 0
C1D9  D0 FC     BNE $C1D7                       A:01 X:00 Y:80 P:64 SP:FD
beforeNMI = 0 and afterNMI = 0
C1D7  A5 40     LDA $40 = 01                    A:01 X:00 Y:80 P:64 SP:FD
beforeNMI = 0 and afterNMI = 0
C1D9  D0 FC     BNE $C1D7                       A:01 X:00 Y:80 P:64 SP:FD
beforeNMI = 0 and afterNMI = 0
C1D7  A5 40     LDA $40 = 01                    A:01 X:00 Y:80 P:64 SP:FD
beforeNMI = 0 and afterNMI = 0
C1D9  D0 FC     BNE $C1D7                       A:01 X:00 Y:80 P:64 SP:FD
beforeNMI = 0 and afterNMI = 0
C1D7  A5 40     LDA $40 = 01                    A:01 X:00 Y:80 P:64 SP:FD
beforeNMI = 0 and afterNMI = 0
C1D9  D0 FC     BNE $C1D7                       A:01 X:00 Y:80 P:64 SP:FD
beforeNMI = 0 and afterNMI = 0
C1D7  A5 40     LDA $40 = 01                    A:01 X:00 Y:80 P:64 SP:FD
beforeNMI = 0 and afterNMI = 0
C1D9  D0 FC     BNE $C1D7                       A:01 X:00 Y:80 P:64 SP:FD
beforeNMI = 0 and afterNMI = 0
C1D7  A5 40     LDA $40 = 01                    A:01 X:00 Y:80 P:64 SP:FD
beforeNMI = 0 and afterNMI = 0
C1D9  D0 FC     BNE $C1D7                       A:01 X:00 Y:80 P:64 SP:FD
beforeNMI = 0 and afterNMI = 0
C1D7  A5 40     LDA $40 = 01                    A:01 X:00 Y:80 P:64 SP:FD
beforeNMI = 0 and afterNMI = 0
C1D9  D0 FC     BNE $C1D7                       A:01 X:00 Y:80 P:64 SP:FD
beforeNMI = 0 and afterNMI = 0
C1D7  A5 40     LDA $40 = 01                    A:01 X:00 Y:80 P:64 SP:FD
beforeNMI = 0 and afterNMI = 0
C1D9  D0 FC     BNE $C1D7                       A:01 X:00 Y:80 P:64 SP:FD
beforeNMI = 0 and afterNMI = 0
C1D7  A5 40     LDA $40 = 01                    A:01 X:00 Y:80 P:64 SP:FD
beforeNMI = 0 and afterNMI = 0
C1D9  D0 FC     BNE $C1D7                       A:01 X:00 Y:80 P:64 SP:FD
beforeNMI = 0 and afterNMI = 0
C1D7  A5 40     LDA $40 = 01                    A:01 X:00 Y:80 P:64 SP:FD
beforeNMI = 0 and afterNMI = 0
C1D9  D0 FC     BNE $C1D7                       A:01 X:00 Y:80 P:64 SP:FD
beforeNMI = 0 and afterNMI = 0
C1D7  A5 40     LDA $40 = 01                    A:01 X:00 Y:80 P:64 SP:FD
beforeNMI = 0 and afterNMI = 0
C1D9  D0 FC     BNE $C1D7                       A:01 X:00 Y:80 P:64 SP:FD
beforeNMI = 0 and afterNMI = 0
C1D7  A5 40     LDA $40 = 01                    A:01 X:00 Y:80 P:64 SP:FD
beforeNMI = 0 and afterNMI = 0
C1D9  D0 FC     BNE $C1D7                       A:01 X:00 Y:80 P:64 SP:FD
beforeNMI = 0 and afterNMI = 0
C1D7  A5 40     LDA $40 = 01                    A:01 X:00 Y:80 P:64 SP:FD
beforeNMI = 0 and afterNMI = 0
C1D9  D0 FC     BNE $C1D7                       A:01 X:00 Y:80 P:64 SP:FD
beforeNMI = 0 and afterNMI = 0
C1D7  A5 40     LDA $40 = 01                    A:01 X:00 Y:80 P:64 SP:FD
beforeNMI = 0 and afterNMI = 0
C1D9  D0 FC     BNE $C1D7                       A:01 X:00 Y:80 P:64 SP:FD
beforeNMI = 0 and afterNMI = 0
C1D7  A5 40     LDA $40 = 01                    A:01 X:00 Y:80 P:64 SP:FD
beforeNMI = 0 and afterNMI = 0
C1D9  D0 FC     BNE $C1D7                       A:01 X:00 Y:80 P:64 SP:FD
beforeNMI = 0 and afterNMI = 0
C1D7  A5 40     LDA $40 = 01                    A:01 X:00 Y:80 P:64 SP:FD
beforeNMI = 0 and afterNMI = 0
C1D9  D0 FC     BNE $C1D7                       A:01 X:00 Y:80 P:64 SP:FD
beforeNMI = 0 and afterNMI = 0
C1D7  A5 40     LDA $40 = 01                    A:01 X:00 Y:80 P:64 SP:FD
beforeNMI = 0 and afterNMI = 0
C1D9  D0 FC     BNE $C1D7                       A:01 X:00 Y:80 P:64 SP:FD
beforeNMI = 0 and afterNMI = 0
C1D7  A5 40     LDA $40 = 01                    A:01 X:00 Y:80 P:64 SP:FD
beforeNMI = 0 and afterNMI = 0
C1D9  D0 FC     BNE $C1D7                       A:01 X:00 Y:80 P:64 SP:FD
beforeNMI = 0 and afterNMI = 0
C1D7  A5 40     LDA $40 = 01                    A:01 X:00 Y:80 P:64 SP:FD
beforeNMI = 0 and afterNMI = 0
C1D9  D0 FC     BNE $C1D7                       A:01 X:00 Y:80 P:64 SP:FD
beforeNMI = 0 and afterNMI = 0
C1D7  A5 40     LDA $40 = 01                    A:01 X:00 Y:80 P:64 SP:FD
beforeNMI = 0 and afterNMI = 0
C1D9  D0 FC     BNE $C1D7                       A:01 X:00 Y:80 P:64 SP:FD
beforeNMI = 0 and afterNMI = 0
C1D7  A5 40     LDA $40 = 01                    A:01 X:00 Y:80 P:64 SP:FD
beforeNMI = 0 and afterNMI = 0
C1D9  D0 FC     BNE $C1D7                       A:01 X:00 Y:80 P:64 SP:FD
beforeNMI = 0 and afterNMI = 0
C1D7  A5 40     LDA $40 = 01                    A:01 X:00 Y:80 P:64 SP:FD
beforeNMI = 0 and afterNMI = 0
C1D9  D0 FC     BNE $C1D7                       A:01 X:00 Y:80 P:64 SP:FD
beforeNMI = 0 and afterNMI = 0
C1D7  A5 40     LDA $40 = 01                    A:01 X:00 Y:80 P:64 SP:FD
beforeNMI = 0 and afterNMI = 0
C1D9  D0 FC     BNE $C1D7                       A:01 X:00 Y:80 P:64 SP:FD
beforeNMI = 0 and afterNMI = 0
C1D7  A5 40     LDA $40 = 01                    A:01 X:00 Y:80 P:64 SP:FD
beforeNMI = 0 and afterNMI = 0
C1D9  D0 FC     BNE $C1D7                       A:01 X:00 Y:80 P:64 SP:FD
beforeNMI = 0 and afterNMI = 0
C1D7  A5 40     LDA $40 = 01                    A:01 X:00 Y:80 P:64 SP:FD
beforeNMI = 0 and afterNMI = 0
C1D9  D0 FC     BNE $C1D7                       A:01 X:00 Y:80 P:64 SP:FD
beforeNMI = 0 and afterNMI = 0
C1D7  A5 40     LDA $40 = 01                    A:01 X:00 Y:80 P:64 SP:FD
beforeNMI = 0 and afterNMI = 0
C1D9  D0 FC     BNE $C1D7                       A:01 X:00 Y:80 P:64 SP:FD
beforeNMI = 0 and afterNMI = 0
C1D7  A5 40     LDA $40 = 01                    A:01 X:00 Y:80 P:64 SP:FD
beforeNMI = 0 and afterNMI = 0
C1D9  D0 FC     BNE $C1D7                       A:01 X:00 Y:80 P:64 SP:FD
beforeNMI = 0 and afterNMI = 0
C1D7  A5 40     LDA $40 = 01                    A:01 X:00 Y:80 P:64 SP:FD
beforeNMI = 0 and afterNMI = 0
C1D9  D0 FC     BNE $C1D7                       A:01 X:00 Y:80 P:64 SP:FD
beforeNMI = 0 and afterNMI = 0
C1D7  A5 40     LDA $40 = 01                    A:01 X:00 Y:80 P:64 SP:FD
beforeNMI = 0 and afterNMI = 0
C1D9  D0 FC     BNE $C1D7                       A:01 X:00 Y:80 P:64 SP:FD
beforeNMI = 0 and afterNMI = 0
C1D7  A5 40     LDA $40 = 01                    A:01 X:00 Y:80 P:64 SP:FD
beforeNMI = 0 and afterNMI = 0
C1D9  D0 FC     BNE $C1D7                       A:01 X:00 Y:80 P:64 SP:FD
beforeNMI = 0 and afterNMI = 0
C1D7  A5 40     LDA $40 = 01                    A:01 X:00 Y:80 P:64 SP:FD
beforeNMI = 0 and afterNMI = 0
C1D9  D0 FC     BNE $C1D7                       A:01 X:00 Y:80 P:64 SP:FD
beforeNMI = 0 and afterNMI = 0
C1D7  A5 40     LDA $40 = 01                    A:01 X:00 Y:80 P:64 SP:FD
beforeNMI = 0 and afterNMI = 0
C1D9  D0 FC     BNE $C1D7                       A:01 X:00 Y:80 P:64 SP:FD
beforeNMI = 0 and afterNMI = 0
C1D7  A5 40     LDA $40 = 01                    A:01 X:00 Y:80 P:64 SP:FD
beforeNMI = 0 and afterNMI = 0
C1D9  D0 FC     BNE $C1D7                       A:01 X:00 Y:80 P:64 SP:FD
beforeNMI = 0 and afterNMI = 0
C1D7  A5 40     LDA $40 = 01                    A:01 X:00 Y:80 P:64 SP:FD
beforeNMI = 0 and afterNMI = 0
C1D9  D0 FC     BNE $C1D7                       A:01 X:00 Y:80 P:64 SP:FD
beforeNMI = 0 and afterNMI = 0
C1D7  A5 40     LDA $40 = 01                    A:01 X:00 Y:80 P:64 SP:FD
beforeNMI = 0 and afterNMI = 0
C1D9  D0 FC     BNE $C1D7                       A:01 X:00 Y:80 P:64 SP:FD
beforeNMI = 0 and afterNMI = 0
C1D7  A5 40     LDA $40 = 01                    A:01 X:00 Y:80 P:64 SP:FD
beforeNMI = 0 and afterNMI = 0
C1D9  D0 FC     BNE $C1D7                       A:01 X:00 Y:80 P:64 SP:FD
beforeNMI = 0 and afterNMI = 0
C1D7  A5 40     LDA $40 = 01                    A:01 X:00 Y:80 P:64 SP:FD
beforeNMI = 0 and afterNMI = 0
C1D9  D0 FC     BNE $C1D7                       A:01 X:00 Y:80 P:64 SP:FD
beforeNMI = 0 and afterNMI = 0
C1D7  A5 40     LDA $40 = 01                    A:01 X:00 Y:80 P:64 SP:FD
beforeNMI = 0 and afterNMI = 0
C1D9  D0 FC     BNE $C1D7                       A:01 X:00 Y:80 P:64 SP:FD
beforeNMI = 0 and afterNMI = 0
C1D7  A5 40     LDA $40 = 01                    A:01 X:00 Y:80 P:64 SP:FD
beforeNMI = 0 and afterNMI = 0
C1D9  D0 FC     BNE $C1D7                       A:01 X:00 Y:80 P:64 SP:FD
beforeNMI = 0 and afterNMI = 0
C1D7  A5 40     LDA $40 = 01                    A:01 X:00 Y:80 P:64 SP:FD
beforeNMI = 0 and afterNMI = 0
C1D9  D0 FC     BNE $C1D7                       A:01 X:00 Y:80 P:64 SP:FD
beforeNMI = 0 and afterNMI = 0
C1D7  A5 40     LDA $40 = 01                    A:01 X:00 Y:80 P:64 SP:FD
beforeNMI = 0 and afterNMI = 0
C1D9  D0 FC     BNE $C1D7                       A:01 X:00 Y:80 P:64 SP:FD
beforeNMI = 0 and afterNMI = 0
C1D7  A5 40     LDA $40 = 01                    A:01 X:00 Y:80 P:64 SP:FD
beforeNMI = 0 and afterNMI = 0
C1D9  D0 FC     BNE $C1D7                       A:01 X:00 Y:80 P:64 SP:FD
beforeNMI = 0 and afterNMI = 0
C1D7  A5 40     LDA $40 = 01                    A:01 X:00 Y:80 P:64 SP:FD
beforeNMI = 0 and afterNMI = 0
C1D9  D0 FC     BNE $C1D7                       A:01 X:00 Y:80 P:64 SP:FD
beforeNMI = 0 and afterNMI = 0
C1D7  A5 40     LDA $40 = 01                    A:01 X:00 Y:80 P:64 SP:FD
beforeNMI = 0 and afterNMI = 0
C1D9  D0 FC     BNE $C1D7                       A:01 X:00 Y:80 P:64 SP:FD
beforeNMI = 0 and afterNMI = 0
C1D7  A5 40     LDA $40 = 01                    A:01 X:00 Y:80 P:64 SP:FD
beforeNMI = 0 and afterNMI = 0
C1D9  D0 FC     BNE $C1D7                       A:01 X:00 Y:80 P:64 SP:FD
beforeNMI = 0 and afterNMI = 0
C1D7  A5 40     LDA $40 = 01                    A:01 X:00 Y:80 P:64 SP:FD
beforeNMI = 0 and afterNMI = 0
C1D9  D0 FC     BNE $C1D7                       A:01 X:00 Y:80 P:64 SP:FD
beforeNMI = 0 and afterNMI = 0
C1D7  A5 40     LDA $40 = 01                    A:01 X:00 Y:80 P:64 SP:FD
beforeNMI = 0 and afterNMI = 0
C1D9  D0 FC     BNE $C1D7                       A:01 X:00 Y:80 P:64 SP:FD
beforeNMI = 0 and afterNMI = 0
C1D7  A5 40     LDA $40 = 01                    A:01 X:00 Y:80 P:64 SP:FD
beforeNMI = 0 and afterNMI = 0
C1D9  D0 FC     BNE $C1D7                       A:01 X:00 Y:80 P:64 SP:FD
beforeNMI = 0 and afterNMI = 0
C1D7  A5 40     LDA $40 = 01                    A:01 X:00 Y:80 P:64 SP:FD
beforeNMI = 0 and afterNMI = 0
C1D9  D0 FC     BNE $C1D7                       A:01 X:00 Y:80 P:64 SP:FD
beforeNMI = 0 and afterNMI = 0
C1D7  A5 40     LDA $40 = 01                    A:01 X:00 Y:80 P:64 SP:FD
beforeNMI = 0 and afterNMI = 0
C1D9  D0 FC     BNE $C1D7                       A:01 X:00 Y:80 P:64 SP:FD
beforeNMI = 0 and afterNMI = 0
C1D7  A5 40     LDA $40 = 01                    A:01 X:00 Y:80 P:64 SP:FD
beforeNMI = 0 and afterNMI = 0
C1D9  D0 FC     BNE $C1D7                       A:01 X:00 Y:80 P:64 SP:FD
beforeNMI = 0 and afterNMI = 0
C1D7  A5 40     LDA $40 = 01                    A:01 X:00 Y:80 P:64 SP:FD
beforeNMI = 0 and afterNMI = 0
C1D9  D0 FC     BNE $C1D7                       A:01 X:00 Y:80 P:64 SP:FD
beforeNMI = 0 and afterNMI = 0
C1D7  A5 40     LDA $40 = 01                    A:01 X:00 Y:80 P:64 SP:FD
beforeNMI = 0 and afterNMI = 0
C1D9  D0 FC     BNE $C1D7                       A:01 X:00 Y:80 P:64 SP:FD
beforeNMI = 0 and afterNMI = 0
C1D7  A5 40     LDA $40 = 01                    A:01 X:00 Y:80 P:64 SP:FD
beforeNMI = 0 and afterNMI = 0
C1D9  D0 FC     BNE $C1D7                       A:01 X:00 Y:80 P:64 SP:FD
beforeNMI = 0 and afterNMI = 0
C1D7  A5 40     LDA $40 = 01                    A:01 X:00 Y:80 P:64 SP:FD
beforeNMI = 0 and afterNMI = 0
C1D9  D0 FC     BNE $C1D7                       A:01 X:00 Y:80 P:64 SP:FD
beforeNMI = 0 and afterNMI = 0
C1D7  A5 40     LDA $40 = 01                    A:01 X:00 Y:80 P:64 SP:FD
beforeNMI = 0 and afterNMI = 0
C1D9  D0 FC     BNE $C1D7                       A:01 X:00 Y:80 P:64 SP:FD
beforeNMI = 0 and afterNMI = 0
C1D7  A5 40     LDA $40 = 01                    A:01 X:00 Y:80 P:64 SP:FD
beforeNMI = 0 and afterNMI = 0
C1D9  D0 FC     BNE $C1D7                       A:01 X:00 Y:80 P:64 SP:FD
beforeNMI = 0 and afterNMI = 0
C1D7  A5 40     LDA $40 = 01                    A:01 X:00 Y:80 P:64 SP:FD
beforeNMI = 0 and afterNMI = 0
C1D9  D0 FC     BNE $C1D7                       A:01 X:00 Y:80 P:64 SP:FD
beforeNMI = 0 and afterNMI = 0
C1D7  A5 40     LDA $40 = 01                    A:01 X:00 Y:80 P:64 SP:FD
beforeNMI = 0 and afterNMI = 0
C1D9  D0 FC     BNE $C1D7                       A:01 X:00 Y:80 P:64 SP:FD
beforeNMI = 0 and afterNMI = 0
C1D7  A5 40     LDA $40 = 01                    A:01 X:00 Y:80 P:64 SP:FD
beforeNMI = 0 and afterNMI = 0
C1D9  D0 FC     BNE $C1D7                       A:01 X:00 Y:80 P:64 SP:FD
beforeNMI = 0 and afterNMI = 0
C1D7  A5 40     LDA $40 = 01                    A:01 X:00 Y:80 P:64 SP:FD
beforeNMI = 0 and afterNMI = 0
C1D9  D0 FC     BNE $C1D7                       A:01 X:00 Y:80 P:64 SP:FD
beforeNMI = 0 and afterNMI = 0
C1D7  A5 40     LDA $40 = 01                    A:01 X:00 Y:80 P:64 SP:FD
beforeNMI = 0 and afterNMI = 0
C1D9  D0 FC     BNE $C1D7                       A:01 X:00 Y:80 P:64 SP:FD
beforeNMI = 0 and afterNMI = 0
C1D7  A5 40     LDA $40 = 01                    A:01 X:00 Y:80 P:64 SP:FD
beforeNMI = 0 and afterNMI = 0
C1D9  D0 FC     BNE $C1D7                       A:01 X:00 Y:80 P:64 SP:FD
beforeNMI = 0 and afterNMI = 0
C1D7  A5 40     LDA $40 = 01                    A:01 X:00 Y:80 P:64 SP:FD
beforeNMI = 0 and afterNMI = 0
C1D9  D0 FC     BNE $C1D7                       A:01 X:00 Y:80 P:64 SP:FD
beforeNMI = 0 and afterNMI = 0
C1D7  A5 40     LDA $40 = 01                    A:01 X:00 Y:80 P:64 SP:FD
beforeNMI = 0 and afterNMI = 0
C1D9  D0 FC     BNE $C1D7                       A:01 X:00 Y:80 P:64 SP:FD
beforeNMI = 0 and afterNMI = 0
C1D7  A5 40     LDA $40 = 01                    A:01 X:00 Y:80 P:64 SP:FD
beforeNMI = 0 and afterNMI = 0
C1D9  D0 FC     BNE $C1D7                       A:01 X:00 Y:80 P:64 SP:FD
beforeNMI = 0 and afterNMI = 0
C1D7  A5 40     LDA $40 = 01                    A:01 X:00 Y:80 P:64 SP:FD
beforeNMI = 0 and afterNMI = 0
C1D9  D0 FC     BNE $C1D7                       A:01 X:00 Y:80 P:64 SP:FD
beforeNMI = 0 and afterNMI = 0
C1D7  A5 40     LDA $40 = 01                    A:01 X:00 Y:80 P:64 SP:FD
beforeNMI = 0 and afterNMI = 0
C1D9  D0 FC     BNE $C1D7                       A:01 X:00 Y:80 P:64 SP:FD
beforeNMI = 0 and afterNMI = 0
C1D7  A5 40     LDA $40 = 01                    A:01 X:00 Y:80 P:64 SP:FD
beforeNMI = 0 and afterNMI = 0
C1D9  D0 FC     BNE $C1D7                       A:01 X:00 Y:80 P:64 SP:FD
beforeNMI = 0 and afterNMI = 0
C1D7  A5 40     LDA $40 = 01                    A:01 X:00 Y:80 P:64 SP:FD
beforeNMI = 0 and afterNMI = 0
C1D9  D0 FC     BNE $C1D7                       A:01 X:00 Y:80 P:64 SP:FD
beforeNMI = 0 and afterNMI = 0
C1D7  A5 40     LDA $40 = 01                    A:01 X:00 Y:80 P:64 SP:FD
beforeNMI = 0 and afterNMI = 0
C1D9  D0 FC     BNE $C1D7                       A:01 X:00 Y:80 P:64 SP:FD
beforeNMI = 0 and afterNMI = 0
C1D7  A5 40     LDA $40 = 01                    A:01 X:00 Y:80 P:64 SP:FD
beforeNMI = 0 and afterNMI = 0
C1D9  D0 FC     BNE $C1D7                       A:01 X:00 Y:80 P:64 SP:FD
beforeNMI = 0 and afterNMI = 0
C1D7  A5 40     LDA $40 = 01                    A:01 X:00 Y:80 P:64 SP:FD
beforeNMI = 0 and afterNMI = 0
C1D9  D0 FC     BNE $C1D7                       A:01 X:00 Y:80 P:64 SP:FD
beforeNMI = 0 and afterNMI = 0
C1D7  A5 40     LDA $40 = 01                    A:01 X:00 Y:80 P:64 SP:FD
beforeNMI = 0 and afterNMI = 0
C1D9  D0 FC     BNE $C1D7                       A:01 X:00 Y:80 P:64 SP:FD
beforeNMI = 0 and afterNMI = 0
C1D7  A5 40     LDA $40 = 01                    A:01 X:00 Y:80 P:64 SP:FD
beforeNMI = 0 and afterNMI = 0
C1D9  D0 FC     BNE $C1D7                       A:01 X:00 Y:80 P:64 SP:FD
beforeNMI = 0 and afterNMI = 0
C1D7  A5 40     LDA $40 = 01                    A:01 X:00 Y:80 P:64 SP:FD
beforeNMI = 0 and afterNMI = 0
C1D9  D0 FC     BNE $C1D7                       A:01 X:00 Y:80 P:64 SP:FD
beforeNMI = 0 and afterNMI = 0
C1D7  A5 40     LDA $40 = 01                    A:01 X:00 Y:80 P:64 SP:FD
beforeNMI = 0 and afterNMI = 0
C1D9  D0 FC     BNE $C1D7                       A:01 X:00 Y:80 P:64 SP:FD
beforeNMI = 0 and afterNMI = 0
C1D7  A5 40     LDA $40 = 01                    A:01 X:00 Y:80 P:64 SP:FD
beforeNMI = 0 and afterNMI = 0
C1D9  D0 FC     BNE $C1D7                       A:01 X:00 Y:80 P:64 SP:FD
beforeNMI = 0 and afterNMI = 0
C1D7  A5 40     LDA $40 = 01                    A:01 X:00 Y:80 P:64 SP:FD
beforeNMI = 0 and afterNMI = 0
C1D9  D0 FC     BNE $C1D7                       A:01 X:00 Y:80 P:64 SP:FD
beforeNMI = 0 and afterNMI = 0
C1D7  A5 40     LDA $40 = 01                    A:01 X:00 Y:80 P:64 SP:FD
beforeNMI = 0 and afterNMI = 0
C1D9  D0 FC     BNE $C1D7                       A:01 X:00 Y:80 P:64 SP:FD
beforeNMI = 0 and afterNMI = 0
C1D7  A5 40     LDA $40 = 01                    A:01 X:00 Y:80 P:64 SP:FD
beforeNMI = 0 and afterNMI = 0
C1D9  D0 FC     BNE $C1D7                       A:01 X:00 Y:80 P:64 SP:FD
beforeNMI = 0 and afterNMI = 0
C1D7  A5 40     LDA $40 = 01                    A:01 X:00 Y:80 P:64 SP:FD
beforeNMI = 0 and afterNMI = 0
C1D9  D0 FC     BNE $C1D7                       A:01 X:00 Y:80 P:64 SP:FD
beforeNMI = 0 and afterNMI = 0
C1D7  A5 40     LDA $40 = 01                    A:01 X:00 Y:80 P:64 SP:FD
beforeNMI = 0 and afterNMI = 0
C1D9  D0 FC     BNE $C1D7                       A:01 X:00 Y:80 P:64 SP:FD
beforeNMI = 0 and afterNMI = 0
C1D7  A5 40     LDA $40 = 01                    A:01 X:00 Y:80 P:64 SP:FD
beforeNMI = 0 and afterNMI = 0
C1D9  D0 FC     BNE $C1D7                       A:01 X:00 Y:80 P:64 SP:FD
beforeNMI = 0 and afterNMI = 0
C1D7  A5 40     LDA $40 = 01                    A:01 X:00 Y:80 P:64 SP:FD
beforeNMI = 0 and afterNMI = 0
C1D9  D0 FC     BNE $C1D7                       A:01 X:00 Y:80 P:64 SP:FD
beforeNMI = 0 and afterNMI = 0
C1D7  A5 40     LDA $40 = 01                    A:01 X:00 Y:80 P:64 SP:FD
beforeNMI = 0 and afterNMI = 0
C1D9  D0 FC     BNE $C1D7                       A:01 X:00 Y:80 P:64 SP:FD
beforeNMI = 0 and afterNMI = 0
C1D7  A5 40     LDA $40 = 01                    A:01 X:00 Y:80 P:64 SP:FD
beforeNMI = 0 and afterNMI = 0
C1D9  D0 FC     BNE $C1D7                       A:01 X:00 Y:80 P:64 SP:FD
beforeNMI = 0 and afterNMI = 0
C1D7  A5 40     LDA $40 = 01                    A:01 X:00 Y:80 P:64 SP:FD
beforeNMI = 0 and afterNMI = 0
C1D9  D0 FC     BNE $C1D7                       A:01 X:00 Y:80 P:64 SP:FD
beforeNMI = 0 and afterNMI = 0
C1D7  A5 40     LDA $40 = 01                    A:01 X:00 Y:80 P:64 SP:FD
beforeNMI = 0 and afterNMI = 0
C1D9  D0 FC     BNE $C1D7                       A:01 X:00 Y:80 P:64 SP:FD
beforeNMI = 0 and afterNMI = 0
C1D7  A5 40     LDA $40 = 01                    A:01 X:00 Y:80 P:64 SP:FD
beforeNMI = 0 and afterNMI = 0
C1D9  D0 FC     BNE $C1D7                       A:01 X:00 Y:80 P:64 SP:FD
beforeNMI = 0 and afterNMI = 0
C1D7  A5 40     LDA $40 = 01                    A:01 X:00 Y:80 P:64 SP:FD
beforeNMI = 0 and afterNMI = 0
C1D9  D0 FC     BNE $C1D7                       A:01 X:00 Y:80 P:64 SP:FD
beforeNMI = 0 and afterNMI = 0
C1D7  A5 40     LDA $40 = 01                    A:01 X:00 Y:80 P:64 SP:FD
beforeNMI = 0 and afterNMI = 0
C1D9  D0 FC     BNE $C1D7                       A:01 X:00 Y:80 P:64 SP:FD
beforeNMI = 0 and afterNMI = 0
C1D7  A5 40     LDA $40 = 01                    A:01 X:00 Y:80 P:64 SP:FD
beforeNMI = 0 and afterNMI = 0
C1D9  D0 FC     BNE $C1D7                       A:01 X:00 Y:80 P:64 SP:FD
beforeNMI = 0 and afterNMI = 0
C1D7  A5 40     LDA $40 = 01                    A:01 X:00 Y:80 P:64 SP:FD
beforeNMI = 0 and afterNMI = 0
C1D9  D0 FC     BNE $C1D7                       A:01 X:00 Y:80 P:64 SP:FD
beforeNMI = 0 and afterNMI = 0
C1D7  A5 40     LDA $40 = 01                    A:01 X:00 Y:80 P:64 SP:FD
beforeNMI = 0 and afterNMI = 0
C1D9  D0 FC     BNE $C1D7                       A:01 X:00 Y:80 P:64 SP:FD
beforeNMI = 0 and afterNMI = 0
C1D7  A5 40     LDA $40 = 01                    A:01 X:00 Y:80 P:64 SP:FD
beforeNMI = 0 and afterNMI = 0
C1D9  D0 FC     BNE $C1D7                       A:01 X:00 Y:80 P:64 SP:FD
beforeNMI = 0 and afterNMI = 0
C1D7  A5 40     LDA $40 = 01                    A:01 X:00 Y:80 P:64 SP:FD
beforeNMI = 0 and afterNMI = 0
C1D9  D0 FC     BNE $C1D7                       A:01 X:00 Y:80 P:64 SP:FD
beforeNMI = 0 and afterNMI = 0
C1D7  A5 40     LDA $40 = 01                    A:01 X:00 Y:80 P:64 SP:FD
beforeNMI = 0 and afterNMI = 0
C1D9  D0 FC     BNE $C1D7                       A:01 X:00 Y:80 P:64 SP:FD
beforeNMI = 0 and afterNMI = 0
C1D7  A5 40     LDA $40 = 01                    A:01 X:00 Y:80 P:64 SP:FD
beforeNMI = 0 and afterNMI = 0
C1D9  D0 FC     BNE $C1D7                       A:01 X:00 Y:80 P:64 SP:FD
beforeNMI = 0 and afterNMI = 0
C1D7  A5 40     LDA $40 = 01                    A:01 X:00 Y:80 P:64 SP:FD
beforeNMI = 0 and afterNMI = 0
C1D9  D0 FC     BNE $C1D7                       A:01 X:00 Y:80 P:64 SP:FD
beforeNMI = 0 and afterNMI = 0
C1D7  A5 40     LDA $40 = 01                    A:01 X:00 Y:80 P:64 SP:FD
beforeNMI = 0 and afterNMI = 0
C1D9  D0 FC     BNE $C1D7                       A:01 X:00 Y:80 P:64 SP:FD
beforeNMI = 0 and afterNMI = 0
C1D7  A5 40     LDA $40 = 01                    A:01 X:00 Y:80 P:64 SP:FD
beforeNMI = 0 and afterNMI = 0
C1D9  D0 FC     BNE $C1D7                       A:01 X:00 Y:80 P:64 SP:FD
beforeNMI = 0 and afterNMI = 0
C1D7  A5 40     LDA $40 = 01                    A:01 X:00 Y:80 P:64 SP:FD
beforeNMI = 0 and afterNMI = 0
C1D9  D0 FC     BNE $C1D7                       A:01 X:00 Y:80 P:64 SP:FD
beforeNMI = 0 and afterNMI = 0
C1D7  A5 40     LDA $40 = 01                    A:01 X:00 Y:80 P:64 SP:FD
beforeNMI = 0 and afterNMI = 0
C1D9  D0 FC     BNE $C1D7                       A:01 X:00 Y:80 P:64 SP:FD
beforeNMI = 0 and afterNMI = 0
C1D7  A5 40     LDA $40 = 01                    A:01 X:00 Y:80 P:64 SP:FD
beforeNMI = 0 and afterNMI = 0
C1D9  D0 FC     BNE $C1D7                       A:01 X:00 Y:80 P:64 SP:FD
beforeNMI = 0 and afterNMI = 0
C1D7  A5 40     LDA $40 = 01                    A:01 X:00 Y:80 P:64 SP:FD
beforeNMI = 0 and afterNMI = 0
C1D9  D0 FC     BNE $C1D7                       A:01 X:00 Y:80 P:64 SP:FD
beforeNMI = 0 and afterNMI = 0
C1D7  A5 40     LDA $40 = 01                    A:01 X:00 Y:80 P:64 SP:FD
beforeNMI = 0 and afterNMI = 0
C1D9  D0 FC     BNE $C1D7                       A:01 X:00 Y:80 P:64 SP:FD
beforeNMI = 0 and afterNMI = 0
C1D7  A5 40     LDA $40 = 01                    A:01 X:00 Y:80 P:64 SP:FD
beforeNMI = 0 and afterNMI = 0
C1D9  D0 FC     BNE $C1D7                       A:01 X:00 Y:80 P:64 SP:FD
beforeNMI = 0 and afterNMI = 0
C1D7  A5 40     LDA $40 = 01                    A:01 X:00 Y:80 P:64 SP:FD
beforeNMI = 0 and afterNMI = 0
C1D9  D0 FC     BNE $C1D7                       A:01 X:00 Y:80 P:64 SP:FD
beforeNMI = 0 and afterNMI = 0
C1D7  A5 40     LDA $40 = 01                    A:01 X:00 Y:80 P:64 SP:FD
beforeNMI = 0 and afterNMI = 0
C1D9  D0 FC     BNE $C1D7                       A:01 X:00 Y:80 P:64 SP:FD
beforeNMI = 0 and afterNMI = 0
C1D7  A5 40     LDA $40 = 01                    A:01 X:00 Y:80 P:64 SP:FD
beforeNMI = 0 and afterNMI = 0
C1D9  D0 FC     BNE $C1D7                       A:01 X:00 Y:80 P:64 SP:FD
beforeNMI = 0 and afterNMI = 0
C1D7  A5 40     LDA $40 = 01                    A:01 X:00 Y:80 P:64 SP:FD
beforeNMI = 0 and afterNMI = 0
C1D9  D0 FC     BNE $C1D7                       A:01 X:00 Y:80 P:64 SP:FD
beforeNMI = 0 and afterNMI = 0
C1D7  A5 40     LDA $40 = 01                    A:01 X:00 Y:80 P:64 SP:FD
beforeNMI = 0 and afterNMI = 0
C1D9  D0 FC     BNE $C1D7                       A:01 X:00 Y:80 P:64 SP:FD
beforeNMI = 0 and afterNMI = 0
C1D7  A5 40     LDA $40 = 01                    A:01 X:00 Y:80 P:64 SP:FD
beforeNMI = 0 and afterNMI = 0
C1D9  D0 FC     BNE $C1D7                       A:01 X:00 Y:80 P:64 SP:FD
beforeNMI = 0 and afterNMI = 0
C1D7  A5 40     LDA $40 = 01                    A:01 X:00 Y:80 P:64 SP:FD
beforeNMI = 0 and afterNMI = 0
C1D9  D0 FC     BNE $C1D7                       A:01 X:00 Y:80 P:64 SP:FD
beforeNMI = 0 and afterNMI = 0
C1D7  A5 40     LDA $40 = 01                    A:01 X:00 Y:80 P:64 SP:FD
beforeNMI = 0 and afterNMI = 0
C1D9  D0 FC     BNE $C1D7                       A:01 X:00 Y:80 P:64 SP:FD
beforeNMI = 0 and afterNMI = 0
C1D7  A5 40     LDA $40 = 01                    A:01 X:00 Y:80 P:64 SP:FD
beforeNMI = 0 and afterNMI = 0
C1D9  D0 FC     BNE $C1D7                       A:01 X:00 Y:80 P:64 SP:FD
beforeNMI = 0 and afterNMI = 0
C1D7  A5 40     LDA $40 = 01                    A:01 X:00 Y:80 P:64 SP:FD
beforeNMI = 0 and afterNMI = 0
C1D9  D0 FC     BNE $C1D7                       A:01 X:00 Y:80 P:64 SP:FD
beforeNMI = 0 and afterNMI = 0
C1D7  A5 40     LDA $40 = 01                    A:01 X:00 Y:80 P:64 SP:FD
beforeNMI = 0 and afterNMI = 0
C1D9  D0 FC     BNE $C1D7                       A:01 X:00 Y:80 P:64 SP:FD
beforeNMI = 0 and afterNMI = 0
C1D7  A5 40     LDA $40 = 01                    A:01 X:00 Y:80 P:64 SP:FD
beforeNMI = 0 and afterNMI = 0
C1D9  D0 FC     BNE $C1D7                       A:01 X:00 Y:80 P:64 SP:FD
beforeNMI = 0 and afterNMI = 0
C1D7  A5 40     LDA $40 = 01                    A:01 X:00 Y:80 P:64 SP:FD
beforeNMI = 0 and afterNMI = 0
C1D9  D0 FC     BNE $C1D7                       A:01 X:00 Y:80 P:64 SP:FD
beforeNMI = 0 and afterNMI = 0
C1D7  A5 40     LDA $40 = 01                    A:01 X:00 Y:80 P:64 SP:FD
beforeNMI = 0 and afterNMI = 0
C1D9  D0 FC     BNE $C1D7                       A:01 X:00 Y:80 P:64 SP:FD
beforeNMI = 0 and afterNMI = 0
C1D7  A5 40     LDA $40 = 01                    A:01 X:00 Y:80 P:64 SP:FD
beforeNMI = 0 and afterNMI = 0
C1D9  D0 FC     BNE $C1D7                       A:01 X:00 Y:80 P:64 SP:FD
beforeNMI = 0 and afterNMI = 0
C1D7  A5 40     LDA $40 = 01                    A:01 X:00 Y:80 P:64 SP:FD
beforeNMI = 0 and afterNMI = 0
C1D9  D0 FC     BNE $C1D7                       A:01 X:00 Y:80 P:64 SP:FD
beforeNMI = 0 and afterNMI = 0
C1D7  A5 40     LDA $40 = 01                    A:01 X:00 Y:80 P:64 SP:FD
beforeNMI = 0 and afterNMI = 0
C1D9  D0 FC     BNE $C1D7                       A:01 X:00 Y:80 P:64 SP:FD
beforeNMI = 0 and afterNMI = 0
C1D7  A5 40     LDA $40 = 01                    A:01 X:00 Y:80 P:64 SP:FD
beforeNMI = 0 and afterNMI = 0
C1D9  D0 FC     BNE $C1D7                       A:01 X:00 Y:80 P:64 SP:FD
beforeNMI = 0 and afterNMI = 0
C1D7  A5 40     LDA $40 = 01                    A:01 X:00 Y:80 P:64 SP:FD
beforeNMI = 0 and afterNMI = 0
C1D9  D0 FC     BNE $C1D7                       A:01 X:00 Y:80 P:64 SP:FD
beforeNMI = 0 and afterNMI = 0
C1D7  A5 40     LDA $40 = 01                    A:01 X:00 Y:80 P:64 SP:FD
beforeNMI = 0 and afterNMI = 0
C1D9  D0 FC     BNE $C1D7                       A:01 X:00 Y:80 P:64 SP:FD
beforeNMI = 0 and afterNMI = 0
C1D7  A5 40     LDA $40 = 01                    A:01 X:00 Y:80 P:64 SP:FD
beforeNMI = 0 and afterNMI = 0
C1D9  D0 FC     BNE $C1D7                       A:01 X:00 Y:80 P:64 SP:FD
beforeNMI = 0 and afterNMI = 0
C1D7  A5 40     LDA $40 = 01                    A:01 X:00 Y:80 P:64 SP:FD
beforeNMI = 0 and afterNMI = 0
C1D9  D0 FC     BNE $C1D7                       A:01 X:00 Y:80 P:64 SP:FD
beforeNMI = 0 and afterNMI = 0
C1D7  A5 40     LDA $40 = 01                    A:01 X:00 Y:80 P:64 SP:FD
beforeNMI = 0 and afterNMI = 0
C1D9  D0 FC     BNE $C1D7                       A:01 X:00 Y:80 P:64 SP:FD
beforeNMI = 0 and afterNMI = 0
C1D7  A5 40     LDA $40 = 01                    A:01 X:00 Y:80 P:64 SP:FD
beforeNMI = 0 and afterNMI = 0
C1D9  D0 FC     BNE $C1D7                       A:01 X:00 Y:80 P:64 SP:FD
beforeNMI = 0 and afterNMI = 0
C1D7  A5 40     LDA $40 = 01                    A:01 X:00 Y:80 P:64 SP:FD
beforeNMI = 0 and afterNMI = 0
C1D9  D0 FC     BNE $C1D7                       A:01 X:00 Y:80 P:64 SP:FD
beforeNMI = 0 and afterNMI = 0
C1D7  A5 40     LDA $40 = 01                    A:01 X:00 Y:80 P:64 SP:FD
beforeNMI = 0 and afterNMI = 0
C1D9  D0 FC     BNE $C1D7                       A:01 X:00 Y:80 P:64 SP:FD
beforeNMI = 0 and afterNMI = 0
C1D7  A5 40     LDA $40 = 01                    A:01 X:00 Y:80 P:64 SP:FD
beforeNMI = 0 and afterNMI = 0
C1D9  D0 FC     BNE $C1D7                       A:01 X:00 Y:80 P:64 SP:FD
beforeNMI = 0 and afterNMI = 0
C1D7  A5 40     LDA $40 = 01                    A:01 X:00 Y:80 P:64 SP:FD
beforeNMI = 0 and afterNMI = 0
C1D9  D0 FC     BNE $C1D7                       A:01 X:00 Y:80 P:64 SP:FD
beforeNMI = 0 and afterNMI = 0
C1D7  A5 40     LDA $40 = 01                    A:01 X:00 Y:80 P:64 SP:FD
beforeNMI = 0 and afterNMI = 0
C1D9  D0 FC     BNE $C1D7                       A:01 X:00 Y:80 P:64 SP:FD
beforeNMI = 0 and afterNMI = 0
C1D7  A5 40     LDA $40 = 01                    A:01 X:00 Y:80 P:64 SP:FD
beforeNMI = 0 and afterNMI = 0
C1D9  D0 FC     BNE $C1D7                       A:01 X:00 Y:80 P:64 SP:FD
beforeNMI = 0 and afterNMI = 0
C1D7  A5 40     LDA $40 = 01                    A:01 X:00 Y:80 P:64 SP:FD
beforeNMI = 0 and afterNMI = 0
C1D9  D0 FC     BNE $C1D7                       A:01 X:00 Y:80 P:64 SP:FD
beforeNMI = 0 and afterNMI = 0
C1D7  A5 40     LDA $40 = 01                    A:01 X:00 Y:80 P:64 SP:FD
beforeNMI = 0 and afterNMI = 0
C1D9  D0 FC     BNE $C1D7                       A:01 X:00 Y:80 P:64 SP:FD
beforeNMI = 0 and afterNMI = 0
C1D7  A5 40     LDA $40 = 01                    A:01 X:00 Y:80 P:64 SP:FD
beforeNMI = 0 and afterNMI = 0
C1D9  D0 FC     BNE $C1D7                       A:01 X:00 Y:80 P:64 SP:FD
beforeNMI = 0 and afterNMI = 0
C1D7  A5 40     LDA $40 = 01                    A:01 X:00 Y:80 P:64 SP:FD
beforeNMI = 0 and afterNMI = 0
C1D9  D0 FC     BNE $C1D7                       A:01 X:00 Y:80 P:64 SP:FD
beforeNMI = 0 and afterNMI = 0
C1D7  A5 40     LDA $40 = 01                    A:01 X:00 Y:80 P:64 SP:FD
beforeNMI = 0 and afterNMI = 0
C1D9  D0 FC     BNE $C1D7                       A:01 X:00 Y:80 P:64 SP:FD
beforeNMI = 0 and afterNMI = 0
C1D7  A5 40     LDA $40 = 01                    A:01 X:00 Y:80 P:64 SP:FD
beforeNMI = 0 and afterNMI = 0
C1D9  D0 FC     BNE $C1D7                       A:01 X:00 Y:80 P:64 SP:FD
beforeNMI = 0 and afterNMI = 0
C1D7  A5 40     LDA $40 = 01                    A:01 X:00 Y:80 P:64 SP:FD
beforeNMI = 0 and afterNMI = 0
C1D9  D0 FC     BNE $C1D7                       A:01 X:00 Y:80 P:64 SP:FD
beforeNMI = 0 and afterNMI = 0
C1D7  A5 40     LDA $40 = 01                    A:01 X:00 Y:80 P:64 SP:FD
beforeNMI = 0 and afterNMI = 0
C1D9  D0 FC     BNE $C1D7                       A:01 X:00 Y:80 P:64 SP:FD
beforeNMI = 0 and afterNMI = 0
C1D7  A5 40     LDA $40 = 01                    A:01 X:00 Y:80 P:64 SP:FD
beforeNMI = 0 and afterNMI = 0
C1D9  D0 FC     BNE $C1D7                       A:01 X:00 Y:80 P:64 SP:FD
beforeNMI = 0 and afterNMI = 0
C1D7  A5 40     LDA $40 = 01                    A:01 X:00 Y:80 P:64 SP:FD
beforeNMI = 0 and afterNMI = 0
C1D9  D0 FC     BNE $C1D7                       A:01 X:00 Y:80 P:64 SP:FD
beforeNMI = 0 and afterNMI = 0
C1D7  A5 40     LDA $40 = 01                    A:01 X:00 Y:80 P:64 SP:FD
beforeNMI = 0 and afterNMI = 0
C1D9  D0 FC     BNE $C1D7                       A:01 X:00 Y:80 P:64 SP:FD
beforeNMI = 0 and afterNMI = 0
C1D7  A5 40     LDA $40 = 01                    A:01 X:00 Y:80 P:64 SP:FD
beforeNMI = 0 and afterNMI = 0
C1D9  D0 FC     BNE $C1D7                       A:01 X:00 Y:80 P:64 SP:FD
beforeNMI = 0 and afterNMI = 0
C1D7  A5 40     LDA $40 = 01                    A:01 X:00 Y:80 P:64 SP:FD
beforeNMI = 0 and afterNMI = 0
C1D9  D0 FC     BNE $C1D7                       A:01 X:00 Y:80 P:64 SP:FD
beforeNMI = 0 and afterNMI = 0
C1D7  A5 40     LDA $40 = 01                    A:01 X:00 Y:80 P:64 SP:FD
beforeNMI = 0 and afterNMI = 0
C1D9  D0 FC     BNE $C1D7                       A:01 X:00 Y:80 P:64 SP:FD
beforeNMI = 0 and afterNMI = 0
C1D7  A5 40     LDA $40 = 01                    A:01 X:00 Y:80 P:64 SP:FD
beforeNMI = 0 and afterNMI = 0
C1D9  D0 FC     BNE $C1D7                       A:01 X:00 Y:80 P:64 SP:FD
beforeNMI = 0 and afterNMI = 0
C1D7  A5 40     LDA $40 = 01                    A:01 X:00 Y:80 P:64 SP:FD
beforeNMI = 0 and afterNMI = 0
C1D9  D0 FC     BNE $C1D7                       A:01 X:00 Y:80 P:64 SP:FD
beforeNMI = 0 and afterNMI = 0
C1D7  A5 40     LDA $40 = 01                    A:01 X:00 Y:80 P:64 SP:FD
beforeNMI = 0 and afterNMI = 0
C1D9  D0 FC     BNE $C1D7                       A:01 X:00 Y:80 P:64 SP:FD
beforeNMI = 0 and afterNMI = 0
C1D7  A5 40     LDA $40 = 01                    A:01 X:00 Y:80 P:64 SP:FD
beforeNMI = 0 and afterNMI = 0
C1D9  D0 FC     BNE $C1D7                       A:01 X:00 Y:80 P:64 SP:FD
beforeNMI = 0 and afterNMI = 0
C1D7  A5 40     LDA $40 = 01                    A:01 X:00 Y:80 P:64 SP:FD
beforeNMI = 0 and afterNMI = 0
C1D9  D0 FC     BNE $C1D7                       A:01 X:00 Y:80 P:64 SP:FD
beforeNMI = 0 and afterNMI = 0
C1D7  A5 40     LDA $40 = 01                    A:01 X:00 Y:80 P:64 SP:FD
beforeNMI = 0 and afterNMI = 0
C1D9  D0 FC     BNE $C1D7                       A:01 X:00 Y:80 P:64 SP:FD
beforeNMI = 0 and afterNMI = 0
C1D7  A5 40     LDA $40 = 01                    A:01 X:00 Y:80 P:64 SP:FD
beforeNMI = 0 and afterNMI = 0
C1D9  D0 FC     BNE $C1D7                       A:01 X:00 Y:80 P:64 SP:FD
beforeNMI = 0 and afterNMI = 0
C1D7  A5 40     LDA $40 = 01                    A:01 X:00 Y:80 P:64 SP:FD
beforeNMI = 0 and afterNMI = 0
C1D9  D0 FC     BNE $C1D7                       A:01 X:00 Y:80 P:64 SP:FD
beforeNMI = 0 and afterNMI = 0
C1D7  A5 40     LDA $40 = 01                    A:01 X:00 Y:80 P:64 SP:FD
beforeNMI = 0 and afterNMI = 0
C1D9  D0 FC     BNE $C1D7                       A:01 X:00 Y:80 P:64 SP:FD
beforeNMI = 0 and afterNMI = 0
C1D7  A5 40     LDA $40 = 01                    A:01 X:00 Y:80 P:64 SP:FD
beforeNMI = 0 and afterNMI = 0
C1D9  D0 FC     BNE $C1D7                       A:01 X:00 Y:80 P:64 SP:FD
beforeNMI = 0 and afterNMI = 0
C1D7  A5 40     LDA $40 = 01                    A:01 X:00 Y:80 P:64 SP:FD
beforeNMI = 0 and afterNMI = 0
C1D9  D0 FC     BNE $C1D7                       A:01 X:00 Y:80 P:64 SP:FD
beforeNMI = 0 and afterNMI = 0
C1D7  A5 40     LDA $40 = 01                    A:01 X:00 Y:80 P:64 SP:FD
beforeNMI = 0 and afterNMI = 0
C1D9  D0 FC     BNE $C1D7                       A:01 X:00 Y:80 P:64 SP:FD
beforeNMI = 0 and afterNMI = 0
C1D7  A5 40     LDA $40 = 01                    A:01 X:00 Y:80 P:64 SP:FD
beforeNMI = 0 and afterNMI = 0
C1D9  D0 FC     BNE $C1D7                       A:01 X:00 Y:80 P:64 SP:FD
beforeNMI = 0 and afterNMI = 0
C1D7  A5 40     LDA $40 = 01                    A:01 X:00 Y:80 P:64 SP:FD
beforeNMI = 0 and afterNMI = 0
C1D9  D0 FC     BNE $C1D7                       A:01 X:00 Y:80 P:64 SP:FD
beforeNMI = 0 and afterNMI = 0
C1D7  A5 40     LDA $40 = 01                    A:01 X:00 Y:80 P:64 SP:FD
beforeNMI = 0 and afterNMI = 0
C1D9  D0 FC     BNE $C1D7                       A:01 X:00 Y:80 P:64 SP:FD
beforeNMI = 0 and afterNMI = 0
C1D7  A5 40     LDA $40 = 01                    A:01 X:00 Y:80 P:64 SP:FD
beforeNMI = 0 and afterNMI = 0
C1D9  D0 FC     BNE $C1D7                       A:01 X:00 Y:80 P:64 SP:FD
beforeNMI = 0 and afterNMI = 0
C1D7  A5 40     LDA $40 = 01                    A:01 X:00 Y:80 P:64 SP:FD
beforeNMI = 0 and afterNMI = 0
C1D9  D0 FC     BNE $C1D7                       A:01 X:00 Y:80 P:64 SP:FD
beforeNMI = 0 and afterNMI = 0
C1D7  A5 40     LDA $40 = 01                    A:01 X:00 Y:80 P:64 SP:FD
beforeNMI = 0 and afterNMI = 0
C1D9  D0 FC     BNE $C1D7                       A:01 X:00 Y:80 P:64 SP:FD
beforeNMI = 0 and afterNMI = 0
C1D7  A5 40     LDA $40 = 01                    A:01 X:00 Y:80 P:64 SP:FD
beforeNMI = 0 and afterNMI = 0
C1D9  D0 FC     BNE $C1D7                       A:01 X:00 Y:80 P:64 SP:FD
beforeNMI = 0 and afterNMI = 0
C1D7  A5 40     LDA $40 = 01                    A:01 X:00 Y:80 P:64 SP:FD
beforeNMI = 0 and afterNMI = 0
C1D9  D0 FC     BNE $C1D7                       A:01 X:00 Y:80 P:64 SP:FD
beforeNMI = 0 and afterNMI = 0
C1D7  A5 40     LDA $40 = 01                    A:01 X:00 Y:80 P:64 SP:FD
beforeNMI = 0 and afterNMI = 0
C1D9  D0 FC     BNE $C1D7                       A:01 X:00 Y:80 P:64 SP:FD
beforeNMI = 0 and afterNMI = 0
C1D7  A5 40     LDA $40 = 01                    A:01 X:00 Y:80 P:64 SP:FD
beforeNMI = 0 and afterNMI = 0
C1D9  D0 FC     BNE $C1D7                       A:01 X:00 Y:80 P:64 SP:FD
beforeNMI = 0 and afterNMI = 0
C1D7  A5 40     LDA $40 = 01                    A:01 X:00 Y:80 P:64 SP:FD
beforeNMI = 0 and afterNMI = 0
C1D9  D0 FC     BNE $C1D7                       A:01 X:00 Y:80 P:64 SP:FD
beforeNMI = 0 and afterNMI = 0
C1D7  A5 40     LDA $40 = 01                    A:01 X:00 Y:80 P:64 SP:FD
beforeNMI = 0 and afterNMI = 0
C1D9  D0 FC     BNE $C1D7                       A:01 X:00 Y:80 P:64 SP:FD
beforeNMI = 0 and afterNMI = 0
C1D7  A5 40     LDA $40 = 01                    A:01 X:00 Y:80 P:64 SP:FD
beforeNMI = 0 and afterNMI = 0
C1D9  D0 FC     BNE $C1D7                       A:01 X:00 Y:80 P:64 SP:FD
beforeNMI = 0 and afterNMI = 0
C1D7  A5 40     LDA $40 = 01                    A:01 X:00 Y:80 P:64 SP:FD
beforeNMI = 0 and afterNMI = 0
C1D9  D0 FC     BNE $C1D7                       A:01 X:00 Y:80 P:64 SP:FD
beforeNMI = 0 and afterNMI = 0
C1D7  A5 40     LDA $40 = 01                    A:01 X:00 Y:80 P:64 SP:FD
beforeNMI = 0 and afterNMI = 0
C1D9  D0 FC     BNE $C1D7                       A:01 X:00 Y:80 P:64 SP:FD
beforeNMI = 0 and afterNMI = 0
C1D7  A5 40     LDA $40 = 01                    A:01 X:00 Y:80 P:64 SP:FD
beforeNMI = 0 and afterNMI = 0
C1D9  D0 FC     BNE $C1D7                       A:01 X:00 Y:80 P:64 SP:FD
beforeNMI = 0 and afterNMI = 0
C1D7  A5 40     LDA $40 = 01                    A:01 X:00 Y:80 P:64 SP:FD
beforeNMI = 0 and afterNMI = 0
C1D9  D0 FC     BNE $C1D7                       A:01 X:00 Y:80 P:64 SP:FD
beforeNMI = 0 and afterNMI = 0
C1D7  A5 40     LDA $40 = 01                    A:01 X:00 Y:80 P:64 SP:FD
beforeNMI = 0 and afterNMI = 0
C1D9  D0 FC     BNE $C1D7                       A:01 X:00 Y:80 P:64 SP:FD
beforeNMI = 0 and afterNMI = 0
C1D7  A5 40     LDA $40 = 01                    A:01 X:00 Y:80 P:64 SP:FD
beforeNMI = 0 and afterNMI = 0
C1D9  D0 FC     BNE $C1D7                       A:01 X:00 Y:80 P:64 SP:FD
beforeNMI = 0 and afterNMI = 0
C1D7  A5 40     LDA $40 = 01                    A:01 X:00 Y:80 P:64 SP:FD
beforeNMI = 0 and afterNMI = 0
C1D9  D0 FC     BNE $C1D7                       A:01 X:00 Y:80 P:64 SP:FD
beforeNMI = 0 and afterNMI = 0
C1D7  A5 40     LDA $40 = 01                    A:01 X:00 Y:80 P:64 SP:FD
beforeNMI = 0 and afterNMI = 0
C1D9  D0 FC     BNE $C1D7                       A:01 X:00 Y:80 P:64 SP:FD
beforeNMI = 0 and afterNMI = 0
C1D7  A5 40     LDA $40 = 01                    A:01 X:00 Y:80 P:64 SP:FD
beforeNMI = 0 and afterNMI = 0
C1D9  D0 FC     BNE $C1D7                       A:01 X:00 Y:80 P:64 SP:FD
beforeNMI = 0 and afterNMI = 0
C1D7  A5 40     LDA $40 = 01                    A:01 X:00 Y:80 P:64 SP:FD
beforeNMI = 0 and afterNMI = 0
C1D9  D0 FC     BNE $C1D7                       A:01 X:00 Y:80 P:64 SP:FD
beforeNMI = 0 and afterNMI = 0
C1D7  A5 40     LDA $40 = 01                    A:01 X:00 Y:80 P:64 SP:FD
beforeNMI = 0 and afterNMI = 0
C1D9  D0 FC     BNE $C1D7                       A:01 X:00 Y:80 P:64 SP:FD
beforeNMI = 0 and afterNMI = 0
C1D7  A5 40     LDA $40 = 01                    A:01 X:00 Y:80 P:64 SP:FD
beforeNMI = 0 and afterNMI = 0
C1D9  D0 FC     BNE $C1D7                       A:01 X:00 Y:80 P:64 SP:FD
beforeNMI = 0 and afterNMI = 0
C1D7  A5 40     LDA $40 = 01                    A:01 X:00 Y:80 P:64 SP:FD
beforeNMI = 0 and afterNMI = 0
C1D9  D0 FC     BNE $C1D7                       A:01 X:00 Y:80 P:64 SP:FD
beforeNMI = 0 and afterNMI = 0
C1D7  A5 40     LDA $40 = 01                    A:01 X:00 Y:80 P:64 SP:FD
beforeNMI = 0 and afterNMI = 0
C1D9  D0 FC     BNE $C1D7                       A:01 X:00 Y:80 P:64 SP:FD
beforeNMI = 0 and afterNMI = 0
C1D7  A5 40     LDA $40 = 01                    A:01 X:00 Y:80 P:64 SP:FD
beforeNMI = 0 and afterNMI = 0
C1D9  D0 FC     BNE $C1D7                       A:01 X:00 Y:80 P:64 SP:FD
beforeNMI = 0 and afterNMI = 0
C1D7  A5 40     LDA $40 = 01                    A:01 X:00 Y:80 P:64 SP:FD
beforeNMI = 0 and afterNMI = 0
C1D9  D0 FC     BNE $C1D7                       A:01 X:00 Y:80 P:64 SP:FD
beforeNMI = 0 and afterNMI = 0
C1D7  A5 40     LDA $40 = 01                    A:01 X:00 Y:80 P:64 SP:FD
beforeNMI = 0 and afterNMI = 0
C1D9  D0 FC     BNE $C1D7                       A:01 X:00 Y:80 P:64 SP:FD
beforeNMI = 0 and afterNMI = 0
C1D7  A5 40     LDA $40 = 01                    A:01 X:00 Y:80 P:64 SP:FD
beforeNMI = 0 and afterNMI = 0
C1D9  D0 FC     BNE $C1D7                       A:01 X:00 Y:80 P:64 SP:FD
beforeNMI = 0 and afterNMI = 0
C1D7  A5 40     LDA $40 = 01                    A:01 X:00 Y:80 P:64 SP:FD
beforeNMI = 0 and afterNMI = 0
C1D9  D0 FC     BNE $C1D7                       A:01 X:00 Y:80 P:64 SP:FD
beforeNMI = 0 and afterNMI = 0
C1D7  A5 40     LDA $40 = 01                    A:01 X:00 Y:80 P:64 SP:FD
beforeNMI = 0 and afterNMI = 0
C1D9  D0 FC     BNE $C1D7                       A:01 X:00 Y:80 P:64 SP:FD
beforeNMI = 0 and afterNMI = 0
C1D7  A5 40     LDA $40 = 01                    A:01 X:00 Y:80 P:64 SP:FD
beforeNMI = 0 and afterNMI = 0
C1D9  D0 FC     BNE $C1D7                       A:01 X:00 Y:80 P:64 SP:FD
beforeNMI = 0 and afterNMI = 0
C1D7  A5 40     LDA $40 = 01                    A:01 X:00 Y:80 P:64 SP:FD
beforeNMI = 0 and afterNMI = 0
C1D9  D0 FC     BNE $C1D7                       A:01 X:00 Y:80 P:64 SP:FD
beforeNMI = 0 and afterNMI = 0
C1D7  A5 40     LDA $40 = 01                    A:01 X:00 Y:80 P:64 SP:FD
beforeNMI = 0 and afterNMI = 0
C1D9  D0 FC     BNE $C1D7                       A:01 X:00 Y:80 P:64 SP:FD
beforeNMI = 0 and afterNMI = 0
C1D7  A5 40     LDA $40 = 01                    A:01 X:00 Y:80 P:64 SP:FD
beforeNMI = 0 and afterNMI = 0
C1D9  D0 FC     BNE $C1D7                       A:01 X:00 Y:80 P:64 SP:FD
beforeNMI = 0 and afterNMI = 0
C1D7  A5 40     LDA $40 = 01                    A:01 X:00 Y:80 P:64 SP:FD
beforeNMI = 0 and afterNMI = 0
C1D9  D0 FC     BNE $C1D7                       A:01 X:00 Y:80 P:64 SP:FD
beforeNMI = 0 and afterNMI = 0
C1D7  A5 40     LDA $40 = 01                    A:01 X:00 Y:80 P:64 SP:FD
beforeNMI = 0 and afterNMI = 0
C1D9  D0 FC     BNE $C1D7                       A:01 X:00 Y:80 P:64 SP:FD
beforeNMI = 0 and afterNMI = 0
C1D7  A5 40     LDA $40 = 01                    A:01 X:00 Y:80 P:64 SP:FD
beforeNMI = 0 and afterNMI = 0
C1D9  D0 FC     BNE $C1D7                       A:01 X:00 Y:80 P:64 SP:FD
beforeNMI = 0 and afterNMI = 0
C1D7  A5 40     LDA $40 = 01                    A:01 X:00 Y:80 P:64 SP:FD
beforeNMI = 0 and afterNMI = 0
C1D9  D0 FC     BNE $C1D7                       A:01 X:00 Y:80 P:64 SP:FD
beforeNMI = 0 and afterNMI = 0
C1D7  A5 40     LDA $40 = 01                    A:01 X:00 Y:80 P:64 SP:FD
beforeNMI = 0 and afterNMI = 0
C1D9  D0 FC     BNE $C1D7                       A:01 X:00 Y:80 P:64 SP:FD
beforeNMI = 0 and afterNMI = 0
C1D7  A5 40     LDA $40 = 01                    A:01 X:00 Y:80 P:64 SP:FD
beforeNMI = 0 and afterNMI = 0
C1D9  D0 FC     BNE $C1D7                       A:01 X:00 Y:80 P:64 SP:FD
beforeNMI = 0 and afterNMI = 0
C1D7  A5 40     LDA $40 = 01                    A:01 X:00 Y:80 P:64 SP:FD
beforeNMI = 0 and afterNMI = 0
C1D9  D0 FC     BNE $C1D7                       A:01 X:00 Y:80 P:64 SP:FD
beforeNMI = 0 and afterNMI = 0
C1D7  A5 40     LDA $40 = 01                    A:01 X:00 Y:80 P:64 SP:FD
beforeNMI = 0 and afterNMI = 0
C1D9  D0 FC     BNE $C1D7                       A:01 X:00 Y:80 P:64 SP:FD
beforeNMI = 0 and afterNMI = 0
C1D7  A5 40     LDA $40 = 01                    A:01 X:00 Y:80 P:64 SP:FD
beforeNMI = 0 and afterNMI = 0
C1D9  D0 FC     BNE $C1D7                       A:01 X:00 Y:80 P:64 SP:FD
beforeNMI = 0 and afterNMI = 0
C1D7  A5 40     LDA $40 = 01                    A:01 X:00 Y:80 P:64 SP:FD
beforeNMI = 0 and afterNMI = 0
C1D9  D0 FC     BNE $C1D7                       A:01 X:00 Y:80 P:64 SP:FD
beforeNMI = 0 and afterNMI = 0
C1D7  A5 40     LDA $40 = 01                    A:01 X:00 Y:80 P:64 SP:FD
beforeNMI = 0 and afterNMI = 0
C1D9  D0 FC     BNE $C1D7                       A:01 X:00 Y:80 P:64 SP:FD
beforeNMI = 0 and afterNMI = 0
C1D7  A5 40     LDA $40 = 01                    A:01 X:00 Y:80 P:64 SP:FD
beforeNMI = 0 and afterNMI = 0
C1D9  D0 FC     BNE $C1D7                       A:01 X:00 Y:80 P:64 SP:FD
beforeNMI = 0 and afterNMI = 0
C1D7  A5 40     LDA $40 = 01                    A:01 X:00 Y:80 P:64 SP:FD
beforeNMI = 0 and afterNMI = 0
C1D9  D0 FC     BNE $C1D7                       A:01 X:00 Y:80 P:64 SP:FD
beforeNMI = 0 and afterNMI = 0
C1D7  A5 40     LDA $40 = 01                    A:01 X:00 Y:80 P:64 SP:FD
beforeNMI = 0 and afterNMI = 0
C1D9  D0 FC     BNE $C1D7                       A:01 X:00 Y:80 P:64 SP:FD
beforeNMI = 0 and afterNMI = 0
C1D7  A5 40     LDA $40 = 01                    A:01 X:00 Y:80 P:64 SP:FD
beforeNMI = 0 and afterNMI = 0
C1D9  D0 FC     BNE $C1D7                       A:01 X:00 Y:80 P:64 SP:FD
beforeNMI = 0 and afterNMI = 0
C1D7  A5 40     LDA $40 = 01                    A:01 X:00 Y:80 P:64 SP:FD
beforeNMI = 0 and afterNMI = 0
C1D9  D0 FC     BNE $C1D7                       A:01 X:00 Y:80 P:64 SP:FD
beforeNMI = 0 and afterNMI = 0
C1D7  A5 40     LDA $40 = 01                    A:01 X:00 Y:80 P:64 SP:FD
beforeNMI = 0 and afterNMI = 0
C1D9  D0 FC     BNE $C1D7                       A:01 X:00 Y:80 P:64 SP:FD
beforeNMI = 0 and afterNMI = 0
C1D7  A5 40     LDA $40 = 01                    A:01 X:00 Y:80 P:64 SP:FD
beforeNMI = 0 and afterNMI = 0
C1D9  D0 FC     BNE $C1D7                       A:01 X:00 Y:80 P:64 SP:FD
beforeNMI = 0 and afterNMI = 0
C1D7  A5 40     LDA $40 = 01                    A:01 X:00 Y:80 P:64 SP:FD
beforeNMI = 0 and afterNMI = 0
C1D9  D0 FC     BNE $C1D7                       A:01 X:00 Y:80 P:64 SP:FD
beforeNMI = 0 and afterNMI = 0
C1D7  A5 40     LDA $40 = 01                    A:01 X:00 Y:80 P:64 SP:FD
beforeNMI = 0 and afterNMI = 0
C1D9  D0 FC     BNE $C1D7                       A:01 X:00 Y:80 P:64 SP:FD
beforeNMI = 0 and afterNMI = 0
C1D7  A5 40     LDA $40 = 01                    A:01 X:00 Y:80 P:64 SP:FD
beforeNMI = 0 and afterNMI = 0
C1D9  D0 FC     BNE $C1D7                       A:01 X:00 Y:80 P:64 SP:FD
beforeNMI = 0 and afterNMI = 0
C1D7  A5 40     LDA $40 = 01                    A:01 X:00 Y:80 P:64 SP:FD
beforeNMI = 0 and afterNMI = 0
C1D9  D0 FC     BNE $C1D7                       A:01 X:00 Y:80 P:64 SP:FD
beforeNMI = 0 and afterNMI = 0
C1D7  A5 40     LDA $40 = 01                    A:01 X:00 Y:80 P:64 SP:FD
beforeNMI = 0 and afterNMI = 0
C1D9  D0 FC     BNE $C1D7                       A:01 X:00 Y:80 P:64 SP:FD
beforeNMI = 0 and afterNMI = 0
C1D7  A5 40     LDA $40 = 01                    A:01 X:00 Y:80 P:64 SP:FD
beforeNMI = 0 and afterNMI = 0
C1D9  D0 FC     BNE $C1D7                       A:01 X:00 Y:80 P:64 SP:FD
beforeNMI = 0 and afterNMI = 0
C1D7  A5 40     LDA $40 = 01                    A:01 X:00 Y:80 P:64 SP:FD
beforeNMI = 0 and afterNMI = 0
C1D9  D0 FC     BNE $C1D7                       A:01 X:00 Y:80 P:64 SP:FD
beforeNMI = 0 and afterNMI = 0
C1D7  A5 40     LDA $40 = 01                    A:01 X:00 Y:80 P:64 SP:FD
beforeNMI = 0 and afterNMI = 0
C1D9  D0 FC     BNE $C1D7                       A:01 X:00 Y:80 P:64 SP:FD
beforeNMI = 0 and afterNMI = 0
C1D7  A5 40     LDA $40 = 01                    A:01 X:00 Y:80 P:64 SP:FD
beforeNMI = 0 and afterNMI = 0
C1D9  D0 FC     BNE $C1D7                       A:01 X:00 Y:80 P:64 SP:FD
beforeNMI = 0 and afterNMI = 0
C1D7  A5 40     LDA $40 = 01                    A:01 X:00 Y:80 P:64 SP:FD
beforeNMI = 0 and afterNMI = 0
C1D9  D0 FC     BNE $C1D7                       A:01 X:00 Y:80 P:64 SP:FD
beforeNMI = 0 and afterNMI = 0
C1D7  A5 40     LDA $40 = 01                    A:01 X:00 Y:80 P:64 SP:FD
beforeNMI = 0 and afterNMI = 0
C1D9  D0 FC     BNE $C1D7                       A:01 X:00 Y:80 P:64 SP:FD
beforeNMI = 0 and afterNMI = 0
C1D7  A5 40     LDA $40 = 01                    A:01 X:00 Y:80 P:64 SP:FD
beforeNMI = 0 and afterNMI = 0
C1D9  D0 FC     BNE $C1D7                       A:01 X:00 Y:80 P:64 SP:FD
beforeNMI = 0 and afterNMI = 0
C1D7  A5 40     LDA $40 = 01                    A:01 X:00 Y:80 P:64 SP:FD
beforeNMI = 0 and afterNMI = 0
C1D9  D0 FC     BNE $C1D7                       A:01 X:00 Y:80 P:64 SP:FD
beforeNMI = 0 and afterNMI = 0
C1D7  A5 40     LDA $40 = 01                    A:01 X:00 Y:80 P:64 SP:FD
beforeNMI = 0 and afterNMI = 0
C1D9  D0 FC     BNE $C1D7                       A:01 X:00 Y:80 P:64 SP:FD
beforeNMI = 0 and afterNMI = 0
C1D7  A5 40     LDA $40 = 01                    A:01 X:00 Y:80 P:64 SP:FD
beforeNMI = 0 and afterNMI = 0
C1D9  D0 FC     BNE $C1D7                       A:01 X:00 Y:80 P:64 SP:FD
beforeNMI = 0 and afterNMI = 0
C1D7  A5 40     LDA $40 = 01                    A:01 X:00 Y:80 P:64 SP:FD
beforeNMI = 0 and afterNMI = 0
C1D9  D0 FC     BNE $C1D7                       A:01 X:00 Y:80 P:64 SP:FD
beforeNMI = 0 and afterNMI = 0
C1D7  A5 40     LDA $40 = 01                    A:01 X:00 Y:80 P:64 SP:FD
beforeNMI = 0 and afterNMI = 0
C1D9  D0 FC     BNE $C1D7                       A:01 X:00 Y:80 P:64 SP:FD
beforeNMI = 0 and afterNMI = 0
C1D7  A5 40     LDA $40 = 01                    A:01 X:00 Y:80 P:64 SP:FD
beforeNMI = 0 and afterNMI = 0
C1D9  D0 FC     BNE $C1D7                       A:01 X:00 Y:80 P:64 SP:FD
beforeNMI = 0 and afterNMI = 0
C1D7  A5 40     LDA $40 = 01                    A:01 X:00 Y:80 P:64 SP:FD
beforeNMI = 0 and afterNMI = 0
C1D9  D0 FC     BNE $C1D7                       A:01 X:00 Y:80 P:64 SP:FD
beforeNMI = 0 and afterNMI = 0
C1D7  A5 40     LDA $40 = 01                    A:01 X:00 Y:80 P:64 SP:FD
beforeNMI = 0 and afterNMI = 0
C1D9  D0 FC     BNE $C1D7                       A:01 X:00 Y:80 P:64 SP:FD
beforeNMI = 0 and afterNMI = 0
C1D7  A5 40     LDA $40 = 01                    A:01 X:00 Y:80 P:64 SP:FD
beforeNMI = 0 and afterNMI = 0
C1D9  D0 FC     BNE $C1D7                       A:01 X:00 Y:80 P:64 SP:FD
beforeNMI = 0 and afterNMI = 0
C1D7  A5 40     LDA $40 = 01                    A:01 X:00 Y:80 P:64 SP:FD
beforeNMI = 0 and afterNMI = 0
C1D9  D0 FC     BNE $C1D7                       A:01 X:00 Y:80 P:64 SP:FD
beforeNMI = 0 and afterNMI = 0
C1D7  A5 40     LDA $40 = 01                    A:01 X:00 Y:80 P:64 SP:FD
beforeNMI = 0 and afterNMI = 0
C1D9  D0 FC     BNE $C1D7                       A:01 X:00 Y:80 P:64 SP:FD
beforeNMI = 0 and afterNMI = 0
C1D7  A5 40     LDA $40 = 01                    A:01 X:00 Y:80 P:64 SP:FD
beforeNMI = 0 and afterNMI = 0
C1D9  D0 FC     BNE $C1D7                       A:01 X:00 Y:80 P:64 SP:FD
beforeNMI = 0 and afterNMI = 0
C1D7  A5 40     LDA $40 = 01                    A:01 X:00 Y:80 P:64 SP:FD
beforeNMI = 0 and afterNMI = 0
C1D9  D0 FC     BNE $C1D7                       A:01 X:00 Y:80 P:64 SP:FD
beforeNMI = 0 and afterNMI = 0
C1D7  A5 40     LDA $40 = 01                    A:01 X:00 Y:80 P:64 SP:FD
beforeNMI = 0 and afterNMI = 0
C1D9  D0 FC     BNE $C1D7                       A:01 X:00 Y:80 P:64 SP:FD
beforeNMI = 0 and afterNMI = 0
C1D7  A5 40     LDA $40 = 01                    A:01 X:00 Y:80 P:64 SP:FD
beforeNMI = 0 and afterNMI = 0
C1D9  D0 FC     BNE $C1D7                       A:01 X:00 Y:80 P:64 SP:FD
beforeNMI = 0 and afterNMI = 0
C1D7  A5 40     LDA $40 = 01                    A:01 X:00 Y:80 P:64 SP:FD
beforeNMI = 0 and afterNMI = 0
C1D9  D0 FC     BNE $C1D7                       A:01 X:00 Y:80 P:64 SP:FD
beforeNMI = 0 and afterNMI = 0
C1D7  A5 40     LDA $40 = 01                    A:01 X:00 Y:80 P:64 SP:FD
beforeNMI = 0 and afterNMI = 0
C1D9  D0 FC     BNE $C1D7                       A:01 X:00 Y:80 P:64 SP:FD
beforeNMI = 0 and afterNMI = 0
C1D7  A5 40     LDA $40 = 01                    A:01 X:00 Y:80 P:64 SP:FD
beforeNMI = 0 and afterNMI = 0
C1D9  D0 FC     BNE $C1D7                       A:01 X:00 Y:80 P:64 SP:FD
beforeNMI = 0 and afterNMI = 0
C1D7  A5 40     LDA $40 = 01                    A:01 X:00 Y:80 P:64 SP:FD
beforeNMI = 0 and afterNMI = 0
C1D9  D0 FC     BNE $C1D7                       A:01 X:00 Y:80 P:64 SP:FD
beforeNMI = 0 and afterNMI = 0
C1D7  A5 40     LDA $40 = 01                    A:01 X:00 Y:80 P:64 SP:FD
beforeNMI = 0 and afterNMI = 0
C1D9  D0 FC     BNE $C1D7                       A:01 X:00 Y:80 P:64 SP:FD
beforeNMI = 0 and afterNMI = 0
C1D7  A5 40     LDA $40 = 01                    A:01 X:00 Y:80 P:64 SP:FD
beforeNMI = 0 and afterNMI = 0
C1D9  D0 FC     BNE $C1D7                       A:01 X:00 Y:80 P:64 SP:FD
beforeNMI = 0 and afterNMI = 0
C1D7  A5 40     LDA $40 = 01                    A:01 X:00 Y:80 P:64 SP:FD
beforeNMI = 0 and afterNMI = 0
C1D9  D0 FC     BNE $C1D7                       A:01 X:00 Y:80 P:64 SP:FD
beforeNMI = 0 and afterNMI = 0
C1D7  A5 40     LDA $40 = 01                    A:01 X:00 Y:80 P:64 SP:FD
beforeNMI = 0 and afterNMI = 0
C1D9  D0 FC     BNE $C1D7                       A:01 X:00 Y:80 P:64 SP:FD
beforeNMI = 0 and afterNMI = 0
C1D7  A5 40     LDA $40 = 01                    A:01 X:00 Y:80 P:64 SP:FD
beforeNMI = 0 and afterNMI = 0
C1D9  D0 FC     BNE $C1D7                       A:01 X:00 Y:80 P:64 SP:FD
beforeNMI = 0 and afterNMI = 0
C1D7  A5 40     LDA $40 = 01                    A:01 X:00 Y:80 P:64 SP:FD
beforeNMI = 0 and afterNMI = 0
C1D9  D0 FC     BNE $C1D7                       A:01 X:00 Y:80 P:64 SP:FD
beforeNMI = 0 and afterNMI = 0
C1D7  A5 40     LDA $40 = 01                    A:01 X:00 Y:80 P:64 SP:FD
beforeNMI = 0 and afterNMI = 0
C1D9  D0 FC     BNE $C1D7                       A:01 X:00 Y:80 P:64 SP:FD
beforeNMI = 0 and afterNMI = 0
C1D7  A5 40     LDA $40 = 01                    A:01 X:00 Y:80 P:64 SP:FD
beforeNMI = 0 and afterNMI = 0
C1D9  D0 FC     BNE $C1D7                       A:01 X:00 Y:80 P:64 SP:FD
beforeNMI = 0 and afterNMI = 0
C1D7  A5 40     LDA $40 = 01                    A:01 X:00 Y:80 P:64 SP:FD
beforeNMI = 0 and afterNMI = 0
C1D9  D0 FC     BNE $C1D7                       A:01 X:00 Y:80 P:64 SP:FD
beforeNMI = 0 and afterNMI = 0
C1D7  A5 40     LDA $40 = 01                    A:01 X:00 Y:80 P:64 SP:FD
beforeNMI = 0 and afterNMI = 0
C1D9  D0 FC     BNE $C1D7                       A:01 X:00 Y:80 P:64 SP:FD
beforeNMI = 0 and afterNMI = 0
C1D7  A5 40     LDA $40 = 01                    A:01 X:00 Y:80 P:64 SP:FD
beforeNMI = 0 and afterNMI = 0
C1D9  D0 FC     BNE $C1D7                       A:01 X:00 Y:80 P:64 SP:FD
beforeNMI = 0 and afterNMI = 0
C1D7  A5 40     LDA $40 = 01                    A:01 X:00 Y:80 P:64 SP:FD
beforeNMI = 0 and afterNMI = 0
C1D9  D0 FC     BNE $C1D7                       A:01 X:00 Y:80 P:64 SP:FD
beforeNMI = 0 and afterNMI = 0
C1D7  A5 40     LDA $40 = 01                    A:01 X:00 Y:80 P:64 SP:FD
beforeNMI = 0 and afterNMI = 0
C1D9  D0 FC     BNE $C1D7                       A:01 X:00 Y:80 P:64 SP:FD
beforeNMI = 0 and afterNMI = 0
C1D7  A5 40     LDA $40 = 01                    A:01 X:00 Y:80 P:64 SP:FD
beforeNMI = 0 and afterNMI = 0
C1D9  D0 FC     BNE $C1D7                       A:01 X:00 Y:80 P:64 SP:FD
beforeNMI = 0 and afterNMI = 0
C1D7  A5 40     LDA $40 = 01                    A:01 X:00 Y:80 P:64 SP:FD
beforeNMI = 0 and afterNMI = 0
C1D9  D0 FC     BNE $C1D7                       A:01 X:00 Y:80 P:64 SP:FD
beforeNMI = 0 and afterNMI = 0
C1D7  A5 40     LDA $40 = 01                    A:01 X:00 Y:80 P:64 SP:FD
beforeNMI = 0 and afterNMI = 0
C1D9  D0 FC     BNE $C1D7                       A:01 X:00 Y:80 P:64 SP:FD
beforeNMI = 0 and afterNMI = 0
C1D7  A5 40     LDA $40 = 01                    A:01 X:00 Y:80 P:64 SP:FD
beforeNMI = 0 and afterNMI = 0
C1D9  D0 FC     BNE $C1D7                       A:01 X:00 Y:80 P:64 SP:FD
beforeNMI = 0 and afterNMI = 0
C1D7  A5 40     LDA $40 = 01                    A:01 X:00 Y:80 P:64 SP:FD
beforeNMI = 0 and afterNMI = 0
C1D9  D0 FC     BNE $C1D7                       A:01 X:00 Y:80 P:64 SP:FD
beforeNMI = 0 and afterNMI = 0
C1D7  A5 40     LDA $40 = 01                    A:01 X:00 Y:80 P:64 SP:FD
beforeNMI = 0 and afterNMI = 0
C1D9  D0 FC     BNE $C1D7                       A:01 X:00 Y:80 P:64 SP:FD
beforeNMI = 0 and afterNMI = 0
C1D7  A5 40     LDA $40 = 01                    A:01 X:00 Y:80 P:64 SP:FD
beforeNMI = 0 and afterNMI = 0
C1D9  D0 FC     BNE $C1D7                       A:01 X:00 Y:80 P:64 SP:FD
beforeNMI = 0 and afterNMI = 0
C1D7  A5 40     LDA $40 = 01                    A:01 X:00 Y:80 P:64 SP:FD
beforeNMI = 0 and afterNMI = 0
C1D9  D0 FC     BNE $C1D7                       A:01 X:00 Y:80 P:64 SP:FD
beforeNMI = 0 and afterNMI = 0
C1D7  A5 40     LDA $40 = 01                    A:01 X:00 Y:80 P:64 SP:FD
beforeNMI = 0 and afterNMI = 0
C1D9  D0 FC     BNE $C1D7                       A:01 X:00 Y:80 P:64 SP:FD
beforeNMI = 0 and afterNMI = 0
C1D7  A5 40     LDA $40 = 01                    A:01 X:00 Y:80 P:64 SP:FD
beforeNMI = 0 and afterNMI = 0
C1D9  D0 FC     BNE $C1D7                       A:01 X:00 Y:80 P:64 SP:FD
beforeNMI = 0 and afterNMI = 0
C1D7  A5 40     LDA $40 = 01                    A:01 X:00 Y:80 P:64 SP:FD
beforeNMI = 0 and afterNMI = 0
C1D9  D0 FC     BNE $C1D7                       A:01 X:00 Y:80 P:64 SP:FD
beforeNMI = 0 and afterNMI = 0
C1D7  A5 40     LDA $40 = 01                    A:01 X:00 Y:80 P:64 SP:FD
beforeNMI = 0 and afterNMI = 0
C1D9  D0 FC     BNE $C1D7                       A:01 X:00 Y:80 P:64 SP:FD
beforeNMI = 0 and afterNMI = 0
C1D7  A5 40     LDA $40 = 01                    A:01 X:00 Y:80 P:64 SP:FD
beforeNMI = 0 and afterNMI = 0
C1D9  D0 FC     BNE $C1D7                       A:01 X:00 Y:80 P:64 SP:FD
beforeNMI = 0 and afterNMI = 0
C1D7  A5 40     LDA $40 = 01                    A:01 X:00 Y:80 P:64 SP:FD
beforeNMI = 0 and afterNMI = 0
C1D9  D0 FC     BNE $C1D7                       A:01 X:00 Y:80 P:64 SP:FD
beforeNMI = 0 and afterNMI = 0
C1D7  A5 40     LDA $40 = 01                    A:01 X:00 Y:80 P:64 SP:FD
beforeNMI = 0 and afterNMI = 0
C1D9  D0 FC     BNE $C1D7                       A:01 X:00 Y:80 P:64 SP:FD
beforeNMI = 0 and afterNMI = 0
C1D7  A5 40     LDA $40 = 01                    A:01 X:00 Y:80 P:64 SP:FD
beforeNMI = 0 and afterNMI = 0
C1D9  D0 FC     BNE $C1D7                       A:01 X:00 Y:80 P:64 SP:FD
beforeNMI = 0 and afterNMI = 0
C1D7  A5 40     LDA $40 = 01                    A:01 X:00 Y:80 P:64 SP:FD
beforeNMI = 0 and afterNMI = 0
C1D9  D0 FC     BNE $C1D7                       A:01 X:00 Y:80 P:64 SP:FD
beforeNMI = 0 and afterNMI = 0
C1D7  A5 40     LDA $40 = 01                    A:01 X:00 Y:80 P:64 SP:FD
beforeNMI = 0 and afterNMI = 0
C1D9  D0 FC     BNE $C1D7                       A:01 X:00 Y:80 P:64 SP:FD
beforeNMI = 0 and afterNMI = 0
C1D7  A5 40     LDA $40 = 01                    A:01 X:00 Y:80 P:64 SP:FD
beforeNMI = 0 and afterNMI = 0
C1D9  D0 FC     BNE $C1D7                       A:01 X:00 Y:80 P:64 SP:FD
beforeNMI = 0 and afterNMI = 0
C1D7  A5 40     LDA $40 = 01                    A:01 X:00 Y:80 P:64 SP:FD
beforeNMI = 0 and afterNMI = 0
C1D9  D0 FC     BNE $C1D7                       A:01 X:00 Y:80 P:64 SP:FD
beforeNMI = 0 and afterNMI = 0
C1D7  A5 40     LDA $40 = 01                    A:01 X:00 Y:80 P:64 SP:FD
beforeNMI = 0 and afterNMI = 0
C1D9  D0 FC     BNE $C1D7                       A:01 X:00 Y:80 P:64 SP:FD
beforeNMI = 0 and afterNMI = 0
C1D7  A5 40     LDA $40 = 01                    A:01 X:00 Y:80 P:64 SP:FD
beforeNMI = 0 and afterNMI = 0
C1D9  D0 FC     BNE $C1D7                       A:01 X:00 Y:80 P:64 SP:FD
beforeNMI = 0 and afterNMI = 0
C1D7  A5 40     LDA $40 = 01                    A:01 X:00 Y:80 P:64 SP:FD
beforeNMI = 0 and afterNMI = 0
C1D9  D0 FC     BNE $C1D7                       A:01 X:00 Y:80 P:64 SP:FD
beforeNMI = 0 and afterNMI = 0
C1D7  A5 40     LDA $40 = 01                    A:01 X:00 Y:80 P:64 SP:FD
beforeNMI = 0 and afterNMI = 0
C1D9  D0 FC     BNE $C1D7                       A:01 X:00 Y:80 P:64 SP:FD
beforeNMI = 0 and afterNMI = 0
C1D7  A5 40     LDA $40 = 01                    A:01 X:00 Y:80 P:64 SP:FD
beforeNMI = 0 and afterNMI = 0
C1D9  D0 FC     BNE $C1D7                       A:01 X:00 Y:80 P:64 SP:FD
beforeNMI = 0 and afterNMI = 0
C1D7  A5 40     LDA $40 = 01                    A:01 X:00 Y:80 P:64 SP:FD
beforeNMI = 0 and afterNMI = 0
C1D9  D0 FC     BNE $C1D7                       A:01 X:00 Y:80 P:64 SP:FD
beforeNMI = 0 and afterNMI = 0
C1D7  A5 40     LDA $40 = 01                    A:01 X:00 Y:80 P:64 SP:FD
beforeNMI = 0 and afterNMI = 0
C1D9  D0 FC     BNE $C1D7                       A:01 X:00 Y:80 P:64 SP:FD
beforeNMI = 0 and afterNMI = 0
C1D7  A5 40     LDA $40 = 01                    A:01 X:00 Y:80 P:64 SP:FD
beforeNMI = 0 and afterNMI = 0
C1D9  D0 FC     BNE $C1D7                       A:01 X:00 Y:80 P:64 SP:FD
beforeNMI = 0 and afterNMI = 0
C1D7  A5 40     LDA $40 = 01                    A:01 X:00 Y:80 P:64 SP:FD
beforeNMI = 0 and afterNMI = 0
C1D9  D0 FC     BNE $C1D7                       A:01 X:00 Y:80 P:64 SP:FD
beforeNMI = 0 and afterNMI = 0
C1D7  A5 40     LDA $40 = 01                    A:01 X:00 Y:80 P:64 SP:FD
beforeNMI = 0 and afterNMI = 0
C1D9  D0 FC     BNE $C1D7                       A:01 X:00 Y:80 P:64 SP:FD
beforeNMI = 0 and afterNMI = 0
C1D7  A5 40     LDA $40 = 01                    A:01 X:00 Y:80 P:64 SP:FD
beforeNMI = 0 and afterNMI = 0
C1D9  D0 FC     BNE $C1D7                       A:01 X:00 Y:80 P:64 SP:FD
beforeNMI = 0 and afterNMI = 0
C1D7  A5 40     LDA $40 = 01                    A:01 X:00 Y:80 P:64 SP:FD
beforeNMI = 0 and afterNMI = 0
C1D9  D0 FC     BNE $C1D7                       A:01 X:00 Y:80 P:64 SP:FD
beforeNMI = 0 and afterNMI = 0
C1D7  A5 40     LDA $40 = 01                    A:01 X:00 Y:80 P:64 SP:FD
beforeNMI = 0 and afterNMI = 0
C1D9  D0 FC     BNE $C1D7                       A:01 X:00 Y:80 P:64 SP:FD
beforeNMI = 0 and afterNMI = 0
C1D7  A5 40     LDA $40 = 01                    A:01 X:00 Y:80 P:64 SP:FD
beforeNMI = 0 and afterNMI = 0
C1D9  D0 FC     BNE $C1D7                       A:01 X:00 Y:80 P:64 SP:FD
beforeNMI = 0 and afterNMI = 0
C1D7  A5 40     LDA $40 = 01                    A:01 X:00 Y:80 P:64 SP:FD
beforeNMI = 0 and afterNMI = 0
C1D9  D0 FC     BNE $C1D7                       A:01 X:00 Y:80 P:64 SP:FD
beforeNMI = 0 and afterNMI = 0
C1D7  A5 40     LDA $40 = 01                    A:01 X:00 Y:80 P:64 SP:FD
beforeNMI = 0 and afterNMI = 0
C1D9  D0 FC     BNE $C1D7                       A:01 X:00 Y:80 P:64 SP:FD
beforeNMI = 0 and afterNMI = 0
C1D7  A5 40     LDA $40 = 01                    A:01 X:00 Y:80 P:64 SP:FD
beforeNMI = 0 and afterNMI = 0
C1D9  D0 FC     BNE $C1D7                       A:01 X:00 Y:80 P:64 SP:FD
beforeNMI = 0 and afterNMI = 0
C1D7  A5 40     LDA $40 = 01                    A:01 X:00 Y:80 P:64 SP:FD
beforeNMI = 0 and afterNMI = 0
C1D9  D0 FC     BNE $C1D7                       A:01 X:00 Y:80 P:64 SP:FD
beforeNMI = 0 and afterNMI = 0
C1D7  A5 40     LDA $40 = 01                    A:01 X:00 Y:80 P:64 SP:FD
beforeNMI = 0 and afterNMI = 0
C1D9  D0 FC     BNE $C1D7                       A:01 X:00 Y:80 P:64 SP:FD
beforeNMI = 0 and afterNMI = 0
C1D7  A5 40     LDA $40 = 01                    A:01 X:00 Y:80 P:64 SP:FD
beforeNMI = 0 and afterNMI = 0
C1D9  D0 FC     BNE $C1D7                       A:01 X:00 Y:80 P:64 SP:FD
beforeNMI = 0 and afterNMI = 0
C1D7  A5 40     LDA $40 = 01                    A:01 X:00 Y:80 P:64 SP:FD
beforeNMI = 0 and afterNMI = 0
C1D9  D0 FC     BNE $C1D7                       A:01 X:00 Y:80 P:64 SP:FD
beforeNMI = 0 and afterNMI = 0
C1D7  A5 40     LDA $40 = 01                    A:01 X:00 Y:80 P:64 SP:FD
beforeNMI = 0 and afterNMI = 0
C1D9  D0 FC     BNE $C1D7                       A:01 X:00 Y:80 P:64 SP:FD
beforeNMI = 0 and afterNMI = 0
C1D7  A5 40     LDA $40 = 01                    A:01 X:00 Y:80 P:64 SP:FD
beforeNMI = 0 and afterNMI = 0
C1D9  D0 FC     BNE $C1D7                       A:01 X:00 Y:80 P:64 SP:FD
beforeNMI = 0 and afterNMI = 0
C1D7  A5 40     LDA $40 = 01                    A:01 X:00 Y:80 P:64 SP:FD
beforeNMI = 0 and afterNMI = 0
C1D9  D0 FC     BNE $C1D7                       A:01 X:00 Y:80 P:64 SP:FD
beforeNMI = 0 and afterNMI = 0
C1D7  A5 40     LDA $40 = 01                    A:01 X:00 Y:80 P:64 SP:FD
beforeNMI = 0 and afterNMI = 0
C1D9  D0 FC     BNE $C1D7                       A:01 X:00 Y:80 P:64 SP:FD
beforeNMI = 0 and afterNMI = 0
C1D7  A5 40     LDA $40 = 01                    A:01 X:00 Y:80 P:64 SP:FD
beforeNMI = 0 and afterNMI = 0
C1D9  D0 FC     BNE $C1D7                       A:01 X:00 Y:80 P:64 SP:FD
beforeNMI = 0 and afterNMI = 0
C1D7  A5 40     LDA $40 = 01                    A:01 X:00 Y:80 P:64 SP:FD
beforeNMI = 0 and afterNMI = 0
C1D9  D0 FC     BNE $C1D7                       A:01 X:00 Y:80 P:64 SP:FD
beforeNMI = 0 and afterNMI = 0
C1D7  A5 40     LDA $40 = 01                    A:01 X:00 Y:80 P:64 SP:FD
beforeNMI = 0 and afterNMI = 0
C1D9  D0 FC     BNE $C1D7                       A:01 X:00 Y:80 P:64 SP:FD
beforeNMI = 0 and afterNMI = 0
C1D7  A5 40     LDA $40 = 01                    A:01 X:00 Y:80 P:64 SP:FD
beforeNMI = 0 and afterNMI = 0
C1D9  D0 FC     BNE $C1D7                       A:01 X:00 Y:80 P:64 SP:FD
beforeNMI = 0 and afterNMI = 0
C1D7  A5 40     LDA $40 = 01                    A:01 X:00 Y:80 P:64 SP:FD
beforeNMI = 0 and afterNMI = 0
C1D9  D0 FC     BNE $C1D7                       A:01 X:00 Y:80 P:64 SP:FD
beforeNMI = 0 and afterNMI = 0
C1D7  A5 40     LDA $40 = 01                    A:01 X:00 Y:80 P:64 SP:FD
beforeNMI = 0 and afterNMI = 0
C1D9  D0 FC     BNE $C1D7                       A:01 X:00 Y:80 P:64 SP:FD
beforeNMI = 0 and afterNMI = 0
C1D7  A5 40     LDA $40 = 01                    A:01 X:00 Y:80 P:64 SP:FD
beforeNMI = 0 and afterNMI = 0
C1D9  D0 FC     BNE $C1D7                       A:01 X:00 Y:80 P:64 SP:FD
beforeNMI = 0 and afterNMI = 0
C1D7  A5 40     LDA $40 = 01                    A:01 X:00 Y:80 P:64 SP:FD
beforeNMI = 0 and afterNMI = 0
C1D9  D0 FC     BNE $C1D7                       A:01 X:00 Y:80 P:64 SP:FD
beforeNMI = 0 and afterNMI = 0
C1D7  A5 40     LDA $40 = 01                    A:01 X:00 Y:80 P:64 SP:FD
beforeNMI = 0 and afterNMI = 0
C1D9  D0 FC     BNE $C1D7                       A:01 X:00 Y:80 P:64 SP:FD
beforeNMI = 0 and afterNMI = 0
C1D7  A5 40     LDA $40 = 01                    A:01 X:00 Y:80 P:64 SP:FD
beforeNMI = 0 and afterNMI = 0
C1D9  D0 FC     BNE $C1D7                       A:01 X:00 Y:80 P:64 SP:FD
beforeNMI = 0 and afterNMI = 0
C1D7  A5 40     LDA $40 = 01                    A:01 X:00 Y:80 P:64 SP:FD
beforeNMI = 0 and afterNMI = 0
C1D9  D0 FC     BNE $C1D7                       A:01 X:00 Y:80 P:64 SP:FD
beforeNMI = 0 and afterNMI = 0
C1D7  A5 40     LDA $40 = 01                    A:01 X:00 Y:80 P:64 SP:FD
beforeNMI = 0 and afterNMI = 0
C1D9  D0 FC     BNE $C1D7                       A:01 X:00 Y:80 P:64 SP:FD
beforeNMI = 0 and afterNMI = 0
C1D7  A5 40     LDA $40 = 01                    A:01 X:00 Y:80 P:64 SP:FD
beforeNMI = 0 and afterNMI = 0
C1D9  D0 FC     BNE $C1D7                       A:01 X:00 Y:80 P:64 SP:FD
beforeNMI = 0 and afterNMI = 0
C1D7  A5 40     LDA $40 = 01                    A:01 X:00 Y:80 P:64 SP:FD
beforeNMI = 0 and afterNMI = 0
C1D9  D0 FC     BNE $C1D7                       A:01 X:00 Y:80 P:64 SP:FD
beforeNMI = 0 and afterNMI = 0
C1D7  A5 40     LDA $40 = 01                    A:01 X:00 Y:80 P:64 SP:FD
beforeNMI = 0 and afterNMI = 0
C1D9  D0 FC     BNE $C1D7                       A:01 X:00 Y:80 P:64 SP:FD
beforeNMI = 0 and afterNMI = 0
C1D7  A5 40     LDA $40 = 01                    A:01 X:00 Y:80 P:64 SP:FD
beforeNMI = 0 and afterNMI = 0
C1D9  D0 FC     BNE $C1D7                       A:01 X:00 Y:80 P:64 SP:FD
beforeNMI = 0 and afterNMI = 0
C1D7  A5 40     LDA $40 = 01                    A:01 X:00 Y:80 P:64 SP:FD
beforeNMI = 0 and afterNMI = 0
C1D9  D0 FC     BNE $C1D7                       A:01 X:00 Y:80 P:64 SP:FD
beforeNMI = 0 and afterNMI = 0
C1D7  A5 40     LDA $40 = 01                    A:01 X:00 Y:80 P:64 SP:FD
beforeNMI = 0 and afterNMI = 0
C1D9  D0 FC     BNE $C1D7                       A:01 X:00 Y:80 P:64 SP:FD
beforeNMI = 0 and afterNMI = 0
C1D7  A5 40     LDA $40 = 01                    A:01 X:00 Y:80 P:64 SP:FD
beforeNMI = 0 and afterNMI = 0
C1D9  D0 FC     BNE $C1D7                       A:01 X:00 Y:80 P:64 SP:FD
beforeNMI = 0 and afterNMI = 0
C1D7  A5 40     LDA $40 = 01                    A:01 X:00 Y:80 P:64 SP:FD
beforeNMI = 0 and afterNMI = 0
C1D9  D0 FC     BNE $C1D7                       A:01 X:00 Y:80 P:64 SP:FD
beforeNMI = 0 and afterNMI = 0
C1D7  A5 40     LDA $40 = 01                    A:01 X:00 Y:80 P:64 SP:FD
beforeNMI = 0 and afterNMI = 0
C1D9  D0 FC     BNE $C1D7                       A:01 X:00 Y:80 P:64 SP:FD
beforeNMI = 0 and afterNMI = 0
C1D7  A5 40     LDA $40 = 01                    A:01 X:00 Y:80 P:64 SP:FD
beforeNMI = 0 and afterNMI = 0
C1D9  D0 FC     BNE $C1D7                       A:01 X:00 Y:80 P:64 SP:FD
beforeNMI = 0 and afterNMI = 0
C1D7  A5 40     LDA $40 = 01                    A:01 X:00 Y:80 P:64 SP:FD
beforeNMI = 0 and afterNMI = 0
C1D9  D0 FC     BNE $C1D7                       A:01 X:00 Y:80 P:64 SP:FD
beforeNMI = 0 and afterNMI = 0
C1D7  A5 40     LDA $40 = 01                    A:01 X:00 Y:80 P:64 SP:FD
beforeNMI = 0 and afterNMI = 0
C1D9  D0 FC     BNE $C1D7                       A:01 X:00 Y:80 P:64 SP:FD
beforeNMI = 0 and afterNMI = 0
C1D7  A5 40     LDA $40 = 01                    A:01 X:00 Y:80 P:64 SP:FD
beforeNMI = 0 and afterNMI = 0
C1D9  D0 FC     BNE $C1D7                       A:01 X:00 Y:80 P:64 SP:FD
beforeNMI = 0 and afterNMI = 0
C1D7  A5 40     LDA $40 = 01                    A:01 X:00 Y:80 P:64 SP:FD
beforeNMI = 0 and afterNMI = 0
C1D9  D0 FC     BNE $C1D7                       A:01 X:00 Y:80 P:64 SP:FD
beforeNMI = 0 and afterNMI = 0
C1D7  A5 40     LDA $40 = 01                    A:01 X:00 Y:80 P:64 SP:FD
beforeNMI = 0 and afterNMI = 0
C1D9  D0 FC     BNE $C1D7                       A:01 X:00 Y:80 P:64 SP:FD
beforeNMI = 0 and afterNMI = 0
C1D7  A5 40     LDA $40 = 01                    A:01 X:00 Y:80 P:64 SP:FD
beforeNMI = 0 and afterNMI = 0
C1D9  D0 FC     BNE $C1D7                       A:01 X:00 Y:80 P:64 SP:FD
beforeNMI = 0 and afterNMI = 0
C1D7  A5 40     LDA $40 = 01                    A:01 X:00 Y:80 P:64 SP:FD
beforeNMI = 0 and afterNMI = 0
C1D9  D0 FC     BNE $C1D7                       A:01 X:00 Y:80 P:64 SP:FD
beforeNMI = 0 and afterNMI = 0
C1D7  A5 40     LDA $40 = 01                    A:01 X:00 Y:80 P:64 SP:FD
beforeNMI = 0 and afterNMI = 0
C1D9  D0 FC     BNE $C1D7                       A:01 X:00 Y:80 P:64 SP:FD
beforeNMI = 0 and afterNMI = 0
C1D7  A5 40     LDA $40 = 01                    A:01 X:00 Y:80 P:64 SP:FD
beforeNMI = 0 and afterNMI = 0
C1D9  D0 FC     BNE $C1D7                       A:01 X:00 Y:80 P:64 SP:FD
beforeNMI = 0 and afterNMI = 0
C1D7  A5 40     LDA $40 = 01                    A:01 X:00 Y:80 P:64 SP:FD
beforeNMI = 0 and afterNMI = 0
C1D9  D0 FC     BNE $C1D7                       A:01 X:00 Y:80 P:64 SP:FD
beforeNMI = 0 and afterNMI = 0
C1D7  A5 40     LDA $40 = 01                    A:01 X:00 Y:80 P:64 SP:FD
beforeNMI = 0 and afterNMI = 0
C1D9  D0 FC     BNE $C1D7                       A:01 X:00 Y:80 P:64 SP:FD
beforeNMI = 0 and afterNMI = 0
C1D7  A5 40     LDA $40 = 01                    A:01 X:00 Y:80 P:64 SP:FD
beforeNMI = 0 and afterNMI = 0
C1D9  D0 FC     BNE $C1D7                       A:01 X:00 Y:80 P:64 SP:FD
beforeNMI = 0 and afterNMI = 0
C1D7  A5 40     LDA $40 = 01                    A:01 X:00 Y:80 P:64 SP:FD
beforeNMI = 0 and afterNMI = 0
C1D9  D0 FC     BNE $C1D7                       A:01 X:00 Y:80 P:64 SP:FD
beforeNMI = 0 and afterNMI = 0
C1D7  A5 40     LDA $40 = 01                    A:01 X:00 Y:80 P:64 SP:FD
beforeNMI = 0 and afterNMI = 0
C1D9  D0 FC     BNE $C1D7                       A:01 X:00 Y:80 P:64 SP:FD
beforeNMI = 0 and afterNMI = 0
C1D7  A5 40     LDA $40 = 01                    A:01 X:00 Y:80 P:64 SP:FD
beforeNMI = 0 and afterNMI = 0
C1D9  D0 FC     BNE $C1D7                       A:01 X:00 Y:80 P:64 SP:FD
beforeNMI = 0 and afterNMI = 0
C1D7  A5 40     LDA $40 = 01                    A:01 X:00 Y:80 P:64 SP:FD
beforeNMI = 0 and afterNMI = 0
C1D9  D0 FC     BNE $C1D7                       A:01 X:00 Y:80 P:64 SP:FD
beforeNMI = 0 and afterNMI = 0
C1D7  A5 40     LDA $40 = 01                    A:01 X:00 Y:80 P:64 SP:FD
beforeNMI = 0 and afterNMI = 0
C1D9  D0 FC     BNE $C1D7                       A:01 X:00 Y:80 P:64 SP:FD
beforeNMI = 0 and afterNMI = 0
C1D7  A5 40     LDA $40 = 01                    A:01 X:00 Y:80 P:64 SP:FD
beforeNMI = 0 and afterNMI = 0
C1D9  D0 FC     BNE $C1D7                       A:01 X:00 Y:80 P:64 SP:FD
beforeNMI = 0 and afterNMI = 0
C1D7  A5 40     LDA $40 = 01                    A:01 X:00 Y:80 P:64 SP:FD
beforeNMI = 0 and afterNMI = 0
C1D9  D0 FC     BNE $C1D7                       A:01 X:00 Y:80 P:64 SP:FD
beforeNMI = 0 and afterNMI = 0
C1D7  A5 40     LDA $40 = 01                    A:01 X:00 Y:80 P:64 SP:FD
beforeNMI = 0 and afterNMI = 0
C1D9  D0 FC     BNE $C1D7                       A:01 X:00 Y:80 P:64 SP:FD
beforeNMI = 0 and afterNMI = 0
C1D7  A5 40     LDA $40 = 01                    A:01 X:00 Y:80 P:64 SP:FD
beforeNMI = 0 and afterNMI = 0
C1D9  D0 FC     BNE $C1D7                       A:01 X:00 Y:80 P:64 SP:FD
beforeNMI = 0 and afterNMI = 0
C1D7  A5 40     LDA $40 = 01                    A:01 X:00 Y:80 P:64 SP:FD
beforeNMI = 0 and afterNMI = 0
C1D9  D0 FC     BNE $C1D7                       A:01 X:00 Y:80 P:64 SP:FD
beforeNMI = 0 and afterNMI = 0
C1D7  A5 40     LDA $40 = 01                    A:01 X:00 Y:80 P:64 SP:FD
beforeNMI = 0 and afterNMI = 0
C1D9  D0 FC     BNE $C1D7                       A:01 X:00 Y:80 P:64 SP:FD
beforeNMI = 0 and afterNMI = 0
C1D7  A5 40     LDA $40 = 01                    A:01 X:00 Y:80 P:64 SP:FD
beforeNMI = 0 and afterNMI = 0
C1D9  D0 FC     BNE $C1D7                       A:01 X:00 Y:80 P:64 SP:FD
beforeNMI = 0 and afterNMI = 0
C1D7  A5 40     LDA $40 = 01                    A:01 X:00 Y:80 P:64 SP:FD
beforeNMI = 0 and afterNMI = 0
C1D9  D0 FC     BNE $C1D7                       A:01 X:00 Y:80 P:64 SP:FD
beforeNMI = 0 and afterNMI = 0
C1D7  A5 40     LDA $40 = 01                    A:01 X:00 Y:80 P:64 SP:FD
beforeNMI = 0 and afterNMI = 0
C1D9  D0 FC     BNE $C1D7                       A:01 X:00 Y:80 P:64 SP:FD
beforeNMI = 0 and afterNMI = 0
C1D7  A5 40     LDA $40 = 01                    A:01 X:00 Y:80 P:64 SP:FD
beforeNMI = 0 and afterNMI = 0
C1D9  D0 FC     BNE $C1D7                       A:01 X:00 Y:80 P:64 SP:FD
beforeNMI = 0 and afterNMI = 0
C1D7  A5 40     LDA $40 = 01                    A:01 X:00 Y:80 P:64 SP:FD
beforeNMI = 0 and afterNMI = 0
C1D9  D0 FC     BNE $C1D7                       A:01 X:00 Y:80 P:64 SP:FD
beforeNMI = 0 and afterNMI = 0
C1D7  A5 40     LDA $40 = 01                    A:01 X:00 Y:80 P:64 SP:FD
beforeNMI = 0 and afterNMI = 0
C1D9  D0 FC     BNE $C1D7                       A:01 X:00 Y:80 P:64 SP:FD
beforeNMI = 0 and afterNMI = 0
C1D7  A5 40     LDA $40 = 01                    A:01 X:00 Y:80 P:64 SP:FD
beforeNMI = 0 and afterNMI = 0
C1D9  D0 FC     BNE $C1D7                       A:01 X:00 Y:80 P:64 SP:FD
beforeNMI = 0 and afterNMI = 0
C1D7  A5 40     LDA $40 = 01                    A:01 X:00 Y:80 P:64 SP:FD
beforeNMI = 0 and afterNMI = 0
C1D9  D0 FC     BNE $C1D7                       A:01 X:00 Y:80 P:64 SP:FD
beforeNMI = 0 and afterNMI = 0
C1D7  A5 40     LDA $40 = 01                    A:01 X:00 Y:80 P:64 SP:FD
beforeNMI = 0 and afterNMI = 0
C1D9  D0 FC     BNE $C1D7                       A:01 X:00 Y:80 P:64 SP:FD
beforeNMI = 0 and afterNMI = 0
C1D7  A5 40     LDA $40 = 01                    A:01 X:00 Y:80 P:64 SP:FD
beforeNMI = 0 and afterNMI = 0
C1D9  D0 FC     BNE $C1D7                       A:01 X:00 Y:80 P:64 SP:FD
beforeNMI = 0 and afterNMI = 0
C1D7  A5 40     LDA $40 = 01                    A:01 X:00 Y:80 P:64 SP:FD
beforeNMI = 0 and afterNMI = 0
C1D9  D0 FC     BNE $C1D7                       A:01 X:00 Y:80 P:64 SP:FD
beforeNMI = 0 and afterNMI = 0
C1D7  A5 40     LDA $40 = 01                    A:01 X:00 Y:80 P:64 SP:FD
beforeNMI = 0 and afterNMI = 0
C1D9  D0 FC     BNE $C1D7                       A:01 X:00 Y:80 P:64 SP:FD
beforeNMI = 0 and afterNMI = 0
C1D7  A5 40     LDA $40 = 01                    A:01 X:00 Y:80 P:64 SP:FD
beforeNMI = 0 and afterNMI = 0
C1D9  D0 FC     BNE $C1D7                       A:01 X:00 Y:80 P:64 SP:FD
beforeNMI = 0 and afterNMI = 0
C1D7  A5 40     LDA $40 = 01                    A:01 X:00 Y:80 P:64 SP:FD
beforeNMI = 0 and afterNMI = 0
C1D9  D0 FC     BNE $C1D7                       A:01 X:00 Y:80 P:64 SP:FD
beforeNMI = 0 and afterNMI = 0
C1D7  A5 40     LDA $40 = 01                    A:01 X:00 Y:80 P:64 SP:FD
beforeNMI = 0 and afterNMI = 0
C1D9  D0 FC     BNE $C1D7                       A:01 X:00 Y:80 P:64 SP:FD
beforeNMI = 0 and afterNMI = 0
C1D7  A5 40     LDA $40 = 01                    A:01 X:00 Y:80 P:64 SP:FD
beforeNMI = 0 and afterNMI = 0
C1D9  D0 FC     BNE $C1D7                       A:01 X:00 Y:80 P:64 SP:FD
beforeNMI = 0 and afterNMI = 0
C1D7  A5 40     LDA $40 = 01                    A:01 X:00 Y:80 P:64 SP:FD
beforeNMI = 0 and afterNMI = 0
C1D9  D0 FC     BNE $C1D7                       A:01 X:00 Y:80 P:64 SP:FD
beforeNMI = 0 and afterNMI = 0
C1D7  A5 40     LDA $40 = 01                    A:01 X:00 Y:80 P:64 SP:FD
beforeNMI = 0 and afterNMI = 0
C1D9  D0 FC     BNE $C1D7                       A:01 X:00 Y:80 P:64 SP:FD
beforeNMI = 0 and afterNMI = 0
C1D7  A5 40     LDA $40 = 01                    A:01 X:00 Y:80 P:64 SP:FD
beforeNMI = 0 and afterNMI = 0
C1D9  D0 FC     BNE $C1D7                       A:01 X:00 Y:80 P:64 SP:FD
beforeNMI = 0 and afterNMI = 0
C1D7  A5 40     LDA $40 = 01                    A:01 X:00 Y:80 P:64 SP:FD
beforeNMI = 0 and afterNMI = 0
C1D9  D0 FC     BNE $C1D7                       A:01 X:00 Y:80 P:64 SP:FD
beforeNMI = 0 and afterNMI = 0
C1D7  A5 40     LDA $40 = 01                    A:01 X:00 Y:80 P:64 SP:FD
beforeNMI = 0 and afterNMI = 0
C1D9  D0 FC     BNE $C1D7                       A:01 X:00 Y:80 P:64 SP:FD
beforeNMI = 0 and afterNMI = 0
C1D7  A5 40     LDA $40 = 01                    A:01 X:00 Y:80 P:64 SP:FD
beforeNMI = 0 and afterNMI = 0
C1D9  D0 FC     BNE $C1D7                       A:01 X:00 Y:80 P:64 SP:FD
beforeNMI = 0 and afterNMI = 0
C1D7  A5 40     LDA $40 = 01                    A:01 X:00 Y:80 P:64 SP:FD
beforeNMI = 0 and afterNMI = 0
C1D9  D0 FC     BNE $C1D7                       A:01 X:00 Y:80 P:64 SP:FD
beforeNMI = 0 and afterNMI = 0
C1D7  A5 40     LDA $40 = 01                    A:01 X:00 Y:80 P:64 SP:FD
beforeNMI = 0 and afterNMI = 0
C1D9  D0 FC     BNE $C1D7                       A:01 X:00 Y:80 P:64 SP:FD
beforeNMI = 0 and afterNMI = 0
C1D7  A5 40     LDA $40 = 01                    A:01 X:00 Y:80 P:64 SP:FD
beforeNMI = 0 and afterNMI = 0
C1D9  D0 FC     BNE $C1D7                       A:01 X:00 Y:80 P:64 SP:FD
beforeNMI = 0 and afterNMI = 0
C1D7  A5 40     LDA $40 = 01                    A:01 X:00 Y:80 P:64 SP:FD
beforeNMI = 0 and afterNMI = 0
C1D9  D0 FC     BNE $C1D7                       A:01 X:00 Y:80 P:64 SP:FD
beforeNMI = 0 and afterNMI = 0
C1D7  A5 40     LDA $40 = 01                    A:01 X:00 Y:80 P:64 SP:FD
beforeNMI = 0 and afterNMI = 0
C1D9  D0 FC     BNE $C1D7                       A:01 X:00 Y:80 P:64 SP:FD
beforeNMI = 0 and afterNMI = 0
C1D7  A5 40     LDA $40 = 01                    A:01 X:00 Y:80 P:64 SP:FD
beforeNMI = 0 and afterNMI = 0
C1D9  D0 FC     BNE $C1D7                       A:01 X:00 Y:80 P:64 SP:FD
beforeNMI = 0 and afterNMI = 0
C1D7  A5 40     LDA $40 = 01                    A:01 X:00 Y:80 P:64 SP:FD
beforeNMI = 0 and afterNMI = 0
C1D9  D0 FC     BNE $C1D7                       A:01 X:00 Y:80 P:64 SP:FD
beforeNMI = 0 and afterNMI = 0
C1D7  A5 40     LDA $40 = 01                    A:01 X:00 Y:80 P:64 SP:FD
beforeNMI = 0 and afterNMI = 0
C1D9  D0 FC     BNE $C1D7                       A:01 X:00 Y:80 P:64 SP:FD
beforeNMI = 0 and afterNMI = 0
C1D7  A5 40     LDA $40 = 01                    A:01 X:00 Y:80 P:64 SP:FD
beforeNMI = 0 and afterNMI = 0
C1D9  D0 FC     BNE $C1D7                       A:01 X:00 Y:80 P:64 SP:FD
beforeNMI = 0 and afterNMI = 0
C1D7  A5 40     LDA $40 = 01                    A:01 X:00 Y:80 P:64 SP:FD
beforeNMI = 0 and afterNMI = 0
C1D9  D0 FC     BNE $C1D7                       A:01 X:00 Y:80 P:64 SP:FD
beforeNMI = 0 and afterNMI = 0
C1D7  A5 40     LDA $40 = 01                    A:01 X:00 Y:80 P:64 SP:FD
beforeNMI = 0 and afterNMI = 0
C1D9  D0 FC     BNE $C1D7                       A:01 X:00 Y:80 P:64 SP:FD
beforeNMI = 0 and afterNMI = 0
C1D7  A5 40     LDA $40 = 01                    A:01 X:00 Y:80 P:64 SP:FD
beforeNMI = 0 and afterNMI = 0
C1D9  D0 FC     BNE $C1D7                       A:01 X:00 Y:80 P:64 SP:FD
beforeNMI = 0 and afterNMI = 0
C1D7  A5 40     LDA $40 = 01                    A:01 X:00 Y:80 P:64 SP:FD
beforeNMI = 0 and afterNMI = 0
C1D9  D0 FC     BNE $C1D7                       A:01 X:00 Y:80 P:64 SP:FD
beforeNMI = 0 and afterNMI = 0
C1D7  A5 40     LDA $40 = 01                    A:01 X:00 Y:80 P:64 SP:FD
beforeNMI = 0 and afterNMI = 0
C1D9  D0 FC     BNE $C1D7                       A:01 X:00 Y:80 P:64 SP:FD
beforeNMI = 0 and afterNMI = 0
C1D7  A5 40     LDA $40 = 01                    A:01 X:00 Y:80 P:64 SP:FD
beforeNMI = 0 and afterNMI = 0
C1D9  D0 FC     BNE $C1D7                       A:01 X:00 Y:80 P:64 SP:FD
beforeNMI = 0 and afterNMI = 0
C1D7  A5 40     LDA $40 = 01                    A:01 X:00 Y:80 P:64 SP:FD
beforeNMI = 0 and afterNMI = 0
C1D9  D0 FC     BNE $C1D7                       A:01 X:00 Y:80 P:64 SP:FD
beforeNMI = 0 and afterNMI = 0
C1D7  A5 40     LDA $40 = 01                    A:01 X:00 Y:80 P:64 SP:FD
beforeNMI = 0 and afterNMI = 0
C1D9  D0 FC     BNE $C1D7                       A:01 X:00 Y:80 P:64 SP:FD
beforeNMI = 0 and afterNMI = 0
C1D7  A5 40     LDA $40 = 01                    A:01 X:00 Y:80 P:64 SP:FD
beforeNMI = 0 and afterNMI = 0
C1D9  D0 FC     BNE $C1D7                       A:01 X:00 Y:80 P:64 SP:FD
beforeNMI = 0 and afterNMI = 0
C1D7  A5 40     LDA $40 = 01                    A:01 X:00 Y:80 P:64 SP:FD
beforeNMI = 0 and afterNMI = 0
C1D9  D0 FC     BNE $C1D7                       A:01 X:00 Y:80 P:64 SP:FD
beforeNMI = 0 and afterNMI = 0
C1D7  A5 40     LDA $40 = 01                    A:01 X:00 Y:80 P:64 SP:FD
beforeNMI = 0 and afterNMI = 0
C1D9  D0 FC     BNE $C1D7                       A:01 X:00 Y:80 P:64 SP:FD
beforeNMI = 0 and afterNMI = 0
C1D7  A5 40     LDA $40 = 01                    A:01 X:00 Y:80 P:64 SP:FD
beforeNMI = 0 and afterNMI = 0
C1D9  D0 FC     BNE $C1D7                       A:01 X:00 Y:80 P:64 SP:FD
beforeNMI = 0 and afterNMI = 0
C1D7  A5 40     LDA $40 = 01                    A:01 X:00 Y:80 P:64 SP:FD
beforeNMI = 0 and afterNMI = 0
C1D9  D0 FC     BNE $C1D7                       A:01 X:00 Y:80 P:64 SP:FD
beforeNMI = 0 and afterNMI = 0
C1D7  A5 40     LDA $40 = 01                    A:01 X:00 Y:80 P:64 SP:FD
beforeNMI = 0 and afterNMI = 0
C1D9  D0 FC     BNE $C1D7                       A:01 X:00 Y:80 P:64 SP:FD
beforeNMI = 0 and afterNMI = 0
C1D7  A5 40     LDA $40 = 01                    A:01 X:00 Y:80 P:64 SP:FD
beforeNMI = 0 and afterNMI = 0
C1D9  D0 FC     BNE $C1D7                       A:01 X:00 Y:80 P:64 SP:FD
beforeNMI = 0 and afterNMI = 0
C1D7  A5 40     LDA $40 = 01                    A:01 X:00 Y:80 P:64 SP:FD
beforeNMI = 0 and afterNMI = 0
C1D9  D0 FC     BNE $C1D7                       A:01 X:00 Y:80 P:64 SP:FD
beforeNMI = 0 and afterNMI = 0
C1D7  A5 40     LDA $40 = 01                    A:01 X:00 Y:80 P:64 SP:FD
beforeNMI = 0 and afterNMI = 0
C1D9  D0 FC     BNE $C1D7                       A:01 X:00 Y:80 P:64 SP:FD
beforeNMI = 0 and afterNMI = 0
C1D7  A5 40     LDA $40 = 01                    A:01 X:00 Y:80 P:64 SP:FD
beforeNMI = 0 and afterNMI = 0
C1D9  D0 FC     BNE $C1D7                       A:01 X:00 Y:80 P:64 SP:FD
beforeNMI = 0 and afterNMI = 0
C1D7  A5 40     LDA $40 = 01                    A:01 X:00 Y:80 P:64 SP:FD
beforeNMI = 0 and afterNMI = 0
C1D9  D0 FC     BNE $C1D7                       A:01 X:00 Y:80 P:64 SP:FD
beforeNMI = 0 and afterNMI = 0
C1D7  A5 40     LDA $40 = 01                    A:01 X:00 Y:80 P:64 SP:FD
beforeNMI = 0 and afterNMI = 0
C1D9  D0 FC     BNE $C1D7                       A:01 X:00 Y:80 P:64 SP:FD
beforeNMI = 0 and afterNMI = 0
C1D7  A5 40     LDA $40 = 01                    A:01 X:00 Y:80 P:64 SP:FD
beforeNMI = 0 and afterNMI = 0
C1D9  D0 FC     BNE $C1D7                       A:01 X:00 Y:80 P:64 SP:FD
beforeNMI = 0 and afterNMI = 0
C1D7  A5 40     LDA $40 = 01                    A:01 X:00 Y:80 P:64 SP:FD
beforeNMI = 0 and afterNMI = 0
C1D9  D0 FC     BNE $C1D7                       A:01 X:00 Y:80 P:64 SP:FD
beforeNMI = 0 and afterNMI = 0
C1D7  A5 40     LDA $40 = 01                    A:01 X:00 Y:80 P:64 SP:FD
beforeNMI = 0 and afterNMI = 0
C1D9  D0 FC     BNE $C1D7                       A:01 X:00 Y:80 P:64 SP:FD
beforeNMI = 0 and afterNMI = 0
C1D7  A5 40     LDA $40 = 01                    A:01 X:00 Y:80 P:64 SP:FD
beforeNMI = 0 and afterNMI = 0
C1D9  D0 FC     BNE $C1D7                       A:01 X:00 Y:80 P:64 SP:FD
beforeNMI = 0 and afterNMI = 0
C1D7  A5 40     LDA $40 = 01                    A:01 X:00 Y:80 P:64 SP:FD
beforeNMI = 0 and afterNMI = 0
C1D9  D0 FC     BNE $C1D7                       A:01 X:00 Y:80 P:64 SP:FD
beforeNMI = 0 and afterNMI = 0
C1D7  A5 40     LDA $40 = 01                    A:01 X:00 Y:80 P:64 SP:FD
beforeNMI = 0 and afterNMI = 0
C1D9  D0 FC     BNE $C1D7                       A:01 X:00 Y:80 P:64 SP:FD
beforeNMI = 0 and afterNMI = 0
C1D7  A5 40     LDA $40 = 01                    A:01 X:00 Y:80 P:64 SP:FD
beforeNMI = 0 and afterNMI = 0
C1D9  D0 FC     BNE $C1D7                       A:01 X:00 Y:80 P:64 SP:FD
beforeNMI = 0 and afterNMI = 0
C1D7  A5 40     LDA $40 = 01                    A:01 X:00 Y:80 P:64 SP:FD
beforeNMI = 0 and afterNMI = 0
C1D9  D0 FC     BNE $C1D7                       A:01 X:00 Y:80 P:64 SP:FD
beforeNMI = 0 and afterNMI = 0
C1D7  A5 40     LDA $40 = 01                    A:01 X:00 Y:80 P:64 SP:FD
beforeNMI = 0 and afterNMI = 0
C1D9  D0 FC     BNE $C1D7                       A:01 X:00 Y:80 P:64 SP:FD
beforeNMI = 0 and afterNMI = 0
C1D7  A5 40     LDA $40 = 01                    A:01 X:00 Y:80 P:64 SP:FD
beforeNMI = 0 and afterNMI = 0
C1D9  D0 FC     BNE $C1D7                       A:01 X:00 Y:80 P:64 SP:FD
beforeNMI = 0 and afterNMI = 0
C1D7  A5 40     LDA $40 = 01                    A:01 X:00 Y:80 P:64 SP:FD
beforeNMI = 0 and afterNMI = 0
C1D9  D0 FC     BNE $C1D7                       A:01 X:00 Y:80 P:64 SP:FD
beforeNMI = 0 and afterNMI = 0
C1D7  A5 40     LDA $40 = 01                    A:01 X:00 Y:80 P:64 SP:FD
beforeNMI = 0 and afterNMI = 0
C1D9  D0 FC     BNE $C1D7                       A:01 X:00 Y:80 P:64 SP:FD
beforeNMI = 0 and afterNMI = 0
C1D7  A5 40     LDA $40 = 01                    A:01 X:00 Y:80 P:64 SP:FD
beforeNMI = 0 and afterNMI = 0
C1D9  D0 FC     BNE $C1D7                       A:01 X:00 Y:80 P:64 SP:FD
beforeNMI = 0 and afterNMI = 0
C1D7  A5 40     LDA $40 = 01                    A:01 X:00 Y:80 P:64 SP:FD
beforeNMI = 0 and afterNMI = 0
C1D9  D0 FC     BNE $C1D7                       A:01 X:00 Y:80 P:64 SP:FD
beforeNMI = 0 and afterNMI = 0
C1D7  A5 40     LDA $40 = 01                    A:01 X:00 Y:80 P:64 SP:FD
beforeNMI = 0 and afterNMI = 0
C1D9  D0 FC     BNE $C1D7                       A:01 X:00 Y:80 P:64 SP:FD
beforeNMI = 0 and afterNMI = 0
C1D7  A5 40     LDA $40 = 01                    A:01 X:00 Y:80 P:64 SP:FD
beforeNMI = 0 and afterNMI = 0
C1D9  D0 FC     BNE $C1D7                       A:01 X:00 Y:80 P:64 SP:FD
beforeNMI = 0 and afterNMI = 0
C1D7  A5 40     LDA $40 = 01                    A:01 X:00 Y:80 P:64 SP:FD
beforeNMI = 0 and afterNMI = 0
C1D9  D0 FC     BNE $C1D7                       A:01 X:00 Y:80 P:64 SP:FD
beforeNMI = 0 and afterNMI = 0
C1D7  A5 40     LDA $40 = 01                    A:01 X:00 Y:80 P:64 SP:FD
beforeNMI = 0 and afterNMI = 0
C1D9  D0 FC     BNE $C1D7                       A:01 X:00 Y:80 P:64 SP:FD
beforeNMI = 0 and afterNMI = 0
C1D7  A5 40     LDA $40 = 01                    A:01 X:00 Y:80 P:64 SP:FD
beforeNMI = 0 and afterNMI = 0
C1D9  D0 FC     BNE $C1D7                       A:01 X:00 Y:80 P:64 SP:FD
beforeNMI = 0 and afterNMI = 0
C1D7  A5 40     LDA $40 = 01                    A:01 X:00 Y:80 P:64 SP:FD
beforeNMI = 0 and afterNMI = 0
C1D9  D0 FC     BNE $C1D7                       A:01 X:00 Y:80 P:64 SP:FD
beforeNMI = 0 and afterNMI = 0
C1D7  A5 40     LDA $40 = 01                    A:01 X:00 Y:80 P:64 SP:FD
beforeNMI = 0 and afterNMI = 0
C1D9  D0 FC     BNE $C1D7                       A:01 X:00 Y:80 P:64 SP:FD
beforeNMI = 0 and afterNMI = 0
C1D7  A5 40     LDA $40 = 01                    A:01 X:00 Y:80 P:64 SP:FD
beforeNMI = 0 and afterNMI = 0
C1D9  D0 FC     BNE $C1D7                       A:01 X:00 Y:80 P:64 SP:FD
beforeNMI = 0 and afterNMI = 0
C1D7  A5 40     LDA $40 = 01                    A:01 X:00 Y:80 P:64 SP:FD
beforeNMI = 0 and afterNMI = 0
C1D9  D0 FC     BNE $C1D7                       A:01 X:00 Y:80 P:64 SP:FD
beforeNMI = 0 and afterNMI = 0
C1D7  A5 40     LDA $40 = 01                    A:01 X:00 Y:80 P:64 SP:FD
beforeNMI = 0 and afterNMI = 0
C1D9  D0 FC     BNE $C1D7                       A:01 X:00 Y:80 P:64 SP:FD
beforeNMI = 0 and afterNMI = 0
C1D7  A5 40     LDA $40 = 01                    A:01 X:00 Y:80 P:64 SP:FD
beforeNMI = 0 and afterNMI = 0
C1D9  D0 FC     BNE $C1D7                       A:01 X:00 Y:80 P:64 SP:FD
beforeNMI = 0 and afterNMI = 0
C1D7  A5 40     LDA $40 = 01                    A:01 X:00 Y:80 P:64 SP:FD
beforeNMI = 0 and afterNMI = 0
C1D9  D0 FC     BNE $C1D7                       A:01 X:00 Y:80 P:64 SP:FD
beforeNMI = 0 and afterNMI = 0
C1D7  A5 40     LDA $40 = 01                    A:01 X:00 Y:80 P:64 SP:FD
beforeNMI = 0 and afterNMI = 0
C1D9  D0 FC     BNE $C1D7                       A:01 X:00 Y:80 P:64 SP:FD
beforeNMI = 0 and afterNMI = 0
C1D7  A5 40     LDA $40 = 01                    A:01 X:00 Y:80 P:64 SP:FD
beforeNMI = 0 and afterNMI = 0
C1D9  D0 FC     BNE $C1D7                       A:01 X:00 Y:80 P:64 SP:FD
beforeNMI = 0 and afterNMI = 0
C1D7  A5 40     LDA $40 = 01                    A:01 X:00 Y:80 P:64 SP:FD
beforeNMI = 0 and afterNMI = 0
C1D9  D0 FC     BNE $C1D7                       A:01 X:00 Y:80 P:64 SP:FD
beforeNMI = 0 and afterNMI = 0
C1D7  A5 40     LDA $40 = 01                    A:01 X:00 Y:80 P:64 SP:FD
beforeNMI = 0 and afterNMI = 0
C1D9  D0 FC     BNE $C1D7                       A:01 X:00 Y:80 P:64 SP:FD
beforeNMI = 0 and afterNMI = 0
C1D7  A5 40     LDA $40 = 01                    A:01 X:00 Y:80 P:64 SP:FD
beforeNMI = 0 and afterNMI = 0
C1D9  D0 FC     BNE $C1D7                       A:01 X:00 Y:80 P:64 SP:FD
beforeNMI = 0 and afterNMI = 0
C1D7  A5 40     LDA $40 = 01                    A:01 X:00 Y:80 P:64 SP:FD
beforeNMI = 0 and afterNMI = 0
C1D9  D0 FC     BNE $C1D7                       A:01 X:00 Y:80 P:64 SP:FD
beforeNMI = 0 and afterNMI = 0
C1D7  A5 40     LDA $40 = 01                    A:01 X:00 Y:80 P:64 SP:FD
beforeNMI = 0 and afterNMI = 0
C1D9  D0 FC     BNE $C1D7                       A:01 X:00 Y:80 P:64 SP:FD
beforeNMI = 0 and afterNMI = 0
C1D7  A5 40     LDA $40 = 01                    A:01 X:00 Y:80 P:64 SP:FD
beforeNMI = 0 and afterNMI = 0
C1D9  D0 FC     BNE $C1D7                       A:01 X:00 Y:80 P:64 SP:FD
beforeNMI = 0 and afterNMI = 0
C1D7  A5 40     LDA $40 = 01                    A:01 X:00 Y:80 P:64 SP:FD
beforeNMI = 0 and afterNMI = 0
C1D9  D0 FC     BNE $C1D7                       A:01 X:00 Y:80 P:64 SP:FD
beforeNMI = 0 and afterNMI = 0
C1D7  A5 40     LDA $40 = 01                    A:01 X:00 Y:80 P:64 SP:FD
beforeNMI = 0 and afterNMI = 0
C1D9  D0 FC     BNE $C1D7                       A:01 X:00 Y:80 P:64 SP:FD
beforeNMI = 0 and afterNMI = 0
C1D7  A5 40     LDA $40 = 01                    A:01 X:00 Y:80 P:64 SP:FD
beforeNMI = 0 and afterNMI = 0
C1D9  D0 FC     BNE $C1D7                       A:01 X:00 Y:80 P:64 SP:FD
beforeNMI = 0 and afterNMI = 0
C1D7  A5 40     LDA $40 = 01                    A:01 X:00 Y:80 P:64 SP:FD
beforeNMI = 0 and afterNMI = 0
C1D9  D0 FC     BNE $C1D7                       A:01 X:00 Y:80 P:64 SP:FD
beforeNMI = 0 and afterNMI = 0
C1D7  A5 40     LDA $40 = 01                    A:01 X:00 Y:80 P:64 SP:FD
beforeNMI = 0 and afterNMI = 0
C1D9  D0 FC     BNE $C1D7                       A:01 X:00 Y:80 P:64 SP:FD
beforeNMI = 0 and afterNMI = 0
C1D7  A5 40     LDA $40 = 01                    A:01 X:00 Y:80 P:64 SP:FD
beforeNMI = 0 and afterNMI = 0
C1D9  D0 FC     BNE $C1D7                       A:01 X:00 Y:80 P:64 SP:FD
beforeNMI = 0 and afterNMI = 0
C1D7  A5 40     LDA $40 = 01                    A:01 X:00 Y:80 P:64 SP:FD
beforeNMI = 0 and afterNMI = 0
C1D9  D0 FC     BNE $C1D7                       A:01 X:00 Y:80 P:64 SP:FD
beforeNMI = 0 and afterNMI = 0
C1D7  A5 40     LDA $40 = 01                    A:01 X:00 Y:80 P:64 SP:FD
beforeNMI = 0 and afterNMI = 0
C1D9  D0 FC     BNE $C1D7                       A:01 X:00 Y:80 P:64 SP:FD
beforeNMI = 0 and afterNMI = 0
C1D7  A5 40     LDA $40 = 01                    A:01 X:00 Y:80 P:64 SP:FD
beforeNMI = 0 and afterNMI = 0
C1D9  D0 FC     BNE $C1D7                       A:01 X:00 Y:80 P:64 SP:FD
beforeNMI = 0 and afterNMI = 0
C1D7  A5 40     LDA $40 = 01                    A:01 X:00 Y:80 P:64 SP:FD
beforeNMI = 0 and afterNMI = 0
C1D9  D0 FC     BNE $C1D7                       A:01 X:00 Y:80 P:64 SP:FD
beforeNMI = 0 and afterNMI = 0
C1D7  A5 40     LDA $40 = 01                    A:01 X:00 Y:80 P:64 SP:FD
beforeNMI = 0 and afterNMI = 0
C1D9  D0 FC     BNE $C1D7                       A:01 X:00 Y:80 P:64 SP:FD
beforeNMI = 0 and afterNMI = 0
C1D7  A5 40     LDA $40 = 01                    A:01 X:00 Y:80 P:64 SP:FD
beforeNMI = 0 and afterNMI = 0
C1D9  D0 FC     BNE $C1D7                       A:01 X:00 Y:80 P:64 SP:FD
beforeNMI = 0 and afterNMI = 0
C1D7  A5 40     LDA $40 = 01                    A:01 X:00 Y:80 P:64 SP:FD
beforeNMI = 0 and afterNMI = 0
C1D9  D0 FC     BNE $C1D7                       A:01 X:00 Y:80 P:64 SP:FD
beforeNMI = 0 and afterNMI = 0
C1D7  A5 40     LDA $40 = 01                    A:01 X:00 Y:80 P:64 SP:FD
beforeNMI = 0 and afterNMI = 0
C1D9  D0 FC     BNE $C1D7                       A:01 X:00 Y:80 P:64 SP:FD
beforeNMI = 0 and afterNMI = 0
C1D7  A5 40     LDA $40 = 01                    A:01 X:00 Y:80 P:64 SP:FD
beforeNMI = 0 and afterNMI = 0
C1D9  D0 FC     BNE $C1D7                       A:01 X:00 Y:80 P:64 SP:FD
beforeNMI = 0 and afterNMI = 0
C1D7  A5 40     LDA $40 = 01                    A:01 X:00 Y:80 P:64 SP:FD
beforeNMI = 0 and afterNMI = 0
C1D9  D0 FC     BNE $C1D7                       A:01 X:00 Y:80 P:64 SP:FD
beforeNMI = 0 and afterNMI = 0
C1D7  A5 40     LDA $40 = 01                    A:01 X:00 Y:80 P:64 SP:FD
beforeNMI = 0 and afterNMI = 0
C1D9  D0 FC     BNE $C1D7                       A:01 X:00 Y:80 P:64 SP:FD
beforeNMI = 0 and afterNMI = 0
C1D7  A5 40     LDA $40 = 01                    A:01 X:00 Y:80 P:64 SP:FD
beforeNMI = 0 and afterNMI = 0
C1D9  D0 FC     BNE $C1D7                       A:01 X:00 Y:80 P:64 SP:FD
beforeNMI = 0 and afterNMI = 0
C1D7  A5 40     LDA $40 = 01                    A:01 X:00 Y:80 P:64 SP:FD
beforeNMI = 0 and afterNMI = 0
C1D9  D0 FC     BNE $C1D7                       A:01 X:00 Y:80 P:64 SP:FD
beforeNMI = 0 and afterNMI = 0
C1D7  A5 40     LDA $40 = 01                    A:01 X:00 Y:80 P:64 SP:FD
beforeNMI = 0 and afterNMI = 0
C1D9  D0 FC     BNE $C1D7                       A:01 X:00 Y:80 P:64 SP:FD
beforeNMI = 0 and afterNMI = 0
C1D7  A5 40     LDA $40 = 01                    A:01 X:00 Y:80 P:64 SP:FD
beforeNMI = 0 and afterNMI = 0
C1D9  D0 FC     BNE $C1D7                       A:01 X:00 Y:80 P:64 SP:FD
beforeNMI = 0 and afterNMI = 0
C1D7  A5 40     LDA $40 = 01                    A:01 X:00 Y:80 P:64 SP:FD
beforeNMI = 0 and afterNMI = 0
C1D9  D0 FC     BNE $C1D7                       A:01 X:00 Y:80 P:64 SP:FD
beforeNMI = 0 and afterNMI = 0
C1D7  A5 40     LDA $40 = 01                    A:01 X:00 Y:80 P:64 SP:FD
beforeNMI = 0 and afterNMI = 0
C1D9  D0 FC     BNE $C1D7                       A:01 X:00 Y:80 P:64 SP:FD
beforeNMI = 0 and afterNMI = 0
C1D7  A5 40     LDA $40 = 01                    A:01 X:00 Y:80 P:64 SP:FD
beforeNMI = 0 and afterNMI = 0
C1D9  D0 FC     BNE $C1D7                       A:01 X:00 Y:80 P:64 SP:FD
beforeNMI = 0 and afterNMI = 0
C1D7  A5 40     LDA $40 = 01                    A:01 X:00 Y:80 P:64 SP:FD
beforeNMI = 0 and afterNMI = 0
C1D9  D0 FC     BNE $C1D7                       A:01 X:00 Y:80 P:64 SP:FD
beforeNMI = 0 and afterNMI = 0
C1D7  A5 40     LDA $40 = 01                    A:01 X:00 Y:80 P:64 SP:FD
beforeNMI = 0 and afterNMI = 0
C1D9  D0 FC     BNE $C1D7                       A:01 X:00 Y:80 P:64 SP:FD
beforeNMI = 0 and afterNMI = 0
C1D7  A5 40     LDA $40 = 01                    A:01 X:00 Y:80 P:64 SP:FD
beforeNMI = 0 and afterNMI = 0
C1D9  D0 FC     BNE $C1D7                       A:01 X:00 Y:80 P:64 SP:FD
beforeNMI = 0 and afterNMI = 0
C1D7  A5 40     LDA $40 = 01                    A:01 X:00 Y:80 P:64 SP:FD
beforeNMI = 0 and afterNMI = 0
C1D9  D0 FC     BNE $C1D7                       A:01 X:00 Y:80 P:64 SP:FD
beforeNMI = 0 and afterNMI = 0
C1D7  A5 40     LDA $40 = 01                    A:01 X:00 Y:80 P:64 SP:FD
beforeNMI = 0 and afterNMI = 0
C1D9  D0 FC     BNE $C1D7                       A:01 X:00 Y:80 P:64 SP:FD
beforeNMI = 0 and afterNMI = 0
C1D7  A5 40     LDA $40 = 01                    A:01 X:00 Y:80 P:64 SP:FD
beforeNMI = 0 and afterNMI = 0
C1D9  D0 FC     BNE $C1D7                       A:01 X:00 Y:80 P:64 SP:FD
beforeNMI = 0 and afterNMI = 0
C1D7  A5 40     LDA $40 = 01                    A:01 X:00 Y:80 P:64 SP:FD
beforeNMI = 0 and afterNMI = 0
C1D9  D0 FC     BNE $C1D7                       A:01 X:00 Y:80 P:64 SP:FD
beforeNMI = 0 and afterNMI = 0
C1D7  A5 40     LDA $40 = 01                    A:01 X:00 Y:80 P:64 SP:FD
beforeNMI = 0 and afterNMI = 0
C1D9  D0 FC     BNE $C1D7                       A:01 X:00 Y:80 P:64 SP:FD
beforeNMI = 0 and afterNMI = 0
C1D7  A5 40     LDA $40 = 01                    A:01 X:00 Y:80 P:64 SP:FD
beforeNMI = 0 and afterNMI = 0
C1D9  D0 FC     BNE $C1D7                       A:01 X:00 Y:80 P:64 SP:FD
beforeNMI = 0 and afterNMI = 0
C1D7  A5 40     LDA $40 = 01                    A:01 X:00 Y:80 P:64 SP:FD
beforeNMI = 0 and afterNMI = 0
C1D9  D0 FC     BNE $C1D7                       A:01 X:00 Y:80 P:64 SP:FD
beforeNMI = 0 and afterNMI = 0
C1D7  A5 40     LDA $40 = 01                    A:01 X:00 Y:80 P:64 SP:FD
beforeNMI = 0 and afterNMI = 0
C1D9  D0 FC     BNE $C1D7                       A:01 X:00 Y:80 P:64 SP:FD
beforeNMI = 0 and afterNMI = 0
C1D7  A5 40     LDA $40 = 01                    A:01 X:00 Y:80 P:64 SP:FD
beforeNMI = 0 and afterNMI = 0
C1D9  D0 FC     BNE $C1D7                       A:01 X:00 Y:80 P:64 SP:FD
beforeNMI = 0 and afterNMI = 0
C1D7  A5 40     LDA $40 = 01                    A:01 X:00 Y:80 P:64 SP:FD
beforeNMI = 0 and afterNMI = 0
C1D9  D0 FC     BNE $C1D7                       A:01 X:00 Y:80 P:64 SP:FD
beforeNMI = 0 and afterNMI = 0
C1D7  A5 40     LDA $40 = 01                    A:01 X:00 Y:80 P:64 SP:FD
beforeNMI = 0 and afterNMI = 0
C1D9  D0 FC     BNE $C1D7                       A:01 X:00 Y:80 P:64 SP:FD
beforeNMI = 0 and afterNMI = 0
C1D7  A5 40     LDA $40 = 01                    A:01 X:00 Y:80 P:64 SP:FD
beforeNMI = 0 and afterNMI = 0
C1D9  D0 FC     BNE $C1D7                       A:01 X:00 Y:80 P:64 SP:FD
beforeNMI = 0 and afterNMI = 0
C1D7  A5 40     LDA $40 = 01                    A:01 X:00 Y:80 P:64 SP:FD
beforeNMI = 0 and afterNMI = 0
C1D9  D0 FC     BNE $C1D7                       A:01 X:00 Y:80 P:64 SP:FD
beforeNMI = 0 and afterNMI = 0
C1D7  A5 40     LDA $40 = 01                    A:01 X:00 Y:80 P:64 SP:FD
beforeNMI = 0 and afterNMI = 0
C1D9  D0 FC     BNE $C1D7                       A:01 X:00 Y:80 P:64 SP:FD
beforeNMI = 0 and afterNMI = 0
C1D7  A5 40     LDA $40 = 01                    A:01 X:00 Y:80 P:64 SP:FD
beforeNMI = 0 and afterNMI = 0
C1D9  D0 FC     BNE $C1D7                       A:01 X:00 Y:80 P:64 SP:FD
beforeNMI = 0 and afterNMI = 0
C1D7  A5 40     LDA $40 = 01                    A:01 X:00 Y:80 P:64 SP:FD
beforeNMI = 0 and afterNMI = 0
C1D9  D0 FC     BNE $C1D7                       A:01 X:00 Y:80 P:64 SP:FD
beforeNMI = 0 and afterNMI = 0
C1D7  A5 40     LDA $40 = 01                    A:01 X:00 Y:80 P:64 SP:FD
beforeNMI = 0 and afterNMI = 0
C1D9  D0 FC     BNE $C1D7                       A:01 X:00 Y:80 P:64 SP:FD
beforeNMI = 0 and afterNMI = 0
C1D7  A5 40     LDA $40 = 01                    A:01 X:00 Y:80 P:64 SP:FD
beforeNMI = 0 and afterNMI = 0
C1D9  D0 FC     BNE $C1D7                       A:01 X:00 Y:80 P:64 SP:FD
beforeNMI = 0 and afterNMI = 0
C1D7  A5 40     LDA $40 = 01                    A:01 X:00 Y:80 P:64 SP:FD
beforeNMI = 0 and afterNMI = 0
C1D9  D0 FC     BNE $C1D7                       A:01 X:00 Y:80 P:64 SP:FD
beforeNMI = 0 and afterNMI = 0
C1D7  A5 40     LDA $40 = 01                    A:01 X:00 Y:80 P:64 SP:FD
beforeNMI = 0 and afterNMI = 0
C1D9  D0 FC     BNE $C1D7                       A:01 X:00 Y:80 P:64 SP:FD
beforeNMI = 0 and afterNMI = 0
C1D7  A5 40     LDA $40 = 01                    A:01 X:00 Y:80 P:64 SP:FD
beforeNMI = 0 and afterNMI = 0
C1D9  D0 FC     BNE $C1D7                       A:01 X:00 Y:80 P:64 SP:FD
beforeNMI = 0 and afterNMI = 0
C1D7  A5 40     LDA $40 = 01                    A:01 X:00 Y:80 P:64 SP:FD
beforeNMI = 0 and afterNMI = 0
C1D9  D0 FC     BNE $C1D7                       A:01 X:00 Y:80 P:64 SP:FD
beforeNMI = 0 and afterNMI = 0
C1D7  A5 40     LDA $40 = 01                    A:01 X:00 Y:80 P:64 SP:FD
beforeNMI = 0 and afterNMI = 0
C1D9  D0 FC     BNE $C1D7                       A:01 X:00 Y:80 P:64 SP:FD
beforeNMI = 0 and afterNMI = 0
C1D7  A5 40     LDA $40 = 01                    A:01 X:00 Y:80 P:64 SP:FD
beforeNMI = 0 and afterNMI = 0
C1D9  D0 FC     BNE $C1D7                       A:01 X:00 Y:80 P:64 SP:FD
beforeNMI = 0 and afterNMI = 0
C1D7  A5 40     LDA $40 = 01                    A:01 X:00 Y:80 P:64 SP:FD
beforeNMI = 0 and afterNMI = 0
C1D9  D0 FC     BNE $C1D7                       A:01 X:00 Y:80 P:64 SP:FD
beforeNMI = 0 and afterNMI = 0
C1D7  A5 40     LDA $40 = 01                    A:01 X:00 Y:80 P:64 SP:FD
beforeNMI = 0 and afterNMI = 0
C1D9  D0 FC     BNE $C1D7                       A:01 X:00 Y:80 P:64 SP:FD
beforeNMI = 0 and afterNMI = 0
C1D7  A5 40     LDA $40 = 01                    A:01 X:00 Y:80 P:64 SP:FD
beforeNMI = 0 and afterNMI = 0
C1D9  D0 FC     BNE $C1D7                       A:01 X:00 Y:80 P:64 SP:FD
beforeNMI = 0 and afterNMI = 0
C1D7  A5 40     LDA $40 = 01                    A:01 X:00 Y:80 P:64 SP:FD
beforeNMI = 0 and afterNMI = 0
C1D9  D0 FC     BNE $C1D7                       A:01 X:00 Y:80 P:64 SP:FD
beforeNMI = 0 and afterNMI = 0
C1D7  A5 40     LDA $40 = 01                    A:01 X:00 Y:80 P:64 SP:FD
beforeNMI = 0 and afterNMI = 0
C1D9  D0 FC     BNE $C1D7                       A:01 X:00 Y:80 P:64 SP:FD
beforeNMI = 0 and afterNMI = 0
C1D7  A5 40     LDA $40 = 01                    A:01 X:00 Y:80 P:64 SP:FD
beforeNMI = 0 and afterNMI = 0
C1D9  D0 FC     BNE $C1D7                       A:01 X:00 Y:80 P:64 SP:FD
beforeNMI = 0 and afterNMI = 0
C1D7  A5 40     LDA $40 = 01                    A:01 X:00 Y:80 P:64 SP:FD
beforeNMI = 0 and afterNMI = 0
C1D9  D0 FC     BNE $C1D7                       A:01 X:00 Y:80 P:64 SP:FD
beforeNMI = 0 and afterNMI = 0
C1D7  A5 40     LDA $40 = 01                    A:01 X:00 Y:80 P:64 SP:FD
beforeNMI = 0 and afterNMI = 0
C1D9  D0 FC     BNE $C1D7                       A:01 X:00 Y:80 P:64 SP:FD
beforeNMI = 0 and afterNMI = 0
C1D7  A5 40     LDA $40 = 01                    A:01 X:00 Y:80 P:64 SP:FD
beforeNMI = 0 and afterNMI = 0
C1D9  D0 FC     BNE $C1D7                       A:01 X:00 Y:80 P:64 SP:FD
beforeNMI = 0 and afterNMI = 0
C1D7  A5 40     LDA $40 = 01                    A:01 X:00 Y:80 P:64 SP:FD
beforeNMI = 0 and afterNMI = 0
C1D9  D0 FC     BNE $C1D7                       A:01 X:00 Y:80 P:64 SP:FD
beforeNMI = 0 and afterNMI = 0
C1D7  A5 40     LDA $40 = 01                    A:01 X:00 Y:80 P:64 SP:FD
beforeNMI = 0 and afterNMI = 0
C1D9  D0 FC     BNE $C1D7                       A:01 X:00 Y:80 P:64 SP:FD
beforeNMI = 0 and afterNMI = 0
C1D7  A5 40     LDA $40 = 01                    A:01 X:00 Y:80 P:64 SP:FD
beforeNMI = 0 and afterNMI = 0
C1D9  D0 FC     BNE $C1D7                       A:01 X:00 Y:80 P:64 SP:FD
beforeNMI = 0 and afterNMI = 0
C1D7  A5 40     LDA $40 = 01                    A:01 X:00 Y:80 P:64 SP:FD
beforeNMI = 0 and afterNMI = 0
C1D9  D0 FC     BNE $C1D7                       A:01 X:00 Y:80 P:64 SP:FD
beforeNMI = 0 and afterNMI = 0
C1D7  A5 40     LDA $40 = 01                    A:01 X:00 Y:80 P:64 SP:FD
beforeNMI = 0 and afterNMI = 0
C1D9  D0 FC     BNE $C1D7                       A:01 X:00 Y:80 P:64 SP:FD
beforeNMI = 0 and afterNMI = 0
C1D7  A5 40     LDA $40 = 01                    A:01 X:00 Y:80 P:64 SP:FD
beforeNMI = 0 and afterNMI = 0
C1D9  D0 FC     BNE $C1D7                       A:01 X:00 Y:80 P:64 SP:FD
beforeNMI = 0 and afterNMI = 0
C1D7  A5 40     LDA $40 = 01                    A:01 X:00 Y:80 P:64 SP:FD
beforeNMI = 0 and afterNMI = 0
C1D9  D0 FC     BNE $C1D7                       A:01 X:00 Y:80 P:64 SP:FD
beforeNMI = 0 and afterNMI = 0
C1D7  A5 40     LDA $40 = 01                    A:01 X:00 Y:80 P:64 SP:FD
beforeNMI = 0 and afterNMI = 0
C1D9  D0 FC     BNE $C1D7                       A:01 X:00 Y:80 P:64 SP:FD
beforeNMI = 0 and afterNMI = 0
C1D7  A5 40     LDA $40 = 01                    A:01 X:00 Y:80 P:64 SP:FD
beforeNMI = 0 and afterNMI = 0
C1D9  D0 FC     BNE $C1D7                       A:01 X:00 Y:80 P:64 SP:FD
beforeNMI = 0 and afterNMI = 0
C1D7  A5 40     LDA $40 = 01                    A:01 X:00 Y:80 P:64 SP:FD
beforeNMI = 0 and afterNMI = 0
C1D9  D0 FC     BNE $C1D7                       A:01 X:00 Y:80 P:64 SP:FD
beforeNMI = 0 and afterNMI = 0
C1D7  A5 40     LDA $40 = 01                    A:01 X:00 Y:80 P:64 SP:FD
beforeNMI = 0 and afterNMI = 0
C1D9  D0 FC     BNE $C1D7                       A:01 X:00 Y:80 P:64 SP:FD
beforeNMI = 0 and afterNMI = 0
C1D7  A5 40     LDA $40 = 01                    A:01 X:00 Y:80 P:64 SP:FD
beforeNMI = 0 and afterNMI = 0
C1D9  D0 FC     BNE $C1D7                       A:01 X:00 Y:80 P:64 SP:FD
beforeNMI = 0 and afterNMI = 0
C1D7  A5 40     LDA $40 = 01                    A:01 X:00 Y:80 P:64 SP:FD
beforeNMI = 0 and afterNMI = 0
C1D9  D0 FC     BNE $C1D7                       A:01 X:00 Y:80 P:64 SP:FD
beforeNMI = 0 and afterNMI = 0
C1D7  A5 40     LDA $40 = 01                    A:01 X:00 Y:80 P:64 SP:FD
beforeNMI = 0 and afterNMI = 0
C1D9  D0 FC     BNE $C1D7                       A:01 X:00 Y:80 P:64 SP:FD
beforeNMI = 0 and afterNMI = 0
C1D7  A5 40     LDA $40 = 01                    A:01 X:00 Y:80 P:64 SP:FD
beforeNMI = 0 and afterNMI = 0
C1D9  D0 FC     BNE $C1D7                       A:01 X:00 Y:80 P:64 SP:FD
beforeNMI = 0 and afterNMI = 0
C1D7  A5 40     LDA $40 = 01                    A:01 X:00 Y:80 P:64 SP:FD
beforeNMI = 0 and afterNMI = 0
C1D9  D0 FC     BNE $C1D7                       A:01 X:00 Y:80 P:64 SP:FD
beforeNMI = 0 and afterNMI = 0
C1D7  A5 40     LDA $40 = 01                    A:01 X:00 Y:80 P:64 SP:FD
beforeNMI = 0 and afterNMI = 0
C1D9  D0 FC     BNE $C1D7                       A:01 X:00 Y:80 P:64 SP:FD
beforeNMI = 0 and afterNMI = 0
C1D7  A5 40     LDA $40 = 01                    A:01 X:00 Y:80 P:64 SP:FD
beforeNMI = 0 and afterNMI = 0
C1D9  D0 FC     BNE $C1D7                       A:01 X:00 Y:80 P:64 SP:FD
beforeNMI = 0 and afterNMI = 0
C1D7  A5 40     LDA $40 = 01                    A:01 X:00 Y:80 P:64 SP:FD
beforeNMI = 0 and afterNMI = 0
C1D9  D0 FC     BNE $C1D7                       A:01 X:00 Y:80 P:64 SP:FD
beforeNMI = 0 and afterNMI = 0
C1D7  A5 40     LDA $40 = 01                    A:01 X:00 Y:80 P:64 SP:FD
beforeNMI = 0 and afterNMI = 0
C1D9  D0 FC     BNE $C1D7                       A:01 X:00 Y:80 P:64 SP:FD
beforeNMI = 0 and afterNMI = 0
C1D7  A5 40     LDA $40 = 01                    A:01 X:00 Y:80 P:64 SP:FD
beforeNMI = 0 and afterNMI = 0
C1D9  D0 FC     BNE $C1D7                       A:01 X:00 Y:80 P:64 SP:FD
beforeNMI = 0 and afterNMI = 0
C1D7  A5 40     LDA $40 = 01                    A:01 X:00 Y:80 P:64 SP:FD
beforeNMI = 0 and afterNMI = 0
C1D9  D0 FC     BNE $C1D7                       A:01 X:00 Y:80 P:64 SP:FD
beforeNMI = 0 and afterNMI = 0
C1D7  A5 40     LDA $40 = 01                    A:01 X:00 Y:80 P:64 SP:FD
beforeNMI = 0 and afterNMI = 0
C1D9  D0 FC     BNE $C1D7                       A:01 X:00 Y:80 P:64 SP:FD
beforeNMI = 0 and afterNMI = 0
C1D7  A5 40     LDA $40 = 01                    A:01 X:00 Y:80 P:64 SP:FD
beforeNMI = 0 and afterNMI = 0
C1D9  D0 FC     BNE $C1D7                       A:01 X:00 Y:80 P:64 SP:FD
beforeNMI = 0 and afterNMI = 0
C1D7  A5 40     LDA $40 = 01                    A:01 X:00 Y:80 P:64 SP:FD
beforeNMI = 0 and afterNMI = 0
C1D9  D0 FC     BNE $C1D7                       A:01 X:00 Y:80 P:64 SP:FD
beforeNMI = 0 and afterNMI = 0
C1D7  A5 40     LDA $40 = 01                    A:01 X:00 Y:80 P:64 SP:FD
beforeNMI = 0 and afterNMI = 0
C1D9  D0 FC     BNE $C1D7                       A:01 X:00 Y:80 P:64 SP:FD
beforeNMI = 0 and afterNMI = 0
C1D7  A5 40     LDA $40 = 01                    A:01 X:00 Y:80 P:64 SP:FD
beforeNMI = 0 and afterNMI = 0
C1D9  D0 FC     BNE $C1D7                       A:01 X:00 Y:80 P:64 SP:FD
beforeNMI = 0 and afterNMI = 0
C1D7  A5 40     LDA $40 = 01                    A:01 X:00 Y:80 P:64 SP:FD
beforeNMI = 0 and afterNMI = 0
C1D9  D0 FC     BNE $C1D7                       A:01 X:00 Y:80 P:64 SP:FD
beforeNMI = 0 and afterNMI = 0
C1D7  A5 40     LDA $40 = 01                    A:01 X:00 Y:80 P:64 SP:FD
beforeNMI = 0 and afterNMI = 0
C1D9  D0 FC     BNE $C1D7                       A:01 X:00 Y:80 P:64 SP:FD
beforeNMI = 0 and afterNMI = 0
C1D7  A5 40     LDA $40 = 01                    A:01 X:00 Y:80 P:64 SP:FD
beforeNMI = 0 and afterNMI = 0
C1D9  D0 FC     BNE $C1D7                       A:01 X:00 Y:80 P:64 SP:FD
beforeNMI = 0 and afterNMI = 0
C1D7  A5 40     LDA $40 = 01                    A:01 X:00 Y:80 P:64 SP:FD
beforeNMI = 0 and afterNMI = 0
C1D9  D0 FC     BNE $C1D7                       A:01 X:00 Y:80 P:64 SP:FD
beforeNMI = 0 and afterNMI = 0
C1D7  A5 40     LDA $40 = 01                    A:01 X:00 Y:80 P:64 SP:FD
beforeNMI = 0 and afterNMI = 0
C1D9  D0 FC     BNE $C1D7                       A:01 X:00 Y:80 P:64 SP:FD
beforeNMI = 0 and afterNMI = 0
C1D7  A5 40     LDA $40 = 01                    A:01 X:00 Y:80 P:64 SP:FD
beforeNMI = 0 and afterNMI = 0
C1D9  D0 FC     BNE $C1D7                       A:01 X:00 Y:80 P:64 SP:FD
beforeNMI = 0 and afterNMI = 0
C1D7  A5 40     LDA $40 = 01                    A:01 X:00 Y:80 P:64 SP:FD
beforeNMI = 0 and afterNMI = 0
C1D9  D0 FC     BNE $C1D7                       A:01 X:00 Y:80 P:64 SP:FD
beforeNMI = 0 and afterNMI = 0
C1D7  A5 40     LDA $40 = 01                    A:01 X:00 Y:80 P:64 SP:FD
beforeNMI = 0 and afterNMI = 0
C1D9  D0 FC     BNE $C1D7                       A:01 X:00 Y:80 P:64 SP:FD
beforeNMI = 0 and afterNMI = 0
C1D7  A5 40     LDA $40 = 01                    A:01 X:00 Y:80 P:64 SP:FD
beforeNMI = 0 and afterNMI = 0
C1D9  D0 FC     BNE $C1D7                       A:01 X:00 Y:80 P:64 SP:FD
beforeNMI = 0 and afterNMI = 0
C1D7  A5 40     LDA $40 = 01                    A:01 X:00 Y:80 P:64 SP:FD
beforeNMI = 0 and afterNMI = 0
C1D9  D0 FC     BNE $C1D7                       A:01 X:00 Y:80 P:64 SP:FD
beforeNMI = 0 and afterNMI = 0
C1D7  A5 40     LDA $40 = 01                    A:01 X:00 Y:80 P:64 SP:FD
beforeNMI = 0 and afterNMI = 0
C1D9  D0 FC     BNE $C1D7                       A:01 X:00 Y:80 P:64 SP:FD
beforeNMI = 0 and afterNMI = 0
C1D7  A5 40     LDA $40 = 01                    A:01 X:00 Y:80 P:64 SP:FD
beforeNMI = 0 and afterNMI = 0
C1D9  D0 FC     BNE $C1D7                       A:01 X:00 Y:80 P:64 SP:FD
beforeNMI = 0 and afterNMI = 0
C1D7  A5 40     LDA $40 = 01                    A:01 X:00 Y:80 P:64 SP:FD
beforeNMI = 0 and afterNMI = 0
C1D9  D0 FC     BNE $C1D7                       A:01 X:00 Y:80 P:64 SP:FD
beforeNMI = 0 and afterNMI = 0
C1D7  A5 40     LDA $40 = 01                    A:01 X:00 Y:80 P:64 SP:FD
beforeNMI = 0 and afterNMI = 0
C1D9  D0 FC     BNE $C1D7                       A:01 X:00 Y:80 P:64 SP:FD
beforeNMI = 0 and afterNMI = 0
C1D7  A5 40     LDA $40 = 01                    A:01 X:00 Y:80 P:64 SP:FD
beforeNMI = 0 and afterNMI = 0
C1D9  D0 FC     BNE $C1D7                       A:01 X:00 Y:80 P:64 SP:FD
beforeNMI = 0 and afterNMI = 0
C1D7  A5 40     LDA $40 = 01                    A:01 X:00 Y:80 P:64 SP:FD
beforeNMI = 0 and afterNMI = 0
C1D9  D0 FC     BNE $C1D7                       A:01 X:00 Y:80 P:64 SP:FD
beforeNMI = 0 and afterNMI = 0
C1D7  A5 40     LDA $40 = 01                    A:01 X:00 Y:80 P:64 SP:FD
beforeNMI = 0 and afterNMI = 0
C1D9  D0 FC     BNE $C1D7                       A:01 X:00 Y:80 P:64 SP:FD
beforeNMI = 0 and afterNMI = 0
C1D7  A5 40     LDA $40 = 01                    A:01 X:00 Y:80 P:64 SP:FD
beforeNMI = 0 and afterNMI = 0
C1D9  D0 FC     BNE $C1D7                       A:01 X:00 Y:80 P:64 SP:FD
beforeNMI = 0 and afterNMI = 0
C1D7  A5 40     LDA $40 = 01                    A:01 X:00 Y:80 P:64 SP:FD
beforeNMI = 0 and afterNMI = 0
C1D9  D0 FC     BNE $C1D7                       A:01 X:00 Y:80 P:64 SP:FD
beforeNMI = 0 and afterNMI = 0
C1D7  A5 40     LDA $40 = 01                    A:01 X:00 Y:80 P:64 SP:FD
beforeNMI = 0 and afterNMI = 0
C1D9  D0 FC     BNE $C1D7                       A:01 X:00 Y:80 P:64 SP:FD
beforeNMI = 0 and afterNMI = 0
C1D7  A5 40     LDA $40 = 01                    A:01 X:00 Y:80 P:64 SP:FD
beforeNMI = 0 and afterNMI = 0
C1D9  D0 FC     BNE $C1D7                       A:01 X:00 Y:80 P:64 SP:FD
beforeNMI = 0 and afterNMI = 0
C1D7  A5 40     LDA $40 = 01                    A:01 X:00 Y:80 P:64 SP:FD
beforeNMI = 0 and afterNMI = 0
C1D9  D0 FC     BNE $C1D7                       A:01 X:00 Y:80 P:64 SP:FD
beforeNMI = 0 and afterNMI = 0
C1D7  A5 40     LDA $40 = 01                    A:01 X:00 Y:80 P:64 SP:FD
beforeNMI = 0 and afterNMI = 0
C1D9  D0 FC     BNE $C1D7                       A:01 X:00 Y:80 P:64 SP:FD
beforeNMI = 0 and afterNMI = 0
C1D7  A5 40     LDA $40 = 01                    A:01 X:00 Y:80 P:64 SP:FD
beforeNMI = 0 and afterNMI = 0
C1D9  D0 FC     BNE $C1D7                       A:01 X:00 Y:80 P:64 SP:FD
beforeNMI = 0 and afterNMI = 0
C1D7  A5 40     LDA $40 = 01                    A:01 X:00 Y:80 P:64 SP:FD
beforeNMI = 0 and afterNMI = 0
C1D9  D0 FC     BNE $C1D7                       A:01 X:00 Y:80 P:64 SP:FD
beforeNMI = 0 and afterNMI = 0
C1D7  A5 40     LDA $40 = 01                    A:01 X:00 Y:80 P:64 SP:FD
beforeNMI = 0 and afterNMI = 0
C1D9  D0 FC     BNE $C1D7                       A:01 X:00 Y:80 P:64 SP:FD
beforeNMI = 0 and afterNMI = 0
C1D7  A5 40     LDA $40 = 01                    A:01 X:00 Y:80 P:64 SP:FD
beforeNMI = 0 and afterNMI = 0
C1D9  D0 FC     BNE $C1D7                       A:01 X:00 Y:80 P:64 SP:FD
beforeNMI = 0 and afterNMI = 0
C1D7  A5 40     LDA $40 = 01                    A:01 X:00 Y:80 P:64 SP:FD
beforeNMI = 0 and afterNMI = 0
C1D9  D0 FC     BNE $C1D7                       A:01 X:00 Y:80 P:64 SP:FD
beforeNMI = 0 and afterNMI = 0
C1D7  A5 40     LDA $40 = 01                    A:01 X:00 Y:80 P:64 SP:FD
beforeNMI = 0 and afterNMI = 0
C1D9  D0 FC     BNE $C1D7                       A:01 X:00 Y:80 P:64 SP:FD
beforeNMI = 0 and afterNMI = 0
C1D7  A5 40     LDA $40 = 01                    A:01 X:00 Y:80 P:64 SP:FD
beforeNMI = 0 and afterNMI = 0
C1D9  D0 FC     BNE $C1D7                       A:01 X:00 Y:80 P:64 SP:FD
beforeNMI = 0 and afterNMI = 0
C1D7  A5 40     LDA $40 = 01                    A:01 X:00 Y:80 P:64 SP:FD
beforeNMI = 0 and afterNMI = 0
C1D9  D0 FC     BNE $C1D7                       A:01 X:00 Y:80 P:64 SP:FD
beforeNMI = 0 and afterNMI = 0
C1D7  A5 40     LDA $40 = 01                    A:01 X:00 Y:80 P:64 SP:FD
beforeNMI = 0 and afterNMI = 0
C1D9  D0 FC     BNE $C1D7                       A:01 X:00 Y:80 P:64 SP:FD
beforeNMI = 0 and afterNMI = 0
C1D7  A5 40     LDA $40 = 01                    A:01 X:00 Y:80 P:64 SP:FD
beforeNMI = 0 and afterNMI = 0
C1D9  D0 FC     BNE $C1D7                       A:01 X:00 Y:80 P:64 SP:FD
beforeNMI = 0 and afterNMI = 0
C1D7  A5 40     LDA $40 = 01                    A:01 X:00 Y:80 P:64 SP:FD
beforeNMI = 0 and afterNMI = 0
C1D9  D0 FC     BNE $C1D7                       A:01 X:00 Y:80 P:64 SP:FD
beforeNMI = 0 and afterNMI = 0
C1D7  A5 40     LDA $40 = 01                    A:01 X:00 Y:80 P:64 SP:FD
beforeNMI = 0 and afterNMI = 0
C1D9  D0 FC     BNE $C1D7                       A:01 X:00 Y:80 P:64 SP:FD
beforeNMI = 0 and afterNMI = 0
C1D7  A5 40     LDA $40 = 01                    A:01 X:00 Y:80 P:64 SP:FD
beforeNMI = 0 and afterNMI = 0
C1D9  D0 FC     BNE $C1D7                       A:01 X:00 Y:80 P:64 SP:FD
beforeNMI = 0 and afterNMI = 0
C1D7  A5 40     LDA $40 = 01                    A:01 X:00 Y:80 P:64 SP:FD
beforeNMI = 0 and afterNMI = 0
C1D9  D0 FC     BNE $C1D7                       A:01 X:00 Y:80 P:64 SP:FD
beforeNMI = 0 and afterNMI = 0
C1D7  A5 40     LDA $40 = 01                    A:01 X:00 Y:80 P:64 SP:FD
beforeNMI = 0 and afterNMI = 0
C1D9  D0 FC     BNE $C1D7                       A:01 X:00 Y:80 P:64 SP:FD
beforeNMI = 0 and afterNMI = 0
C1D7  A5 40     LDA $40 = 01                    A:01 X:00 Y:80 P:64 SP:FD
beforeNMI = 0 and afterNMI = 0
C1D9  D0 FC     BNE $C1D7                       A:01 X:00 Y:80 P:64 SP:FD
beforeNMI = 0 and afterNMI = 0
C1D7  A5 40     LDA $40 = 01                    A:01 X:00 Y:80 P:64 SP:FD
beforeNMI = 0 and afterNMI = 0
C1D9  D0 FC     BNE $C1D7                       A:01 X:00 Y:80 P:64 SP:FD
beforeNMI = 0 and afterNMI = 0
C1D7  A5 40     LDA $40 = 01                    A:01 X:00 Y:80 P:64 SP:FD
beforeNMI = 0 and afterNMI = 0
C1D9  D0 FC     BNE $C1D7                       A:01 X:00 Y:80 P:64 SP:FD
beforeNMI = 0 and afterNMI = 0
C1D7  A5 40     LDA $40 = 01                    A:01 X:00 Y:80 P:64 SP:FD
beforeNMI = 0 and afterNMI = 0
C1D9  D0 FC     BNE $C1D7                       A:01 X:00 Y:80 P:64 SP:FD
beforeNMI = 0 and afterNMI = 0
C1D7  A5 40     LDA $40 = 01                    A:01 X:00 Y:80 P:64 SP:FD
beforeNMI = 0 and afterNMI = 0
C1D9  D0 FC     BNE $C1D7                       A:01 X:00 Y:80 P:64 SP:FD
beforeNMI = 0 and afterNMI = 0
C1D7  A5 40     LDA $40 = 01                    A:01 X:00 Y:80 P:64 SP:FD
beforeNMI = 0 and afterNMI = 0
C1D9  D0 FC     BNE $C1D7                       A:01 X:00 Y:80 P:64 SP:FD
beforeNMI = 0 and afterNMI = 0
C1D7  A5 40     LDA $40 = 01                    A:01 X:00 Y:80 P:64 SP:FD
beforeNMI = 0 and afterNMI = 0
C1D9  D0 FC     BNE $C1D7                       A:01 X:00 Y:80 P:64 SP:FD
beforeNMI = 0 and afterNMI = 0
C1D7  A5 40     LDA $40 = 01                    A:01 X:00 Y:80 P:64 SP:FD
beforeNMI = 0 and afterNMI = 0
C1D9  D0 FC     BNE $C1D7                       A:01 X:00 Y:80 P:64 SP:FD
beforeNMI = 0 and afterNMI = 0
C1D7  A5 40     LDA $40 = 01                    A:01 X:00 Y:80 P:64 SP:FD
beforeNMI = 0 and afterNMI = 0
C1D9  D0 FC     BNE $C1D7                       A:01 X:00 Y:80 P:64 SP:FD
beforeNMI = 0 and afterNMI = 0
C1D7  A5 40     LDA $40 = 01                    A:01 X:00 Y:80 P:64 SP:FD
beforeNMI = 0 and afterNMI = 0
C1D9  D0 FC     BNE $C1D7                       A:01 X:00 Y:80 P:64 SP:FD
beforeNMI = 0 and afterNMI = 0
C1D7  A5 40     LDA $40 = 01                    A:01 X:00 Y:80 P:64 SP:FD
beforeNMI = 0 and afterNMI = 0
C1D9  D0 FC     BNE $C1D7                       A:01 X:00 Y:80 P:64 SP:FD
beforeNMI = 0 and afterNMI = 0
C1D7  A5 40     LDA $40 = 01                    A:01 X:00 Y:80 P:64 SP:FD
beforeNMI = 0 and afterNMI = 0
C1D9  D0 FC     BNE $C1D7                       A:01 X:00 Y:80 P:64 SP:FD
beforeNMI = 0 and afterNMI = 0
C1D7  A5 40     LDA $40 = 01                    A:01 X:00 Y:80 P:64 SP:FD
beforeNMI = 0 and afterNMI = 0
C1D9  D0 FC     BNE $C1D7                       A:01 X:00 Y:80 P:64 SP:FD
beforeNMI = 0 and afterNMI = 0
C1D7  A5 40     LDA $40 = 01                    A:01 X:00 Y:80 P:64 SP:FD
beforeNMI = 0 and afterNMI = 0
C1D9  D0 FC     BNE $C1D7                       A:01 X:00 Y:80 P:64 SP:FD
beforeNMI = 0 and afterNMI = 0
C1D7  A5 40     LDA $40 = 01                    A:01 X:00 Y:80 P:64 SP:FD
beforeNMI = 0 and afterNMI = 0
C1D9  D0 FC     BNE $C1D7                       A:01 X:00 Y:80 P:64 SP:FD
beforeNMI = 0 and afterNMI = 0
C1D7  A5 40     LDA $40 = 01                    A:01 X:00 Y:80 P:64 SP:FD
beforeNMI = 0 and afterNMI = 0
C1D9  D0 FC     BNE $C1D7                       A:01 X:00 Y:80 P:64 SP:FD
beforeNMI = 0 and afterNMI = 0
C1D7  A5 40     LDA $40 = 01                    A:01 X:00 Y:80 P:64 SP:FD
beforeNMI = 0 and afterNMI = 0
C1D9  D0 FC     BNE $C1D7                       A:01 X:00 Y:80 P:64 SP:FD
beforeNMI = 0 and afterNMI = 0
C1D7  A5 40     LDA $40 = 01                    A:01 X:00 Y:80 P:64 SP:FD
beforeNMI = 0 and afterNMI = 0
C1D9  D0 FC     BNE $C1D7                       A:01 X:00 Y:80 P:64 SP:FD
beforeNMI = 0 and afterNMI = 0
C1D7  A5 40     LDA $40 = 01                    A:01 X:00 Y:80 P:64 SP:FD
beforeNMI = 0 and afterNMI = 0
C1D9  D0 FC     BNE $C1D7                       A:01 X:00 Y:80 P:64 SP:FD
beforeNMI = 0 and afterNMI = 0
C1D7  A5 40     LDA $40 = 01                    A:01 X:00 Y:80 P:64 SP:FD
beforeNMI = 0 and afterNMI = 0
C1D9  D0 FC     BNE $C1D7                       A:01 X:00 Y:80 P:64 SP:FD
beforeNMI = 0 and afterNMI = 0
C1D7  A5 40     LDA $40 = 01                    A:01 X:00 Y:80 P:64 SP:FD
beforeNMI = 0 and afterNMI = 0
C1D9  D0 FC     BNE $C1D7                       A:01 X:00 Y:80 P:64 SP:FD
beforeNMI = 0 and afterNMI = 0
C1D7  A5 40     LDA $40 = 01                    A:01 X:00 Y:80 P:64 SP:FD
beforeNMI = 0 and afterNMI = 0
C1D9  D0 FC     BNE $C1D7                       A:01 X:00 Y:80 P:64 SP:FD
beforeNMI = 0 and afterNMI = 0
C1D7  A5 40     LDA $40 = 01                    A:01 X:00 Y:80 P:64 SP:FD
beforeNMI = 0 and afterNMI = 0
C1D9  D0 FC     BNE $C1D7                       A:01 X:00 Y:80 P:64 SP:FD
beforeNMI = 0 and afterNMI = 0
C1D7  A5 40     LDA $40 = 01                    A:01 X:00 Y:80 P:64 SP:FD
beforeNMI = 0 and afterNMI = 0
C1D9  D0 FC     BNE $C1D7                       A:01 X:00 Y:80 P:64 SP:FD
beforeNMI = 0 and afterNMI = 0
C1D7  A5 40     LDA $40 = 01                    A:01 X:00 Y:80 P:64 SP:FD
beforeNMI = 0 and afterNMI = 0
C1D9  D0 FC     BNE $C1D7                       A:01 X:00 Y:80 P:64 SP:FD
beforeNMI = 0 and afterNMI = 0
C1D7  A5 40     LDA $40 = 01                    A:01 X:00 Y:80 P:64 SP:FD
beforeNMI = 0 and afterNMI = 0
C1D9  D0 FC     BNE $C1D7                       A:01 X:00 Y:80 P:64 SP:FD
beforeNMI = 0 and afterNMI = 0
C1D7  A5 40     LDA $40 = 01                    A:01 X:00 Y:80 P:64 SP:FD
beforeNMI = 0 and afterNMI = 0
C1D9  D0 FC     BNE $C1D7                       A:01 X:00 Y:80 P:64 SP:FD
beforeNMI = 0 and afterNMI = 0
C1D7  A5 40     LDA $40 = 01                    A:01 X:00 Y:80 P:64 SP:FD
beforeNMI = 0 and afterNMI = 0
C1D9  D0 FC     BNE $C1D7                       A:01 X:00 Y:80 P:64 SP:FD
beforeNMI = 0 and afterNMI = 0
C1D7  A5 40     LDA $40 = 01                    A:01 X:00 Y:80 P:64 SP:FD
beforeNMI = 0 and afterNMI = 0
C1D9  D0 FC     BNE $C1D7                       A:01 X:00 Y:80 P:64 SP:FD
beforeNMI = 0 and afterNMI = 0
C1D7  A5 40     LDA $40 = 01                    A:01 X:00 Y:80 P:64 SP:FD
beforeNMI = 0 and afterNMI = 0
C1D9  D0 FC     BNE $C1D7                       A:01 X:00 Y:80 P:64 SP:FD
beforeNMI = 0 and afterNMI = 0
C1D7  A5 40     LDA $40 = 01                    A:01 X:00 Y:80 P:64 SP:FD
beforeNMI = 0 and afterNMI = 0
C1D9  D0 FC     BNE $C1D7                       A:01 X:00 Y:80 P:64 SP:FD
beforeNMI = 0 and afterNMI = 0
C1D7  A5 40     LDA $40 = 01                    A:01 X:00 Y:80 P:64 SP:FD
beforeNMI = 0 and afterNMI = 0
C1D9  D0 FC     BNE $C1D7                       A:01 X:00 Y:80 P:64 SP:FD
beforeNMI = 0 and afterNMI = 0
C1D7  A5 40     LDA $40 = 01                    A:01 X:00 Y:80 P:64 SP:FD
beforeNMI = 0 and afterNMI = 0
C1D9  D0 FC     BNE $C1D7                       A:01 X:00 Y:80 P:64 SP:FD
beforeNMI = 0 and afterNMI = 0
C1D7  A5 40     LDA $40 = 01                    A:01 X:00 Y:80 P:64 SP:FD
beforeNMI = 0 and afterNMI = 0
C1D9  D0 FC     BNE $C1D7                       A:01 X:00 Y:80 P:64 SP:FD
beforeNMI = 0 and afterNMI = 0
C1D7  A5 40     LDA $40 = 01                    A:01 X:00 Y:80 P:64 SP:FD
beforeNMI = 0 and afterNMI = 0
C1D9  D0 FC     BNE $C1D7                       A:01 X:00 Y:80 P:64 SP:FD
beforeNMI = 0 and afterNMI = 0
C1D7  A5 40     LDA $40 = 01                    A:01 X:00 Y:80 P:64 SP:FD
beforeNMI = 0 and afterNMI = 0
C1D9  D0 FC     BNE $C1D7                       A:01 X:00 Y:80 P:64 SP:FD
beforeNMI = 0 and afterNMI = 0
C1D7  A5 40     LDA $40 = 01                    A:01 X:00 Y:80 P:64 SP:FD
beforeNMI = 0 and afterNMI = 0
C1D9  D0 FC     BNE $C1D7                       A:01 X:00 Y:80 P:64 SP:FD
beforeNMI = 0 and afterNMI = 0
C1D7  A5 40     LDA $40 = 01                    A:01 X:00 Y:80 P:64 SP:FD
beforeNMI = 0 and afterNMI = 0
C1D9  D0 FC     BNE $C1D7                       A:01 X:00 Y:80 P:64 SP:FD
beforeNMI = 0 and afterNMI = 0
C1D7  A5 40     LDA $40 = 01                    A:01 X:00 Y:80 P:64 SP:FD
beforeNMI = 0 and afterNMI = 0
C1D9  D0 FC     BNE $C1D7                       A:01 X:00 Y:80 P:64 SP:FD
beforeNMI = 0 and afterNMI = 0
C1D7  A5 40     LDA $40 = 01                    A:01 X:00 Y:80 P:64 SP:FD
beforeNMI = 0 and afterNMI = 0
C1D9  D0 FC     BNE $C1D7                       A:01 X:00 Y:80 P:64 SP:FD
beforeNMI = 0 and afterNMI = 0
C1D7  A5 40     LDA $40 = 01                    A:01 X:00 Y:80 P:64 SP:FD
beforeNMI = 0 and afterNMI = 0
C1D9  D0 FC     BNE $C1D7                       A:01 X:00 Y:80 P:64 SP:FD
beforeNMI = 0 and afterNMI = 0
C1D7  A5 40     LDA $40 = 01                    A:01 X:00 Y:80 P:64 SP:FD
beforeNMI = 0 and afterNMI = 0
C1D9  D0 FC     BNE $C1D7                       A:01 X:00 Y:80 P:64 SP:FD
beforeNMI = 0 and afterNMI = 0
C1D7  A5 40     LDA $40 = 01                    A:01 X:00 Y:80 P:64 SP:FD
beforeNMI = 0 and afterNMI = 0
C1D9  D0 FC     BNE $C1D7                       A:01 X:00 Y:80 P:64 SP:FD
beforeNMI = 0 and afterNMI = 0
C1D7  A5 40     LDA $40 = 01                    A:01 X:00 Y:80 P:64 SP:FD
beforeNMI = 0 and afterNMI = 0
C1D9  D0 FC     BNE $C1D7                       A:01 X:00 Y:80 P:64 SP:FD
beforeNMI = 0 and afterNMI = 0
C1D7  A5 40     LDA $40 = 01                    A:01 X:00 Y:80 P:64 SP:FD
beforeNMI = 0 and afterNMI = 0
C1D9  D0 FC     BNE $C1D7                       A:01 X:00 Y:80 P:64 SP:FD
beforeNMI = 0 and afterNMI = 0
C1D7  A5 40     LDA $40 = 01                    A:01 X:00 Y:80 P:64 SP:FD
beforeNMI = 0 and afterNMI = 0
C1D9  D0 FC     BNE $C1D7                       A:01 X:00 Y:80 P:64 SP:FD
beforeNMI = 0 and afterNMI = 0
C1D7  A5 40     LDA $40 = 01                    A:01 X:00 Y:80 P:64 SP:FD
beforeNMI = 0 and afterNMI = 0
C1D9  D0 FC     BNE $C1D7                       A:01 X:00 Y:80 P:64 SP:FD
beforeNMI = 0 and afterNMI = 0
C1D7  A5 40     LDA $40 = 01                    A:01 X:00 Y:80 P:64 SP:FD
beforeNMI = 0 and afterNMI = 0
C1D9  D0 FC     BNE $C1D7                       A:01 X:00 Y:80 P:64 SP:FD
beforeNMI = 0 and afterNMI = 0
C1D7  A5 40     LDA $40 = 01                    A:01 X:00 Y:80 P:64 SP:FD
beforeNMI = 0 and afterNMI = 0
C1D9  D0 FC     BNE $C1D7                       A:01 X:00 Y:80 P:64 SP:FD
beforeNMI = 0 and afterNMI = 0
C1D7  A5 40     LDA $40 = 01                    A:01 X:00 Y:80 P:64 SP:FD
beforeNMI = 0 and afterNMI = 0
C1D9  D0 FC     BNE $C1D7                       A:01 X:00 Y:80 P:64 SP:FD
beforeNMI = 0 and afterNMI = 0
C1D7  A5 40     LDA $40 = 01                    A:01 X:00 Y:80 P:64 SP:FD
beforeNMI = 0 and afterNMI = 0
C1D9  D0 FC     BNE $C1D7                       A:01 X:00 Y:80 P:64 SP:FD
beforeNMI = 0 and afterNMI = 0
C1D7  A5 40     LDA $40 = 01                    A:01 X:00 Y:80 P:64 SP:FD
beforeNMI = 0 and afterNMI = 0
C1D9  D0 FC     BNE $C1D7                       A:01 X:00 Y:80 P:64 SP:FD
beforeNMI = 0 and afterNMI = 0
C1D7  A5 40     LDA $40 = 01                    A:01 X:00 Y:80 P:64 SP:FD
beforeNMI = 0 and afterNMI = 0
C1D9  D0 FC     BNE $C1D7                       A:01 X:00 Y:80 P:64 SP:FD
beforeNMI = 0 and afterNMI = 0
C1D7  A5 40     LDA $40 = 01                    A:01 X:00 Y:80 P:64 SP:FD
beforeNMI = 0 and afterNMI = 0
C1D9  D0 FC     BNE $C1D7                       A:01 X:00 Y:80 P:64 SP:FD
beforeNMI = 0 and afterNMI = 0
C1D7  A5 40     LDA $40 = 01                    A:01 X:00 Y:80 P:64 SP:FD
beforeNMI = 0 and afterNMI = 0
C1D9  D0 FC     BNE $C1D7                       A:01 X:00 Y:80 P:64 SP:FD
beforeNMI = 0 and afterNMI = 0
C1D7  A5 40     LDA $40 = 01                    A:01 X:00 Y:80 P:64 SP:FD
beforeNMI = 0 and afterNMI = 0
C1D9  D0 FC     BNE $C1D7                       A:01 X:00 Y:80 P:64 SP:FD
beforeNMI = 0 and afterNMI = 0
C1D7  A5 40     LDA $40 = 01                    A:01 X:00 Y:80 P:64 SP:FD
beforeNMI = 0 and afterNMI = 0
C1D9  D0 FC     BNE $C1D7                       A:01 X:00 Y:80 P:64 SP:FD
beforeNMI = 0 and afterNMI = 0
C1D7  A5 40     LDA $40 = 01                    A:01 X:00 Y:80 P:64 SP:FD
beforeNMI = 0 and afterNMI = 0
C1D9  D0 FC     BNE $C1D7                       A:01 X:00 Y:80 P:64 SP:FD
beforeNMI = 0 and afterNMI = 0
C1D7  A5 40     LDA $40 = 01                    A:01 X:00 Y:80 P:64 SP:FD
beforeNMI = 0 and afterNMI = 0
C1D9  D0 FC     BNE $C1D7                       A:01 X:00 Y:80 P:64 SP:FD
beforeNMI = 0 and afterNMI = 0
C1D7  A5 40     LDA $40 = 01                    A:01 X:00 Y:80 P:64 SP:FD
beforeNMI = 0 and afterNMI = 0
C1D9  D0 FC     BNE $C1D7                       A:01 X:00 Y:80 P:64 SP:FD
beforeNMI = 0 and afterNMI = 0
C1D7  A5 40     LDA $40 = 01                    A:01 X:00 Y:80 P:64 SP:FD
beforeNMI = 0 and afterNMI = 0
C1D9  D0 FC     BNE $C1D7                       A:01 X:00 Y:80 P:64 SP:FD
beforeNMI = 0 and afterNMI = 0
C1D7  A5 40     LDA $40 = 01                    A:01 X:00 Y:80 P:64 SP:FD
beforeNMI = 0 and afterNMI = 0
C1D9  D0 FC     BNE $C1D7                       A:01 X:00 Y:80 P:64 SP:FD
beforeNMI = 0 and afterNMI = 0
C1D7  A5 40     LDA $40 = 01                    A:01 X:00 Y:80 P:64 SP:FD
beforeNMI = 0 and afterNMI = 0
C1D9  D0 FC     BNE $C1D7                       A:01 X:00 Y:80 P:64 SP:FD
beforeNMI = 0 and afterNMI = 0
C1D7  A5 40     LDA $40 = 01                    A:01 X:00 Y:80 P:64 SP:FD
beforeNMI = 0 and afterNMI = 0
C1D9  D0 FC     BNE $C1D7                       A:01 X:00 Y:80 P:64 SP:FD
beforeNMI = 0 and afterNMI = 0
C1D7  A5 40     LDA $40 = 01                    A:01 X:00 Y:80 P:64 SP:FD
beforeNMI = 0 and afterNMI = 0
C1D9  D0 FC     BNE $C1D7                       A:01 X:00 Y:80 P:64 SP:FD
beforeNMI = 0 and afterNMI = 0
C1D7  A5 40     LDA $40 = 01                    A:01 X:00 Y:80 P:64 SP:FD
beforeNMI = 0 and afterNMI = 0
C1D9  D0 FC     BNE $C1D7                       A:01 X:00 Y:80 P:64 SP:FD
beforeNMI = 0 and afterNMI = 0
C1D7  A5 40     LDA $40 = 01                    A:01 X:00 Y:80 P:64 SP:FD
beforeNMI = 0 and afterNMI = 0
C1D9  D0 FC     BNE $C1D7                       A:01 X:00 Y:80 P:64 SP:FD
beforeNMI = 0 and afterNMI = 0
C1D7  A5 40     LDA $40 = 01                    A:01 X:00 Y:80 P:64 SP:FD
beforeNMI = 0 and afterNMI = 0
C1D9  D0 FC     BNE $C1D7                       A:01 X:00 Y:80 P:64 SP:FD
beforeNMI = 0 and afterNMI = 0
C1D7  A5 40     LDA $40 = 01                    A:01 X:00 Y:80 P:64 SP:FD
beforeNMI = 0 and afterNMI = 0
C1D9  D0 FC     BNE $C1D7                       A:01 X:00 Y:80 P:64 SP:FD
beforeNMI = 0 and afterNMI = 0
C1D7  A5 40     LDA $40 = 01                    A:01 X:00 Y:80 P:64 SP:FD
beforeNMI = 0 and afterNMI = 0
C1D9  D0 FC     BNE $C1D7                       A:01 X:00 Y:80 P:64 SP:FD
beforeNMI = 0 and afterNMI = 0
C1D7  A5 40     LDA $40 = 01                    A:01 X:00 Y:80 P:64 SP:FD
beforeNMI = 0 and afterNMI = 0
C1D9  D0 FC     BNE $C1D7                       A:01 X:00 Y:80 P:64 SP:FD
beforeNMI = 0 and afterNMI = 0
C1D7  A5 40     LDA $40 = 01                    A:01 X:00 Y:80 P:64 SP:FD
beforeNMI = 0 and afterNMI = 0
C1D9  D0 FC     BNE $C1D7                       A:01 X:00 Y:80 P:64 SP:FD
beforeNMI = 0 and afterNMI = 0
C1D7  A5 40     LDA $40 = 01                    A:01 X:00 Y:80 P:64 SP:FD
beforeNMI = 0 and afterNMI = 0
C1D9  D0 FC     BNE $C1D7                       A:01 X:00 Y:80 P:64 SP:FD
beforeNMI = 0 and afterNMI = 0
C1D7  A5 40     LDA $40 = 01                    A:01 X:00 Y:80 P:64 SP:FD
beforeNMI = 0 and afterNMI = 0
C1D9  D0 FC     BNE $C1D7                       A:01 X:00 Y:80 P:64 SP:FD
beforeNMI = 0 and afterNMI = 0
C1D7  A5 40     LDA $40 = 01                    A:01 X:00 Y:80 P:64 SP:FD
beforeNMI = 0 and afterNMI = 0
C1D9  D0 FC     BNE $C1D7                       A:01 X:00 Y:80 P:64 SP:FD
beforeNMI = 0 and afterNMI = 0
C1D7  A5 40     LDA $40 = 01                    A:01 X:00 Y:80 P:64 SP:FD
beforeNMI = 0 and afterNMI = 0
C1D9  D0 FC     BNE $C1D7                       A:01 X:00 Y:80 P:64 SP:FD
beforeNMI = 0 and afterNMI = 0
C1D7  A5 40     LDA $40 = 01                    A:01 X:00 Y:80 P:64 SP:FD
beforeNMI = 0 and afterNMI = 0
C1D9  D0 FC     BNE $C1D7                       A:01 X:00 Y:80 P:64 SP:FD
beforeNMI = 0 and afterNMI = 0
C1D7  A5 40     LDA $40 = 01                    A:01 X:00 Y:80 P:64 SP:FD
beforeNMI = 0 and afterNMI = 0
C1D9  D0 FC     BNE $C1D7                       A:01 X:00 Y:80 P:64 SP:FD
beforeNMI = 0 and afterNMI = 0
C1D7  A5 40     LDA $40 = 01                    A:01 X:00 Y:80 P:64 SP:FD
beforeNMI = 0 and afterNMI = 0
C1D9  D0 FC     BNE $C1D7                       A:01 X:00 Y:80 P:64 SP:FD
beforeNMI = 0 and afterNMI = 0
C1D7  A5 40     LDA $40 = 01                    A:01 X:00 Y:80 P:64 SP:FD
beforeNMI = 0 and afterNMI = 0
C1D9  D0 FC     BNE $C1D7                       A:01 X:00 Y:80 P:64 SP:FD
beforeNMI = 0 and afterNMI = 0
C1D7  A5 40     LDA $40 = 01                    A:01 X:00 Y:80 P:64 SP:FD
beforeNMI = 0 and afterNMI = 0
C1D9  D0 FC     BNE $C1D7                       A:01 X:00 Y:80 P:64 SP:FD
beforeNMI = 0 and afterNMI = 0
C1D7  A5 40     LDA $40 = 01                    A:01 X:00 Y:80 P:64 SP:FD
beforeNMI = 0 and afterNMI = 0
C1D9  D0 FC     BNE $C1D7                       A:01 X:00 Y:80 P:64 SP:FD
beforeNMI = 0 and afterNMI = 0
C1D7  A5 40     LDA $40 = 01                    A:01 X:00 Y:80 P:64 SP:FD
beforeNMI = 0 and afterNMI = 0
C1D9  D0 FC     BNE $C1D7                       A:01 X:00 Y:80 P:64 SP:FD
beforeNMI = 0 and afterNMI = 0
C1D7  A5 40     LDA $40 = 01                    A:01 X:00 Y:80 P:64 SP:FD
beforeNMI = 0 and afterNMI = 0
C1D9  D0 FC     BNE $C1D7                       A:01 X:00 Y:80 P:64 SP:FD
beforeNMI = 0 and afterNMI = 0
C1D7  A5 40     LDA $40 = 01                    A:01 X:00 Y:80 P:64 SP:FD
beforeNMI = 0 and afterNMI = 0
C1D9  D0 FC     BNE $C1D7                       A:01 X:00 Y:80 P:64 SP:FD
beforeNMI = 0 and afterNMI = 0
C1D7  A5 40     LDA $40 = 01                    A:01 X:00 Y:80 P:64 SP:FD
beforeNMI = 0 and afterNMI = 0
C1D9  D0 FC     BNE $C1D7                       A:01 X:00 Y:80 P:64 SP:FD
beforeNMI = 0 and afterNMI = 0
C1D7  A5 40     LDA $40 = 01                    A:01 X:00 Y:80 P:64 SP:FD
beforeNMI = 0 and afterNMI = 0
C1D9  D0 FC     BNE $C1D7                       A:01 X:00 Y:80 P:64 SP:FD
beforeNMI = 0 and afterNMI = 0
C1D7  A5 40     LDA $40 = 01                    A:01 X:00 Y:80 P:64 SP:FD
beforeNMI = 0 and afterNMI = 0
C1D9  D0 FC     BNE $C1D7                       A:01 X:00 Y:80 P:64 SP:FD
beforeNMI = 0 and afterNMI = 0
C1D7  A5 40     LDA $40 = 01                    A:01 X:00 Y:80 P:64 SP:FD
beforeNMI = 0 and afterNMI = 0
C1D9  D0 FC     BNE $C1D7                       A:01 X:00 Y:80 P:64 SP:FD
beforeNMI = 0 and afterNMI = 0
C1D7  A5 40     LDA $40 = 01                    A:01 X:00 Y:80 P:64 SP:FD
beforeNMI = 0 and afterNMI = 0
C1D9  D0 FC     BNE $C1D7                       A:01 X:00 Y:80 P:64 SP:FD
beforeNMI = 0 and afterNMI = 0
C1D7  A5 40     LDA $40 = 01                    A:01 X:00 Y:80 P:64 SP:FD
beforeNMI = 0 and afterNMI = 0
C1D9  D0 FC     BNE $C1D7                       A:01 X:00 Y:80 P:64 SP:FD
beforeNMI = 0 and afterNMI = 0
C1D7  A5 40     LDA $40 = 01                    A:01 X:00 Y:80 P:64 SP:FD
beforeNMI = 0 and afterNMI = 0
C1D9  D0 FC     BNE $C1D7                       A:01 X:00 Y:80 P:64 SP:FD
beforeNMI = 0 and afterNMI = 0
C1D7  A5 40     LDA $40 = 01                    A:01 X:00 Y:80 P:64 SP:FD
beforeNMI = 0 and afterNMI = 0
C1D9  D0 FC     BNE $C1D7                       A:01 X:00 Y:80 P:64 SP:FD
beforeNMI = 0 and afterNMI = 0
C1D7  A5 40     LDA $40 = 01                    A:01 X:00 Y:80 P:64 SP:FD
beforeNMI = 0 and afterNMI = 0
C1D9  D0 FC     BNE $C1D7                       A:01 X:00 Y:80 P:64 SP:FD
beforeNMI = 0 and afterNMI = 0
C1D7  A5 40     LDA $40 = 01                    A:01 X:00 Y:80 P:64 SP:FD
beforeNMI = 0 and afterNMI = 0
C1D9  D0 FC     BNE $C1D7                       A:01 X:00 Y:80 P:64 SP:FD
beforeNMI = 0 and afterNMI = 0
C1D7  A5 40     LDA $40 = 01                    A:01 X:00 Y:80 P:64 SP:FD
beforeNMI = 0 and afterNMI = 0
C1D9  D0 FC     BNE $C1D7                       A:01 X:00 Y:80 P:64 SP:FD
beforeNMI = 0 and afterNMI = 0
C1D7  A5 40     LDA $40 = 01                    A:01 X:00 Y:80 P:64 SP:FD
beforeNMI = 0 and afterNMI = 0
C1D9  D0 FC     BNE $C1D7                       A:01 X:00 Y:80 P:64 SP:FD
beforeNMI = 0 and afterNMI = 0
C1D7  A5 40     LDA $40 = 01                    A:01 X:00 Y:80 P:64 SP:FD
beforeNMI = 0 and afterNMI = 0
C1D9  D0 FC     BNE $C1D7                       A:01 X:00 Y:80 P:64 SP:FD
beforeNMI = 0 and afterNMI = 0
C1D7  A5 40     LDA $40 = 01                    A:01 X:00 Y:80 P:64 SP:FD
beforeNMI = 0 and afterNMI = 0
C1D9  D0 FC     BNE $C1D7                       A:01 X:00 Y:80 P:64 SP:FD
beforeNMI = 0 and afterNMI = 0
C1D7  A5 40     LDA $40 = 01                    A:01 X:00 Y:80 P:64 SP:FD
beforeNMI = 0 and afterNMI = 0
C1D9  D0 FC     BNE $C1D7                       A:01 X:00 Y:80 P:64 SP:FD
beforeNMI = 0 and afterNMI = 0
C1D7  A5 40     LDA $40 = 01                    A:01 X:00 Y:80 P:64 SP:FD
beforeNMI = 0 and afterNMI = 0
C1D9  D0 FC     BNE $C1D7                       A:01 X:00 Y:80 P:64 SP:FD
beforeNMI = 0 and afterNMI = 0
C1D7  A5 40     LDA $40 = 01                    A:01 X:00 Y:80 P:64 SP:FD
beforeNMI = 0 and afterNMI = 0
C1D9  D0 FC     BNE $C1D7                       A:01 X:00 Y:80 P:64 SP:FD
beforeNMI = 0 and afterNMI = 0
C1D7  A5 40     LDA $40 = 01                    A:01 X:00 Y:80 P:64 SP:FD
beforeNMI = 0 and afterNMI = 0
C1D9  D0 FC     BNE $C1D7                       A:01 X:00 Y:80 P:64 SP:FD
beforeNMI = 0 and afterNMI = 0
C1D7  A5 40     LDA $40 = 01                    A:01 X:00 Y:80 P:64 SP:FD
beforeNMI = 0 and afterNMI = 0
C1D9  D0 FC     BNE $C1D7                       A:01 X:00 Y:80 P:64 SP:FD
beforeNMI = 0 and afterNMI = 0
C1D7  A5 40     LDA $40 = 01                    A:01 X:00 Y:80 P:64 SP:FD
beforeNMI = 0 and afterNMI = 0
C1D9  D0 FC     BNE $C1D7                       A:01 X:00 Y:80 P:64 SP:FD
beforeNMI = 0 and afterNMI = 0
C1D7  A5 40     LDA $40 = 01                    A:01 X:00 Y:80 P:64 SP:FD
beforeNMI = 0 and afterNMI = 0
C1D9  D0 FC     BNE $C1D7                       A:01 X:00 Y:80 P:64 SP:FD
beforeNMI = 0 and afterNMI = 0
C1D7  A5 40     LDA $40 = 01                    A:01 X:00 Y:80 P:64 SP:FD
beforeNMI = 0 and afterNMI = 0
C1D9  D0 FC     BNE $C1D7                       A:01 X:00 Y:80 P:64 SP:FD
beforeNMI = 0 and afterNMI = 0
C1D7  A5 40     LDA $40 = 01                    A:01 X:00 Y:80 P:64 SP:FD
beforeNMI = 0 and afterNMI = 0
C1D9  D0 FC     BNE $C1D7                       A:01 X:00 Y:80 P:64 SP:FD
beforeNMI = 0 and afterNMI = 0
C1D7  A5 40     LDA $40 = 01                    A:01 X:00 Y:80 P:64 SP:FD
beforeNMI = 0 and afterNMI = 0
C1D9  D0 FC     BNE $C1D7                       A:01 X:00 Y:80 P:64 SP:FD
beforeNMI = 0 and afterNMI = 0
C1D7  A5 40     LDA $40 = 01                    A:01 X:00 Y:80 P:64 SP:FD
beforeNMI = 0 and afterNMI = 0
C1D9  D0 FC     BNE $C1D7                       A:01 X:00 Y:80 P:64 SP:FD
beforeNMI = 0 and afterNMI = 0
C1D7  A5 40     LDA $40 = 01                    A:01 X:00 Y:80 P:64 SP:FD
beforeNMI = 0 and afterNMI = 0
C1D9  D0 FC     BNE $C1D7                       A:01 X:00 Y:80 P:64 SP:FD
beforeNMI = 0 and afterNMI = 0
C1D7  A5 40     LDA $40 = 01                    A:01 X:00 Y:80 P:64 SP:FD
beforeNMI = 0 and afterNMI = 0
C1D9  D0 FC     BNE $C1D7                       A:01 X:00 Y:80 P:64 SP:FD
beforeNMI = 0 and afterNMI = 0
C1D7  A5 40     LDA $40 = 01                    A:01 X:00 Y:80 P:64 SP:FD
beforeNMI = 0 and afterNMI = 0
C1D9  D0 FC     BNE $C1D7                       A:01 X:00 Y:80 P:64 SP:FD
beforeNMI = 0 and afterNMI = 0
C1D7  A5 40     LDA $40 = 01                    A:01 X:00 Y:80 P:64 SP:FD
beforeNMI = 0 and afterNMI = 0
C1D9  D0 FC     BNE $C1D7                       A:01 X:00 Y:80 P:64 SP:FD
beforeNMI = 0 and afterNMI = 0
C1D7  A5 40     LDA $40 = 01                    A:01 X:00 Y:80 P:64 SP:FD
beforeNMI = 0 and afterNMI = 0
C1D9  D0 FC     BNE $C1D7                       A:01 X:00 Y:80 P:64 SP:FD
beforeNMI = 0 and afterNMI = 0
C1D7  A5 40     LDA $40 = 01                    A:01 X:00 Y:80 P:64 SP:FD
beforeNMI = 0 and afterNMI = 0
C1D9  D0 FC     BNE $C1D7                       A:01 X:00 Y:80 P:64 SP:FD
beforeNMI = 0 and afterNMI = 0
C1D7  A5 40     LDA $40 = 01                    A:01 X:00 Y:80 P:64 SP:FD
beforeNMI = 0 and afterNMI = 0
C1D9  D0 FC     BNE $C1D7                       A:01 X:00 Y:80 P:64 SP:FD
beforeNMI = 0 and afterNMI = 0
C1D7  A5 40     LDA $40 = 01                    A:01 X:00 Y:80 P:64 SP:FD
beforeNMI = 0 and afterNMI = 0
C1D9  D0 FC     BNE $C1D7                       A:01 X:00 Y:80 P:64 SP:FD
beforeNMI = 0 and afterNMI = 0
C1D7  A5 40     LDA $40 = 01                    A:01 X:00 Y:80 P:64 SP:FD
beforeNMI = 0 and afterNMI = 0
C1D9  D0 FC     BNE $C1D7                       A:01 X:00 Y:80 P:64 SP:FD
beforeNMI = 0 and afterNMI = 0
C1D7  A5 40     LDA $40 = 01                    A:01 X:00 Y:80 P:64 SP:FD
beforeNMI = 0 and afterNMI = 0
C1D9  D0 FC     BNE $C1D7                       A:01 X:00 Y:80 P:64 SP:FD
beforeNMI = 0 and afterNMI = 0
C1D7  A5 40     LDA $40 = 01                    A:01 X:00 Y:80 P:64 SP:FD
beforeNMI = 0 and afterNMI = 0
C1D9  D0 FC     BNE $C1D7                       A:01 X:00 Y:80 P:64 SP:FD
beforeNMI = 0 and afterNMI = 0
C1D7  A5 40     LDA $40 = 01                    A:01 X:00 Y:80 P:64 SP:FD
beforeNMI = 0 and afterNMI = 0
C1D9  D0 FC     BNE $C1D7                       A:01 X:00 Y:80 P:64 SP:FD
beforeNMI = 0 and afterNMI = 0
C1D7  A5 40     LDA $40 = 01                    A:01 X:00 Y:80 P:64 SP:FD
beforeNMI = 0 and afterNMI = 0
C1D9  D0 FC     BNE $C1D7                       A:01 X:00 Y:80 P:64 SP:FD
beforeNMI = 0 and afterNMI = 0
C1D7  A5 40     LDA $40 = 01                    A:01 X:00 Y:80 P:64 SP:FD
beforeNMI = 0 and afterNMI = 0
C1D9  D0 FC     BNE $C1D7                       A:01 X:00 Y:80 P:64 SP:FD
beforeNMI = 0 and afterNMI = 0
C1D7  A5 40     LDA $40 = 01                    A:01 X:00 Y:80 P:64 SP:FD
beforeNMI = 0 and afterNMI = 0
C1D9  D0 FC     BNE $C1D7                       A:01 X:00 Y:80 P:64 SP:FD
beforeNMI = 0 and afterNMI = 0
C1D7  A5 40     LDA $40 = 01                    A:01 X:00 Y:80 P:64 SP:FD
beforeNMI = 0 and afterNMI = 0
C1D9  D0 FC     BNE $C1D7                       A:01 X:00 Y:80 P:64 SP:FD
beforeNMI = 0 and afterNMI = 0
C1D7  A5 40     LDA $40 = 01                    A:01 X:00 Y:80 P:64 SP:FD
beforeNMI = 0 and afterNMI = 0
C1D9  D0 FC     BNE $C1D7                       A:01 X:00 Y:80 P:64 SP:FD
beforeNMI = 0 and afterNMI = 0
C1D7  A5 40     LDA $40 = 01                    A:01 X:00 Y:80 P:64 SP:FD
beforeNMI = 0 and afterNMI = 0
C1D9  D0 FC     BNE $C1D7                       A:01 X:00 Y:80 P:64 SP:FD
beforeNMI = 0 and afterNMI = 0
C1D7  A5 40     LDA $40 = 01                    A:01 X:00 Y:80 P:64 SP:FD
beforeNMI = 0 and afterNMI = 0
C1D9  D0 FC     BNE $C1D7                       A:01 X:00 Y:80 P:64 SP:FD
beforeNMI = 0 and afterNMI = 0
C1D7  A5 40     LDA $40 = 01                    A:01 X:00 Y:80 P:64 SP:FD
beforeNMI = 0 and afterNMI = 0
C1D9  D0 FC     BNE $C1D7                       A:01 X:00 Y:80 P:64 SP:FD
beforeNMI = 0 and afterNMI = 0
C1D7  A5 40     LDA $40 = 01                    A:01 X:00 Y:80 P:64 SP:FD
beforeNMI = 0 and afterNMI = 0
C1D9  D0 FC     BNE $C1D7                       A:01 X:00 Y:80 P:64 SP:FD
beforeNMI = 0 and afterNMI = 0
C1D7  A5 40     LDA $40 = 01                    A:01 X:00 Y:80 P:64 SP:FD
beforeNMI = 0 and afterNMI = 0
C1D9  D0 FC     BNE $C1D7                       A:01 X:00 Y:80 P:64 SP:FD
beforeNMI = 0 and afterNMI = 0
C1D7  A5 40     LDA $40 = 01                    A:01 X:00 Y:80 P:64 SP:FD
beforeNMI = 0 and afterNMI = 0
C1D9  D0 FC     BNE $C1D7                       A:01 X:00 Y:80 P:64 SP:FD
beforeNMI = 0 and afterNMI = 0
C1D7  A5 40     LDA $40 = 01                    A:01 X:00 Y:80 P:64 SP:FD
beforeNMI = 0 and afterNMI = 0
C1D9  D0 FC     BNE $C1D7                       A:01 X:00 Y:80 P:64 SP:FD
beforeNMI = 0 and afterNMI = 0
C1D7  A5 40     LDA $40 = 01                    A:01 X:00 Y:80 P:64 SP:FD
beforeNMI = 0 and afterNMI = 0
C1D9  D0 FC     BNE $C1D7                       A:01 X:00 Y:80 P:64 SP:FD
beforeNMI = 0 and afterNMI = 0
C1D7  A5 40     LDA $40 = 01                    A:01 X:00 Y:80 P:64 SP:FD
beforeNMI = 0 and afterNMI = 0
C1D9  D0 FC     BNE $C1D7                       A:01 X:00 Y:80 P:64 SP:FD
beforeNMI = 0 and afterNMI = 0
C1D7  A5 40     LDA $40 = 01                    A:01 X:00 Y:80 P:64 SP:FD
beforeNMI = 0 and afterNMI = 0
C1D9  D0 FC     BNE $C1D7                       A:01 X:00 Y:80 P:64 SP:FD
beforeNMI = 0 and afterNMI = 0
C1D7  A5 40     LDA $40 = 01                    A:01 X:00 Y:80 P:64 SP:FD
beforeNMI = 0 and afterNMI = 0
C1D9  D0 FC     BNE $C1D7                       A:01 X:00 Y:80 P:64 SP:FD
beforeNMI = 0 and afterNMI = 0
C1D7  A5 40     LDA $40 = 01                    A:01 X:00 Y:80 P:64 SP:FD
beforeNMI = 0 and afterNMI = 0
C1D9  D0 FC     BNE $C1D7                       A:01 X:00 Y:80 P:64 SP:FD
beforeNMI = 0 and afterNMI = 0
C1D7  A5 40     LDA $40 = 01                    A:01 X:00 Y:80 P:64 SP:FD
beforeNMI = 0 and afterNMI = 0
C1D9  D0 FC     BNE $C1D7                       A:01 X:00 Y:80 P:64 SP:FD
beforeNMI = 0 and afterNMI = 0
C1D7  A5 40     LDA $40 = 01                    A:01 X:00 Y:80 P:64 SP:FD
beforeNMI = 0 and afterNMI = 0
C1D9  D0 FC     BNE $C1D7                       A:01 X:00 Y:80 P:64 SP:FD
beforeNMI = 0 and afterNMI = 0
C1D7  A5 40     LDA $40 = 01                    A:01 X:00 Y:80 P:64 SP:FD
beforeNMI = 0 and afterNMI = 0
C1D9  D0 FC     BNE $C1D7                       A:01 X:00 Y:80 P:64 SP:FD
beforeNMI = 0 and afterNMI = 0
C1D7  A5 40     LDA $40 = 01                    A:01 X:00 Y:80 P:64 SP:FD
beforeNMI = 0 and afterNMI = 0
C1D9  D0 FC     BNE $C1D7                       A:01 X:00 Y:80 P:64 SP:FD
beforeNMI = 0 and afterNMI = 0
C1D7  A5 40     LDA $40 = 01                    A:01 X:00 Y:80 P:64 SP:FD
beforeNMI = 0 and afterNMI = 0
C1D9  D0 FC     BNE $C1D7                       A:01 X:00 Y:80 P:64 SP:FD
beforeNMI = 0 and afterNMI = 0
C1D7  A5 40     LDA $40 = 01                    A:01 X:00 Y:80 P:64 SP:FD
beforeNMI = 0 and afterNMI = 0
C1D9  D0 FC     BNE $C1D7                       A:01 X:00 Y:80 P:64 SP:FD
beforeNMI = 0 and afterNMI = 0
C1D7  A5 40     LDA $40 = 01                    A:01 X:00 Y:80 P:64 SP:FD
beforeNMI = 0 and afterNMI = 0
C1D9  D0 FC     BNE $C1D7                       A:01 X:00 Y:80 P:64 SP:FD
beforeNMI = 0 and afterNMI = 0
C1D7  A5 40     LDA $40 = 01                    A:01 X:00 Y:80 P:64 SP:FD
beforeNMI = 0 and afterNMI = 0
C1D9  D0 FC     BNE $C1D7                       A:01 X:00 Y:80 P:64 SP:FD
beforeNMI = 0 and afterNMI = 0
C1D7  A5 40     LDA $40 = 01                    A:01 X:00 Y:80 P:64 SP:FD
beforeNMI = 0 and afterNMI = 0
C1D9  D0 FC     BNE $C1D7                       A:01 X:00 Y:80 P:64 SP:FD
beforeNMI = 0 and afterNMI = 0
C1D7  A5 40     LDA $40 = 01                    A:01 X:00 Y:80 P:64 SP:FD
beforeNMI = 0 and afterNMI = 0
C1D9  D0 FC     BNE $C1D7                       A:01 X:00 Y:80 P:64 SP:FD
beforeNMI = 0 and afterNMI = 0
C1D7  A5 40     LDA $40 = 01                    A:01 X:00 Y:80 P:64 SP:FD
beforeNMI = 0 and afterNMI = 0
C1D9  D0 FC     BNE $C1D7                       A:01 X:00 Y:80 P:64 SP:FD
beforeNMI = 0 and afterNMI = 0
C1D7  A5 40     LDA $40 = 01                    A:01 X:00 Y:80 P:64 SP:FD
beforeNMI = 0 and afterNMI = 0
C1D9  D0 FC     BNE $C1D7                       A:01 X:00 Y:80 P:64 SP:FD
beforeNMI = 0 and afterNMI = 0
C1D7  A5 40     LDA $40 = 01                    A:01 X:00 Y:80 P:64 SP:FD
beforeNMI = 0 and afterNMI = 0
C1D9  D0 FC     BNE $C1D7                       A:01 X:00 Y:80 P:64 SP:FD
beforeNMI = 0 and afterNMI = 0
C1D7  A5 40     LDA $40 = 01                    A:01 X:00 Y:80 P:64 SP:FD
beforeNMI = 0 and afterNMI = 0
C1D9  D0 FC     BNE $C1D7                       A:01 X:00 Y:80 P:64 SP:FD
beforeNMI = 0 and afterNMI = 0
C1D7  A5 40     LDA $40 = 01                    A:01 X:00 Y:80 P:64 SP:FD
beforeNMI = 0 and afterNMI = 0
C1D9  D0 FC     BNE $C1D7                       A:01 X:00 Y:80 P:64 SP:FD
beforeNMI = 0 and afterNMI = 0
C1D7  A5 40     LDA $40 = 01                    A:01 X:00 Y:80 P:64 SP:FD
beforeNMI = 0 and afterNMI = 0
C1D9  D0 FC     BNE $C1D7                       A:01 X:00 Y:80 P:64 SP:FD
beforeNMI = 0 and afterNMI = 0
C1D7  A5 40     LDA $40 = 01                    A:01 X:00 Y:80 P:64 SP:FD
beforeNMI = 0 and afterNMI = 0
C1D9  D0 FC     BNE $C1D7                       A:01 X:00 Y:80 P:64 SP:FD
beforeNMI = 0 and afterNMI = 0
C1D7  A5 40     LDA $40 = 01                    A:01 X:00 Y:80 P:64 SP:FD
beforeNMI = 0 and afterNMI = 0
C1D9  D0 FC     BNE $C1D7                       A:01 X:00 Y:80 P:64 SP:FD
beforeNMI = 0 and afterNMI = 0
C1D7  A5 40     LDA $40 = 01                    A:01 X:00 Y:80 P:64 SP:FD
beforeNMI = 0 and afterNMI = 0
C1D9  D0 FC     BNE $C1D7                       A:01 X:00 Y:80 P:64 SP:FD
beforeNMI = 0 and afterNMI = 0
C1D7  A5 40     LDA $40 = 01                    A:01 X:00 Y:80 P:64 SP:FD
beforeNMI = 0 and afterNMI = 0
C1D9  D0 FC     BNE $C1D7                       A:01 X:00 Y:80 P:64 SP:FD
beforeNMI = 0 and afterNMI = 0
C1D7  A5 40     LDA $40 = 01                    A:01 X:00 Y:80 P:64 SP:FD
beforeNMI = 0 and afterNMI = 0
C1D9  D0 FC     BNE $C1D7                       A:01 X:00 Y:80 P:64 SP:FD
beforeNMI = 0 and afterNMI = 0
C1D7  A5 40     LDA $40 = 01                    A:01 X:00 Y:80 P:64 SP:FD
beforeNMI = 0 and afterNMI = 0
C1D9  D0 FC     BNE $C1D7                       A:01 X:00 Y:80 P:64 SP:FD
beforeNMI = 0 and afterNMI = 0
C1D7  A5 40     LDA $40 = 01                    A:01 X:00 Y:80 P:64 SP:FD
beforeNMI = 0 and afterNMI = 0
C1D9  D0 FC     BNE $C1D7                       A:01 X:00 Y:80 P:64 SP:FD
beforeNMI = 0 and afterNMI = 0
C1D7  A5 40     LDA $40 = 01                    A:01 X:00 Y:80 P:64 SP:FD
beforeNMI = 0 and afterNMI = 0
C1D9  D0 FC     BNE $C1D7                       A:01 X:00 Y:80 P:64 SP:FD
beforeNMI = 0 and afterNMI = 0
C1D7  A5 40     LDA $40 = 01                    A:01 X:00 Y:80 P:64 SP:FD
beforeNMI = 0 and afterNMI = 0
C1D9  D0 FC     BNE $C1D7                       A:01 X:00 Y:80 P:64 SP:FD
beforeNMI = 0 and afterNMI = 0
C1D7  A5 40     LDA $40 = 01                    A:01 X:00 Y:80 P:64 SP:FD
beforeNMI = 0 and afterNMI = 0
C1D9  D0 FC     BNE $C1D7                       A:01 X:00 Y:80 P:64 SP:FD
beforeNMI = 0 and afterNMI = 0
C1D7  A5 40     LDA $40 = 01                    A:01 X:00 Y:80 P:64 SP:FD
beforeNMI = 0 and afterNMI = 0
C1D9  D0 FC     BNE $C1D7                       A:01 X:00 Y:80 P:64 SP:FD
beforeNMI = 0 and afterNMI = 0
C1D7  A5 40     LDA $40 = 01                    A:01 X:00 Y:80 P:64 SP:FD
beforeNMI = 0 and afterNMI = 0
C1D9  D0 FC     BNE $C1D7                       A:01 X:00 Y:80 P:64 SP:FD
beforeNMI = 0 and afterNMI = 0
C1D7  A5 40     LDA $40 = 01                    A:01 X:00 Y:80 P:64 SP:FD
beforeNMI = 0 and afterNMI = 0
C1D9  D0 FC     BNE $C1D7                       A:01 X:00 Y:80 P:64 SP:FD
beforeNMI = 0 and afterNMI = 0
C1D7  A5 40     LDA $40 = 01                    A:01 X:00 Y:80 P:64 SP:FD
beforeNMI = 0 and afterNMI = 0
C1D9  D0 FC     BNE $C1D7                       A:01 X:00 Y:80 P:64 SP:FD
beforeNMI = 0 and afterNMI = 0
C1D7  A5 40     LDA $40 = 01                    A:01 X:00 Y:80 P:64 SP:FD
beforeNMI = 0 and afterNMI = 0
C1D9  D0 FC     BNE $C1D7                       A:01 X:00 Y:80 P:64 SP:FD
beforeNMI = 0 and afterNMI = 0
C1D7  A5 40     LDA $40 = 01                    A:01 X:00 Y:80 P:64 SP:FD
beforeNMI = 0 and afterNMI = 0
C1D9  D0 FC     BNE $C1D7                       A:01 X:00 Y:80 P:64 SP:FD
beforeNMI = 0 and afterNMI = 0
C1D7  A5 40     LDA $40 = 01                    A:01 X:00 Y:80 P:64 SP:FD
beforeNMI = 0 and afterNMI = 0
C1D9  D0 FC     BNE $C1D7                       A:01 X:00 Y:80 P:64 SP:FD
beforeNMI = 0 and afterNMI = 0
C1D7  A5 40     LDA $40 = 01                    A:01 X:00 Y:80 P:64 SP:FD
beforeNMI = 0 and afterNMI = 0
C1D9  D0 FC     BNE $C1D7                       A:01 X:00 Y:80 P:64 SP:FD
beforeNMI = 0 and afterNMI = 0
C1D7  A5 40     LDA $40 = 01                    A:01 X:00 Y:80 P:64 SP:FD
beforeNMI = 0 and afterNMI = 0
C1D9  D0 FC     BNE $C1D7                       A:01 X:00 Y:80 P:64 SP:FD
beforeNMI = 0 and afterNMI = 0
C1D7  A5 40     LDA $40 = 01                    A:01 X:00 Y:80 P:64 SP:FD
beforeNMI = 0 and afterNMI = 0
C1D9  D0 FC     BNE $C1D7                       A:01 X:00 Y:80 P:64 SP:FD
beforeNMI = 0 and afterNMI = 0
C1D7  A5 40     LDA $40 = 01                    A:01 X:00 Y:80 P:64 SP:FD
beforeNMI = 0 and afterNMI = 0
C1D9  D0 FC     BNE $C1D7                       A:01 X:00 Y:80 P:64 SP:FD
beforeNMI = 0 and afterNMI = 0
C1D7  A5 40     LDA $40 = 01                    A:01 X:00 Y:80 P:64 SP:FD
beforeNMI = 0 and afterNMI = 0
C1D9  D0 FC     BNE $C1D7                       A:01 X:00 Y:80 P:64 SP:FD
beforeNMI = 0 and afterNMI = 0
C1D7  A5 40     LDA $40 = 01                    A:01 X:00 Y:80 P:64 SP:FD
beforeNMI = 0 and afterNMI = 0
C1D9  D0 FC     BNE $C1D7                       A:01 X:00 Y:80 P:64 SP:FD
beforeNMI = 0 and afterNMI = 0
C1D7  A5 40     LDA $40 = 01                    A:01 X:00 Y:80 P:64 SP:FD
beforeNMI = 0 and afterNMI = 0
C1D9  D0 FC     BNE $C1D7                       A:01 X:00 Y:80 P:64 SP:FD
beforeNMI = 0 and afterNMI = 0
C1D7  A5 40     LDA $40 = 01                    A:01 X:00 Y:80 P:64 SP:FD
beforeNMI = 0 and afterNMI = 0
C1D9  D0 FC     BNE $C1D7                       A:01 X:00 Y:80 P:64 SP:FD
beforeNMI = 0 and afterNMI = 0
C1D7  A5 40     LDA $40 = 01                    A:01 X:00 Y:80 P:64 SP:FD
beforeNMI = 0 and afterNMI = 0
C1D9  D0 FC     BNE $C1D7                       A:01 X:00 Y:80 P:64 SP:FD
beforeNMI = 0 and afterNMI = 0
C1D7  A5 40     LDA $40 = 01                    A:01 X:00 Y:80 P:64 SP:FD
beforeNMI = 0 and afterNMI = 0
C1D9  D0 FC     BNE $C1D7                       A:01 X:00 Y:80 P:64 SP:FD
beforeNMI = 0 and afterNMI = 0
C1D7  A5 40     LDA $40 = 01                    A:01 X:00 Y:80 P:64 SP:FD
beforeNMI = 0 and afterNMI = 0
C1D9  D0 FC     BNE $C1D7                       A:01 X:00 Y:80 P:64 SP:FD
beforeNMI = 0 and afterNMI = 0
C1D7  A5 40     LDA $40 = 01                    A:01 X:00 Y:80 P:64 SP:FD
beforeNMI = 0 and afterNMI = 0
C1D9  D0 FC     BNE $C1D7                       A:01 X:00 Y:80 P:64 SP:FD
beforeNMI = 0 and afterNMI = 0
C1D7  A5 40     LDA $40 = 01                    A:01 X:00 Y:80 P:64 SP:FD
beforeNMI = 0 and afterNMI = 0
C1D9  D0 FC     BNE $C1D7                       A:01 X:00 Y:80 P:64 SP:FD
beforeNMI = 0 and afterNMI = 0
C1D7  A5 40     LDA $40 = 01                    A:01 X:00 Y:80 P:64 SP:FD
beforeNMI = 0 and afterNMI = 0
C1D9  D0 FC     BNE $C1D7                       A:01 X:00 Y:80 P:64 SP:FD
beforeNMI = 0 and afterNMI = 0
C1D7  A5 40     LDA $40 = 01                    A:01 X:00 Y:80 P:64 SP:FD
beforeNMI = 0 and afterNMI = 0
C1D9  D0 FC     BNE $C1D7                       A:01 X:00 Y:80 P:64 SP:FD
beforeNMI = 0 and afterNMI = 0
C1D7  A5 40     LDA $40 = 01                    A:01 X:00 Y:80 P:64 SP:FD
beforeNMI = 0 and afterNMI = 0
C1D9  D0 FC     BNE $C1D7                       A:01 X:00 Y:80 P:64 SP:FD
beforeNMI = 0 and afterNMI = 0
C1D7  A5 40     LDA $40 = 01                    A:01 X:00 Y:80 P:64 SP:FD
beforeNMI = 0 and afterNMI = 0
C1D9  D0 FC     BNE $C1D7                       A:01 X:00 Y:80 P:64 SP:FD
beforeNMI = 0 and afterNMI = 0
C1D7  A5 40     LDA $40 = 01                    A:01 X:00 Y:80 P:64 SP:FD
beforeNMI = 0 and afterNMI = 0
C1D9  D0 FC     BNE $C1D7                       A:01 X:00 Y:80 P:64 SP:FD
beforeNMI = 0 and afterNMI = 0
C1D7  A5 40     LDA $40 = 01                    A:01 X:00 Y:80 P:64 SP:FD
beforeNMI = 0 and afterNMI = 0
C1D9  D0 FC     BNE $C1D7                       A:01 X:00 Y:80 P:64 SP:FD
beforeNMI = 0 and afterNMI = 0
C1D7  A5 40     LDA $40 = 01                    A:01 X:00 Y:80 P:64 SP:FD
beforeNMI = 0 and afterNMI = 0
C1D9  D0 FC     BNE $C1D7                       A:01 X:00 Y:80 P:64 SP:FD
beforeNMI = 0 and afterNMI = 0
C1D7  A5 40     LDA $40 = 01                    A:01 X:00 Y:80 P:64 SP:FD
beforeNMI = 0 and afterNMI = 0
C1D9  D0 FC     BNE $C1D7                       A:01 X:00 Y:80 P:64 SP:FD
beforeNMI = 0 and afterNMI = 0
C1D7  A5 40     LDA $40 = 01                    A:01 X:00 Y:80 P:64 SP:FD
beforeNMI = 0 and afterNMI = 0
C1D9  D0 FC     BNE $C1D7                       A:01 X:00 Y:80 P:64 SP:FD
beforeNMI = 0 and afterNMI = 0
C1D7  A5 40     LDA $40 = 01                    A:01 X:00 Y:80 P:64 SP:FD
beforeNMI = 0 and afterNMI = 0
C1D9  D0 FC     BNE $C1D7                       A:01 X:00 Y:80 P:64 SP:FD
beforeNMI = 0 and afterNMI = 0
C1D7  A5 40     LDA $40 = 01                    A:01 X:00 Y:80 P:64 SP:FD
beforeNMI = 0 and afterNMI = 0
C1D9  D0 FC     BNE $C1D7                       A:01 X:00 Y:80 P:64 SP:FD
beforeNMI = 0 and afterNMI = 0
C1D7  A5 40     LDA $40 = 01                    A:01 X:00 Y:80 P:64 SP:FD
beforeNMI = 0 and afterNMI = 0
C1D9  D0 FC     BNE $C1D7                       A:01 X:00 Y:80 P:64 SP:FD
beforeNMI = 0 and afterNMI = 0
C1D7  A5 40     LDA $40 = 01                    A:01 X:00 Y:80 P:64 SP:FD
beforeNMI = 0 and afterNMI = 0
C1D9  D0 FC     BNE $C1D7                       A:01 X:00 Y:80 P:64 SP:FD
beforeNMI = 0 and afterNMI = 0
C1D7  A5 40     LDA $40 = 01                    A:01 X:00 Y:80 P:64 SP:FD
beforeNMI = 0 and afterNMI = 0
C1D9  D0 FC     BNE $C1D7                       A:01 X:00 Y:80 P:64 SP:FD
beforeNMI = 0 and afterNMI = 0
C1D7  A5 40     LDA $40 = 01                    A:01 X:00 Y:80 P:64 SP:FD
beforeNMI = 0 and afterNMI = 0
C1D9  D0 FC     BNE $C1D7                       A:01 X:00 Y:80 P:64 SP:FD
beforeNMI = 0 and afterNMI = 0
C1D7  A5 40     LDA $40 = 01                    A:01 X:00 Y:80 P:64 SP:FD
beforeNMI = 0 and afterNMI = 0
C1D9  D0 FC     BNE $C1D7                       A:01 X:00 Y:80 P:64 SP:FD
beforeNMI = 0 and afterNMI = 0
C1D7  A5 40     LDA $40 = 01                    A:01 X:00 Y:80 P:64 SP:FD
beforeNMI = 0 and afterNMI = 0
C1D9  D0 FC     BNE $C1D7                       A:01 X:00 Y:80 P:64 SP:FD
beforeNMI = 0 and afterNMI = 0
C1D7  A5 40     LDA $40 = 01                    A:01 X:00 Y:80 P:64 SP:FD
beforeNMI = 0 and afterNMI = 0
C1D9  D0 FC     BNE $C1D7                       A:01 X:00 Y:80 P:64 SP:FD
beforeNMI = 0 and afterNMI = 0
C1D7  A5 40     LDA $40 = 01                    A:01 X:00 Y:80 P:64 SP:FD
beforeNMI = 0 and afterNMI = 0
C1D9  D0 FC     BNE $C1D7                       A:01 X:00 Y:80 P:64 SP:FD
beforeNMI = 0 and afterNMI = 0
C1D7  A5 40     LDA $40 = 01                    A:01 X:00 Y:80 P:64 SP:FD
beforeNMI = 0 and afterNMI = 0
C1D9  D0 FC     BNE $C1D7                       A:01 X:00 Y:80 P:64 SP:FD
beforeNMI = 0 and afterNMI = 0
C1D7  A5 40     LDA $40 = 01                    A:01 X:00 Y:80 P:64 SP:FD
beforeNMI = 0 and afterNMI = 0
C1D9  D0 FC     BNE $C1D7                       A:01 X:00 Y:80 P:64 SP:FD
beforeNMI = 0 and afterNMI = 0
C1D7  A5 40     LDA $40 = 01                    A:01 X:00 Y:80 P:64 SP:FD
beforeNMI = 0 and afterNMI = 0
C1D9  D0 FC     BNE $C1D7                       A:01 X:00 Y:80 P:64 SP:FD
beforeNMI = 0 and afterNMI = 0
C1D7  A5 40     LDA $40 = 01                    A:01 X:00 Y:80 P:64 SP:FD
beforeNMI = 0 and afterNMI = 0
C1D9  D0 FC     BNE $C1D7                       A:01 X:00 Y:80 P:64 SP:FD
beforeNMI = 0 and afterNMI = 0
C1D7  A5 40     LDA $40 = 01                    A:01 X:00 Y:80 P:64 SP:FD
beforeNMI = 0 and afterNMI = 0
C1D9  D0 FC     BNE $C1D7                       A:01 X:00 Y:80 P:64 SP:FD
beforeNMI = 0 and afterNMI = 0
C1D7  A5 40     LDA $40 = 01                    A:01 X:00 Y:80 P:64 SP:FD
beforeNMI = 0 and afterNMI = 0
C1D9  D0 FC     BNE $C1D7                       A:01 X:00 Y:80 P:64 SP:FD
beforeNMI = 0 and afterNMI = 0
C1D7  A5 40     LDA $40 = 01                    A:01 X:00 Y:80 P:64 SP:FD
beforeNMI = 0 and afterNMI = 0
C1D9  D0 FC     BNE $C1D7                       A:01 X:00 Y:80 P:64 SP:FD
beforeNMI = 0 and afterNMI = 0
C1D7  A5 40     LDA $40 = 01                    A:01 X:00 Y:80 P:64 SP:FD
beforeNMI = 0 and afterNMI = 0
C1D9  D0 FC     BNE $C1D7                       A:01 X:00 Y:80 P:64 SP:FD
beforeNMI = 0 and afterNMI = 0
C1D7  A5 40     LDA $40 = 01                    A:01 X:00 Y:80 P:64 SP:FD
beforeNMI = 0 and afterNMI = 0
C1D9  D0 FC     BNE $C1D7                       A:01 X:00 Y:80 P:64 SP:FD
beforeNMI = 0 and afterNMI = 0
C1D7  A5 40     LDA $40 = 01                    A:01 X:00 Y:80 P:64 SP:FD
beforeNMI = 0 and afterNMI = 0
C1D9  D0 FC     BNE $C1D7                       A:01 X:00 Y:80 P:64 SP:FD
beforeNMI = 0 and afterNMI = 0
C1D7  A5 40     LDA $40 = 01                    A:01 X:00 Y:80 P:64 SP:FD
beforeNMI = 0 and afterNMI = 0
C1D9  D0 FC     BNE $C1D7                       A:01 X:00 Y:80 P:64 SP:FD
beforeNMI = 0 and afterNMI = 0
C1D7  A5 40     LDA $40 = 01                    A:01 X:00 Y:80 P:64 SP:FD
beforeNMI = 0 and afterNMI = 0
C1D9  D0 FC     BNE $C1D7                       A:01 X:00 Y:80 P:64 SP:FD
beforeNMI = 0 and afterNMI = 0
C1D7  A5 40     LDA $40 = 01                    A:01 X:00 Y:80 P:64 SP:FD
beforeNMI = 0 and afterNMI = 0
C1D9  D0 FC     BNE $C1D7                       A:01 X:00 Y:80 P:64 SP:FD
beforeNMI = 0 and afterNMI = 0
C1D7  A5 40     LDA $40 = 01                    A:01 X:00 Y:80 P:64 SP:FD
beforeNMI = 0 and afterNMI = 0
C1D9  D0 FC     BNE $C1D7                       A:01 X:00 Y:80 P:64 SP:FD
beforeNMI = 0 and afterNMI = 0
C1D7  A5 40     LDA $40 = 01                    A:01 X:00 Y:80 P:64 SP:FD
beforeNMI = 0 and afterNMI = 0
C1D9  D0 FC     BNE $C1D7                       A:01 X:00 Y:80 P:64 SP:FD
beforeNMI = 0 and afterNMI = 0
C1D7  A5 40     LDA $40 = 01                    A:01 X:00 Y:80 P:64 SP:FD
beforeNMI = 0 and afterNMI = 0
C1D9  D0 FC     BNE $C1D7                       A:01 X:00 Y:80 P:64 SP:FD
beforeNMI = 0 and afterNMI = 0
C1D7  A5 40     LDA $40 = 01                    A:01 X:00 Y:80 P:64 SP:FD
beforeNMI = 0 and afterNMI = 0
C1D9  D0 FC     BNE $C1D7                       A:01 X:00 Y:80 P:64 SP:FD
beforeNMI = 0 and afterNMI = 0
C1D7  A5 40     LDA $40 = 01                    A:01 X:00 Y:80 P:64 SP:FD
beforeNMI = 0 and afterNMI = 0
C1D9  D0 FC     BNE $C1D7                       A:01 X:00 Y:80 P:64 SP:FD
beforeNMI = 0 and afterNMI = 0
C1D7  A5 40     LDA $40 = 01                    A:01 X:00 Y:80 P:64 SP:FD
beforeNMI = 0 and afterNMI = 0
C1D9  D0 FC     BNE $C1D7                       A:01 X:00 Y:80 P:64 SP:FD
beforeNMI = 0 and afterNMI = 0
C1D7  A5 40     LDA $40 = 01                    A:01 X:00 Y:80 P:64 SP:FD
beforeNMI = 0 and afterNMI = 0
C1D9  D0 FC     BNE $C1D7                       A:01 X:00 Y:80 P:64 SP:FD
beforeNMI = 0 and afterNMI = 0
C1D7  A5 40     LDA $40 = 01                    A:01 X:00 Y:80 P:64 SP:FD
beforeNMI = 0 and afterNMI = 0
C1D9  D0 FC     BNE $C1D7                       A:01 X:00 Y:80 P:64 SP:FD
beforeNMI = 0 and afterNMI = 0
C1D7  A5 40     LDA $40 = 01                    A:01 X:00 Y:80 P:64 SP:FD
beforeNMI = 0 and afterNMI = 0
C1D9  D0 FC     BNE $C1D7                       A:01 X:00 Y:80 P:64 SP:FD
beforeNMI = 0 and afterNMI = 0
C1D7  A5 40     LDA $40 = 01                    A:01 X:00 Y:80 P:64 SP:FD
beforeNMI = 0 and afterNMI = 0
C1D9  D0 FC     BNE $C1D7                       A:01 X:00 Y:80 P:64 SP:FD
beforeNMI = 0 and afterNMI = 0
C1D7  A5 40     LDA $40 = 01                    A:01 X:00 Y:80 P:64 SP:FD
beforeNMI = 0 and afterNMI = 0
C1D9  D0 FC     BNE $C1D7                       A:01 X:00 Y:80 P:64 SP:FD
beforeNMI = 0 and afterNMI = 0
C1D7  A5 40     LDA $40 = 01                    A:01 X:00 Y:80 P:64 SP:FD
beforeNMI = 0 and afterNMI = 0
C1D9  D0 FC     BNE $C1D7                       A:01 X:00 Y:80 P:64 SP:FD
beforeNMI = 0 and afterNMI = 0
C1D7  A5 40     LDA $40 = 01                    A:01 X:00 Y:80 P:64 SP:FD
beforeNMI = 0 and afterNMI = 0
C1D9  D0 FC     BNE $C1D7                       A:01 X:00 Y:80 P:64 SP:FD
beforeNMI = 0 and afterNMI = 0
C1D7  A5 40     LDA $40 = 01                    A:01 X:00 Y:80 P:64 SP:FD
beforeNMI = 0 and afterNMI = 0
C1D9  D0 FC     BNE $C1D7                       A:01 X:00 Y:80 P:64 SP:FD
beforeNMI = 0 and afterNMI = 0
C1D7  A5 40     LDA $40 = 01                    A:01 X:00 Y:80 P:64 SP:FD
beforeNMI = 0 and afterNMI = 0
C1D9  D0 FC     BNE $C1D7                       A:01 X:00 Y:80 P:64 SP:FD
beforeNMI = 0 and afterNMI = 0
C1D7  A5 40     LDA $40 = 01                    A:01 X:00 Y:80 P:64 SP:FD
beforeNMI = 0 and afterNMI = 0
C1D9  D0 FC     BNE $C1D7                       A:01 X:00 Y:80 P:64 SP:FD
beforeNMI = 0 and afterNMI = 0
C1D7  A5 40     LDA $40 = 01                    A:01 X:00 Y:80 P:64 SP:FD
beforeNMI = 0 and afterNMI = 0
C1D9  D0 FC     BNE $C1D7                       A:01 X:00 Y:80 P:64 SP:FD
beforeNMI = 0 and afterNMI = 0
C1D7  A5 40     LDA $40 = 01                    A:01 X:00 Y:80 P:64 SP:FD
beforeNMI = 0 and afterNMI = 0
C1D9  D0 FC     BNE $C1D7                       A:01 X:00 Y:80 P:64 SP:FD
beforeNMI = 0 and afterNMI = 0
C1D7  A5 40     LDA $40 = 01                    A:01 X:00 Y:80 P:64 SP:FD
beforeNMI = 0 and afterNMI = 0
C1D9  D0 FC     BNE $C1D7                       A:01 X:00 Y:80 P:64 SP:FD
beforeNMI = 0 and afterNMI = 0
C1D7  A5 40     LDA $40 = 01                    A:01 X:00 Y:80 P:64 SP:FD
beforeNMI = 0 and afterNMI = 0
C1D9  D0 FC     BNE $C1D7                       A:01 X:00 Y:80 P:64 SP:FD
beforeNMI = 0 and afterNMI = 0
C1D7  A5 40     LDA $40 = 01                    A:01 X:00 Y:80 P:64 SP:FD
beforeNMI = 0 and afterNMI = 0
C1D9  D0 FC     BNE $C1D7                       A:01 X:00 Y:80 P:64 SP:FD
beforeNMI = 0 and afterNMI = 0
C1D7  A5 40     LDA $40 = 01                    A:01 X:00 Y:80 P:64 SP:FD
beforeNMI = 0 and afterNMI = 0
C1D9  D0 FC     BNE $C1D7                       A:01 X:00 Y:80 P:64 SP:FD
beforeNMI = 0 and afterNMI = 0
C1D7  A5 40     LDA $40 = 01                    A:01 X:00 Y:80 P:64 SP:FD
beforeNMI = 0 and afterNMI = 0
C1D9  D0 FC     BNE $C1D7                       A:01 X:00 Y:80 P:64 SP:FD
beforeNMI = 0 and afterNMI = 0
C1D7  A5 40     LDA $40 = 01                    A:01 X:00 Y:80 P:64 SP:FD
beforeNMI = 0 and afterNMI = 0
C1D9  D0 FC     BNE $C1D7                       A:01 X:00 Y:80 P:64 SP:FD
beforeNMI = 0 and afterNMI = 0
C1D7  A5 40     LDA $40 = 01                    A:01 X:00 Y:80 P:64 SP:FD
beforeNMI = 0 and afterNMI = 0
C1D9  D0 FC     BNE $C1D7                       A:01 X:00 Y:80 P:64 SP:FD
beforeNMI = 0 and afterNMI = 0
C1D7  A5 40     LDA $40 = 01                    A:01 X:00 Y:80 P:64 SP:FD
beforeNMI = 0 and afterNMI = 0
C1D9  D0 FC     BNE $C1D7                       A:01 X:00 Y:80 P:64 SP:FD
beforeNMI = 0 and afterNMI = 0
C1D7  A5 40     LDA $40 = 01                    A:01 X:00 Y:80 P:64 SP:FD
beforeNMI = 0 and afterNMI = 0
C1D9  D0 FC     BNE $C1D7                       A:01 X:00 Y:80 P:64 SP:FD
beforeNMI = 0 and afterNMI = 0
C1D7  A5 40     LDA $40 = 01                    A:01 X:00 Y:80 P:64 SP:FD
beforeNMI = 0 and afterNMI = 0
C1D9  D0 FC     BNE $C1D7                       A:01 X:00 Y:80 P:64 SP:FD
beforeNMI = 0 and afterNMI = 0
C1D7  A5 40     LDA $40 = 01                    A:01 X:00 Y:80 P:64 SP:FD
beforeNMI = 0 and afterNMI = 0
C1D9  D0 FC     BNE $C1D7                       A:01 X:00 Y:80 P:64 SP:FD
beforeNMI = 0 and afterNMI = 0
C1D7  A5 40     LDA $40 = 01                    A:01 X:00 Y:80 P:64 SP:FD
beforeNMI = 0 and afterNMI = 0
C1D9  D0 FC     BNE $C1D7                       A:01 X:00 Y:80 P:64 SP:FD
beforeNMI = 0 and afterNMI = 0
C1D7  A5 40     LDA $40 = 01                    A:01 X:00 Y:80 P:64 SP:FD
beforeNMI = 0 and afterNMI = 0
C1D9  D0 FC     BNE $C1D7                       A:01 X:00 Y:80 P:64 SP:FD
beforeNMI = 0 and afterNMI = 0
C1D7  A5 40     LDA $40 = 01                    A:01 X:00 Y:80 P:64 SP:FD
beforeNMI = 0 and afterNMI = 0
C1D9  D0 FC     BNE $C1D7                       A:01 X:00 Y:80 P:64 SP:FD
beforeNMI = 0 and afterNMI = 0
C1D7  A5 40     LDA $40 = 01                    A:01 X:00 Y:80 P:64 SP:FD
beforeNMI = 0 and afterNMI = 0
C1D9  D0 FC     BNE $C1D7                       A:01 X:00 Y:80 P:64 SP:FD
beforeNMI = 0 and afterNMI = 0
C1D7  A5 40     LDA $40 = 01                    A:01 X:00 Y:80 P:64 SP:FD
beforeNMI = 0 and afterNMI = 0
C1D9  D0 FC     BNE $C1D7                       A:01 X:00 Y:80 P:64 SP:FD
beforeNMI = 0 and afterNMI = 0
C1D7  A5 40     LDA $40 = 01                    A:01 X:00 Y:80 P:64 SP:FD
beforeNMI = 0 and afterNMI = 0
C1D9  D0 FC     BNE $C1D7                       A:01 X:00 Y:80 P:64 SP:FD
beforeNMI = 0 and afterNMI = 0
C1D7  A5 40     LDA $40 = 01                    A:01 X:00 Y:80 P:64 SP:FD
beforeNMI = 0 and afterNMI = 0
C1D9  D0 FC     BNE $C1D7                       A:01 X:00 Y:80 P:64 SP:FD
beforeNMI = 0 and afterNMI = 0
C1D7  A5 40     LDA $40 = 01                    A:01 X:00 Y:80 P:64 SP:FD
beforeNMI = 0 and afterNMI = 0
C1D9  D0 FC     BNE $C1D7                       A:01 X:00 Y:80 P:64 SP:FD
beforeNMI = 0 and afterNMI = 0
C1D7  A5 40     LDA $40 = 01                    A:01 X:00 Y:80 P:64 SP:FD
beforeNMI = 0 and afterNMI = 0
C1D9  D0 FC     BNE $C1D7                       A:01 X:00 Y:80 P:64 SP:FD
beforeNMI = 0 and afterNMI = 0
C1D7  A5 40     LDA $40 = 01                    A:01 X:00 Y:80 P:64 SP:FD
beforeNMI = 0 and afterNMI = 0
C1D9  D0 FC     BNE $C1D7                       A:01 X:00 Y:80 P:64 SP:FD
beforeNMI = 0 and afterNMI = 0
C1D7  A5 40     LDA $40 = 01                    A:01 X:00 Y:80 P:64 SP:FD
beforeNMI = 0 and afterNMI = 0
C1D9  D0 FC     BNE $C1D7                       A:01 X:00 Y:80 P:64 SP:FD
beforeNMI = 0 and afterNMI = 0
C1D7  A5 40     LDA $40 = 01                    A:01 X:00 Y:80 P:64 SP:FD
beforeNMI = 0 and afterNMI = 0
C1D9  D0 FC     BNE $C1D7                       A:01 X:00 Y:80 P:64 SP:FD
beforeNMI = 0 and afterNMI = 0
C1D7  A5 40     LDA $40 = 01                    A:01 X:00 Y:80 P:64 SP:FD
beforeNMI = 0 and afterNMI = 0
C1D9  D0 FC     BNE $C1D7                       A:01 X:00 Y:80 P:64 SP:FD
beforeNMI = 0 and afterNMI = 0
C1D7  A5 40     LDA $40 = 01                    A:01 X:00 Y:80 P:64 SP:FD
beforeNMI = 0 and afterNMI = 0
C1D9  D0 FC     BNE $C1D7                       A:01 X:00 Y:80 P:64 SP:FD
beforeNMI = 0 and afterNMI = 0
C1D7  A5 40     LDA $40 = 01                    A:01 X:00 Y:80 P:64 SP:FD
beforeNMI = 0 and afterNMI = 0
C1D9  D0 FC     BNE $C1D7                       A:01 X:00 Y:80 P:64 SP:FD
beforeNMI = 0 and afterNMI = 0
C1D7  A5 40     LDA $40 = 01                    A:01 X:00 Y:80 P:64 SP:FD
beforeNMI = 0 and afterNMI = 0
C1D9  D0 FC     BNE $C1D7                       A:01 X:00 Y:80 P:64 SP:FD
beforeNMI = 0 and afterNMI = 0
C1D7  A5 40     LDA $40 = 01                    A:01 X:00 Y:80 P:64 SP:FD
beforeNMI = 0 and afterNMI = 0
C1D9  D0 FC     BNE $C1D7                       A:01 X:00 Y:80 P:64 SP:FD
beforeNMI = 0 and afterNMI = 0
C1D7  A5 40     LDA $40 = 01                    A:01 X:00 Y:80 P:64 SP:FD
beforeNMI = 0 and afterNMI = 0
C1D9  D0 FC     BNE $C1D7                       A:01 X:00 Y:80 P:64 SP:FD
beforeNMI = 0 and afterNMI = 0
C1D7  A5 40     LDA $40 = 01                    A:01 X:00 Y:80 P:64 SP:FD
beforeNMI = 0 and afterNMI = 0
C1D9  D0 FC     BNE $C1D7                       A:01 X:00 Y:80 P:64 SP:FD
beforeNMI = 0 and afterNMI = 0
C1D7  A5 40     LDA $40 = 01                    A:01 X:00 Y:80 P:64 SP:FD
beforeNMI = 0 and afterNMI = 0
C1D9  D0 FC     BNE $C1D7                       A:01 X:00 Y:80 P:64 SP:FD
beforeNMI = 0 and afterNMI = 0
C1D7  A5 40     LDA $40 = 01                    A:01 X:00 Y:80 P:64 SP:FD
beforeNMI = 0 and afterNMI = 0
C1D9  D0 FC     BNE $C1D7                       A:01 X:00 Y:80 P:64 SP:FD
beforeNMI = 0 and afterNMI = 0
C1D7  A5 40     LDA $40 = 01                    A:01 X:00 Y:80 P:64 SP:FD
beforeNMI = 0 and afterNMI = 0
C1D9  D0 FC     BNE $C1D7                       A:01 X:00 Y:80 P:64 SP:FD
beforeNMI = 0 and afterNMI = 0
C1D7  A5 40     LDA $40 = 01                    A:01 X:00 Y:80 P:64 SP:FD
beforeNMI = 0 and afterNMI = 0
C1D9  D0 FC     BNE $C1D7                       A:01 X:00 Y:80 P:64 SP:FD
beforeNMI = 0 and afterNMI = 0
C1D7  A5 40     LDA $40 = 01                    A:01 X:00 Y:80 P:64 SP:FD
beforeNMI = 0 and afterNMI = 0
C1D9  D0 FC     BNE $C1D7                       A:01 X:00 Y:80 P:64 SP:FD
beforeNMI = 0 and afterNMI = 0
C1D7  A5 40     LDA $40 = 01                    A:01 X:00 Y:80 P:64 SP:FD
beforeNMI = 0 and afterNMI = 0
C1D9  D0 FC     BNE $C1D7                       A:01 X:00 Y:80 P:64 SP:FD
beforeNMI = 0 and afterNMI = 0
C1D7  A5 40     LDA $40 = 01                    A:01 X:00 Y:80 P:64 SP:FD
beforeNMI = 0 and afterNMI = 0
C1D9  D0 FC     BNE $C1D7                       A:01 X:00 Y:80 P:64 SP:FD
beforeNMI = 0 and afterNMI = 0
C1D7  A5 40     LDA $40 = 01                    A:01 X:00 Y:80 P:64 SP:FD
beforeNMI = 0 and afterNMI = 0
C1D9  D0 FC     BNE $C1D7                       A:01 X:00 Y:80 P:64 SP:FD
beforeNMI = 0 and afterNMI = 0
C1D7  A5 40     LDA $40 = 01                    A:01 X:00 Y:80 P:64 SP:FD
beforeNMI = 0 and afterNMI = 0
C1D9  D0 FC     BNE $C1D7                       A:01 X:00 Y:80 P:64 SP:FD
beforeNMI = 0 and afterNMI = 0
C1D7  A5 40     LDA $40 = 01                    A:01 X:00 Y:80 P:64 SP:FD
beforeNMI = 0 and afterNMI = 0
C1D9  D0 FC     BNE $C1D7                       A:01 X:00 Y:80 P:64 SP:FD
beforeNMI = 0 and afterNMI = 0
C1D7  A5 40     LDA $40 = 01                    A:01 X:00 Y:80 P:64 SP:FD
beforeNMI = 0 and afterNMI = 0
C1D9  D0 FC     BNE $C1D7                       A:01 X:00 Y:80 P:64 SP:FD
beforeNMI = 0 and afterNMI = 0
C1D7  A5 40     LDA $40 = 01                    A:01 X:00 Y:80 P:64 SP:FD
beforeNMI = 0 and afterNMI = 0
C1D9  D0 FC     BNE $C1D7                       A:01 X:00 Y:80 P:64 SP:FD
beforeNMI = 0 and afterNMI = 0
C1D7  A5 40     LDA $40 = 01                    A:01 X:00 Y:80 P:64 SP:FD
beforeNMI = 0 and afterNMI = 0
C1D9  D0 FC     BNE $C1D7                       A:01 X:00 Y:80 P:64 SP:FD
beforeNMI = 0 and afterNMI = 0
C1D7  A5 40     LDA $40 = 01                    A:01 X:00 Y:80 P:64 SP:FD
beforeNMI = 0 and afterNMI = 0
C1D9  D0 FC     BNE $C1D7                       A:01 X:00 Y:80 P:64 SP:FD
beforeNMI = 0 and afterNMI = 0
C1D7  A5 40     LDA $40 = 01                    A:01 X:00 Y:80 P:64 SP:FD
beforeNMI = 0 and afterNMI = 0
C1D9  D0 FC     BNE $C1D7                       A:01 X:00 Y:80 P:64 SP:FD
beforeNMI = 0 and afterNMI = 0
C1D7  A5 40     LDA $40 = 01                    A:01 X:00 Y:80 P:64 SP:FD
beforeNMI = 0 and afterNMI = 0
C1D9  D0 FC     BNE $C1D7                       A:01 X:00 Y:80 P:64 SP:FD
beforeNMI = 0 and afterNMI = 0
C1D7  A5 40     LDA $40 = 01                    A:01 X:00 Y:80 P:64 SP:FD
beforeNMI = 0 and afterNMI = 0
C1D9  D0 FC     BNE $C1D7                       A:01 X:00 Y:80 P:64 SP:FD
beforeNMI = 0 and afterNMI = 0
C1D7  A5 40     LDA $40 = 01                    A:01 X:00 Y:80 P:64 SP:FD
beforeNMI = 0 and afterNMI = 0
C1D9  D0 FC     BNE $C1D7                       A:01 X:00 Y:80 P:64 SP:FD
beforeNMI = 0 and afterNMI = 0
C1D7  A5 40     LDA $40 = 01                    A:01 X:00 Y:80 P:64 SP:FD
beforeNMI = 0 and afterNMI = 0
C1D9  D0 FC     BNE $C1D7                       A:01 X:00 Y:80 P:64 SP:FD
beforeNMI = 0 and afterNMI = 0
C1D7  A5 40     LDA $40 = 01                    A:01 X:00 Y:80 P:64 SP:FD
beforeNMI = 0 and afterNMI = 0
C1D9  D0 FC     BNE $C1D7                       A:01 X:00 Y:80 P:64 SP:FD
beforeNMI = 0 and afterNMI = 0
C1D7  A5 40     LDA $40 = 01                    A:01 X:00 Y:80 P:64 SP:FD
beforeNMI = 0 and afterNMI = 0
C1D9  D0 FC     BNE $C1D7                       A:01 X:00 Y:80 P:64 SP:FD
beforeNMI = 0 and afterNMI = 0
C1D7  A5 40     LDA $40 = 01                    A:01 X:00 Y:80 P:64 SP:FD
beforeNMI = 0 and afterNMI = 0
C1D9  D0 FC     BNE $C1D7                       A:01 X:00 Y:80 P:64 SP:FD
beforeNMI = 0 and afterNMI = 0
C1D7  A5 40     LDA $40 = 01                    A:01 X:00 Y:80 P:64 SP:FD
beforeNMI = 0 and afterNMI = 0
C1D9  D0 FC     BNE $C1D7                       A:01 X:00 Y:80 P:64 SP:FD
beforeNMI = 0 and afterNMI = 0
C1D7  A5 40     LDA $40 = 01                    A:01 X:00 Y:80 P:64 SP:FD
beforeNMI = 0 and afterNMI = 0
C1D9  D0 FC     BNE $C1D7                       A:01 X:00 Y:80 P:64 SP:FD
beforeNMI = 0 and afterNMI = 0
C1D7  A5 40     LDA $40 = 01                    A:01 X:00 Y:80 P:64 SP:FD
beforeNMI = 0 and afterNMI = 0
C1D9  D0 FC     BNE $C1D7                       A:01 X:00 Y:80 P:64 SP:FD
beforeNMI = 0 and afterNMI = 0
C1D7  A5 40     LDA $40 = 01                    A:01 X:00 Y:80 P:64 SP:FD
beforeNMI = 0 and afterNMI = 0
C1D9  D0 FC     BNE $C1D7                       A:01 X:00 Y:80 P:64 SP:FD
beforeNMI = 0 and afterNMI = 0
C1D7  A5 40     LDA $40 = 01                    A:01 X:00 Y:80 P:64 SP:FD
beforeNMI = 0 and afterNMI = 0
C1D9  D0 FC     BNE $C1D7                       A:01 X:00 Y:80 P:64 SP:FD
beforeNMI = 0 and afterNMI = 0
C1D7  A5 40     LDA $40 = 01                    A:01 X:00 Y:80 P:64 SP:FD
beforeNMI = 0 and afterNMI = 0
C1D9  D0 FC     BNE $C1D7                       A:01 X:00 Y:80 P:64 SP:FD
beforeNMI = 0 and afterNMI = 0
C1D7  A5 40     LDA $40 = 01                    A:01 X:00 Y:80 P:64 SP:FD
beforeNMI = 0 and afterNMI = 0
C1D9  D0 FC     BNE $C1D7                       A:01 X:00 Y:80 P:64 SP:FD
beforeNMI = 0 and afterNMI = 0
C1D7  A5 40     LDA $40 = 01                    A:01 X:00 Y:80 P:64 SP:FD
beforeNMI = 0 and afterNMI = 0
C1D9  D0 FC     BNE $C1D7                       A:01 X:00 Y:80 P:64 SP:FD
beforeNMI = 0 and afterNMI = 0
C1D7  A5 40     LDA $40 = 01                    A:01 X:00 Y:80 P:64 SP:FD
beforeNMI = 0 and afterNMI = 0
C1D9  D0 FC     BNE $C1D7                       A:01 X:00 Y:80 P:64 SP:FD
beforeNMI = 0 and afterNMI = 0
C1D7  A5 40     LDA $40 = 01                    A:01 X:00 Y:80 P:64 SP:FD
beforeNMI = 0 and afterNMI = 0
C1D9  D0 FC     BNE $C1D7                       A:01 X:00 Y:80 P:64 SP:FD
beforeNMI = 0 and afterNMI = 0
C1D7  A5 40     LDA $40 = 01                    A:01 X:00 Y:80 P:64 SP:FD
beforeNMI = 0 and afterNMI = 0
C1D9  D0 FC     BNE $C1D7                       A:01 X:00 Y:80 P:64 SP:FD
beforeNMI = 0 and afterNMI = 0
C1D7  A5 40     LDA $40 = 01                    A:01 X:00 Y:80 P:64 SP:FD
beforeNMI = 0 and afterNMI = 0
C1D9  D0 FC     BNE $C1D7                       A:01 X:00 Y:80 P:64 SP:FD
beforeNMI = 0 and afterNMI = 0
C1D7  A5 40     LDA $40 = 01                    A:01 X:00 Y:80 P:64 SP:FD
beforeNMI = 0 and afterNMI = 0
C1D9  D0 FC     BNE $C1D7                       A:01 X:00 Y:80 P:64 SP:FD
beforeNMI = 0 and afterNMI = 0
C1D7  A5 40     LDA $40 = 01                    A:01 X:00 Y:80 P:64 SP:FD
beforeNMI = 0 and afterNMI = 0
C1D9  D0 FC     BNE $C1D7                       A:01 X:00 Y:80 P:64 SP:FD
beforeNMI = 0 and afterNMI = 0
C1D7  A5 40     LDA $40 = 01                    A:01 X:00 Y:80 P:64 SP:FD
beforeNMI = 0 and afterNMI = 0
C1D9  D0 FC     BNE $C1D7                       A:01 X:00 Y:80 P:64 SP:FD
beforeNMI = 0 and afterNMI = 0
C1D7  A5 40     LDA $40 = 01                    A:01 X:00 Y:80 P:64 SP:FD
beforeNMI = 0 and afterNMI = 0
C1D9  D0 FC     BNE $C1D7                       A:01 X:00 Y:80 P:64 SP:FD
beforeNMI = 0 and afterNMI = 0
C1D7  A5 40     LDA $40 = 01                    A:01 X:00 Y:80 P:64 SP:FD
beforeNMI = 0 and afterNMI = 0
C1D9  D0 FC     BNE $C1D7                       A:01 X:00 Y:80 P:64 SP:FD
beforeNMI = 0 and afterNMI = 0
C1D7  A5 40     LDA $40 = 01                    A:01 X:00 Y:80 P:64 SP:FD
beforeNMI = 0 and afterNMI = 0
C1D9  D0 FC     BNE $C1D7                       A:01 X:00 Y:80 P:64 SP:FD
beforeNMI = 0 and afterNMI = 0
C1D7  A5 40     LDA $40 = 01                    A:01 X:00 Y:80 P:64 SP:FD
beforeNMI = 0 and afterNMI = 0
C1D9  D0 FC     BNE $C1D7                       A:01 X:00 Y:80 P:64 SP:FD
beforeNMI = 0 and afterNMI = 0
C1D7  A5 40     LDA $40 = 01                    A:01 X:00 Y:80 P:64 SP:FD
beforeNMI = 0 and afterNMI = 0
C1D9  D0 FC     BNE $C1D7                       A:01 X:00 Y:80 P:64 SP:FD
beforeNMI = 0 and afterNMI = 0
C1D7  A5 40     LDA $40 = 01                    A:01 X:00 Y:80 P:64 SP:FD
beforeNMI = 0 and afterNMI = 0
C1D9  D0 FC     BNE $C1D7                       A:01 X:00 Y:80 P:64 SP:FD
beforeNMI = 0 and afterNMI = 0
C1D7  A5 40     LDA $40 = 01                    A:01 X:00 Y:80 P:64 SP:FD
beforeNMI = 0 and afterNMI = 0
C1D9  D0 FC     BNE $C1D7                       A:01 X:00 Y:80 P:64 SP:FD
beforeNMI = 0 and afterNMI = 0
C1D7  A5 40     LDA $40 = 01                    A:01 X:00 Y:80 P:64 SP:FD
beforeNMI = 0 and afterNMI = 0
C1D9  D0 FC     BNE $C1D7                       A:01 X:00 Y:80 P:64 SP:FD
beforeNMI = 0 and afterNMI = 0
C1D7  A5 40     LDA $40 = 01                    A:01 X:00 Y:80 P:64 SP:FD
beforeNMI = 0 and afterNMI = 0
C1D9  D0 FC     BNE $C1D7                       A:01 X:00 Y:80 P:64 SP:FD
beforeNMI = 0 and afterNMI = 0
C1D7  A5 40     LDA $40 = 01                    A:01 X:00 Y:80 P:64 SP:FD
beforeNMI = 0 and afterNMI = 0
C1D9  D0 FC     BNE $C1D7                       A:01 X:00 Y:80 P:64 SP:FD
beforeNMI = 0 and afterNMI = 0
C1D7  A5 40     LDA $40 = 01                    A:01 X:00 Y:80 P:64 SP:FD
beforeNMI = 0 and afterNMI = 0
C1D9  D0 FC     BNE $C1D7                       A:01 X:00 Y:80 P:64 SP:FD
beforeNMI = 0 and afterNMI = 0
C1D7  A5 40     LDA $40 = 01                    A:01 X:00 Y:80 P:64 SP:FD
beforeNMI = 0 and afterNMI = 0
C1D9  D0 FC     BNE $C1D7                       A:01 X:00 Y:80 P:64 SP:FD
beforeNMI = 0 and afterNMI = 0
C1D7  A5 40     LDA $40 = 01                    A:01 X:00 Y:80 P:64 SP:FD
beforeNMI = 0 and afterNMI = 0
C1D9  D0 FC     BNE $C1D7                       A:01 X:00 Y:80 P:64 SP:FD
beforeNMI = 0 and afterNMI = 0
C1D7  A5 40     LDA $40 = 01                    A:01 X:00 Y:80 P:64 SP:FD
beforeNMI = 0 and afterNMI = 0
C1D9  D0 FC     BNE $C1D7                       A:01 X:00 Y:80 P:64 SP:FD
beforeNMI = 0 and afterNMI = 0
C1D7  A5 40     LDA $40 = 01                    A:01 X:00 Y:80 P:64 SP:FD
beforeNMI = 0 and afterNMI = 0
C1D9  D0 FC     BNE $C1D7                       A:01 X:00 Y:80 P:64 SP:FD
beforeNMI = 0 and afterNMI = 0
C1D7  A5 40     LDA $40 = 01                    A:01 X:00 Y:80 P:64 SP:FD
beforeNMI = 0 and afterNMI = 0
C1D9  D0 FC     BNE $C1D7                       A:01 X:00 Y:80 P:64 SP:FD
beforeNMI = 0 and afterNMI = 0
C1D7  A5 40     LDA $40 = 01                    A:01 X:00 Y:80 P:64 SP:FD
beforeNMI = 0 and afterNMI = 0
C1D9  D0 FC     BNE $C1D7                       A:01 X:00 Y:80 P:64 SP:FD
beforeNMI = 0 and afterNMI = 0
C1D7  A5 40     LDA $40 = 01                    A:01 X:00 Y:80 P:64 SP:FD
beforeNMI = 0 and afterNMI = 0
C1D9  D0 FC     BNE $C1D7                       A:01 X:00 Y:80 P:64 SP:FD
beforeNMI = 0 and afterNMI = 0
C1D7  A5 40     LDA $40 = 01                    A:01 X:00 Y:80 P:64 SP:FD
beforeNMI = 0 and afterNMI = 0
C1D9  D0 FC     BNE $C1D7                       A:01 X:00 Y:80 P:64 SP:FD
beforeNMI = 0 and afterNMI = 0
C1D7  A5 40     LDA $40 = 01                    A:01 X:00 Y:80 P:64 SP:FD
beforeNMI = 0 and afterNMI = 0
C1D9  D0 FC     BNE $C1D7                       A:01 X:00 Y:80 P:64 SP:FD
beforeNMI = 0 and afterNMI = 0
C1D7  A5 40     LDA $40 = 01                    A:01 X:00 Y:80 P:64 SP:FD
beforeNMI = 0 and afterNMI = 0
C1D9  D0 FC     BNE $C1D7                       A:01 X:00 Y:80 P:64 SP:FD
beforeNMI = 0 and afterNMI = 0
C1D7  A5 40     LDA $40 = 01                    A:01 X:00 Y:80 P:64 SP:FD
beforeNMI = 0 and afterNMI = 0
C1D9  D0 FC     BNE $C1D7                       A:01 X:00 Y:80 P:64 SP:FD
beforeNMI = 0 and afterNMI = 0
C1D7  A5 40     LDA $40 = 01                    A:01 X:00 Y:80 P:64 SP:FD
beforeNMI = 0 and afterNMI = 0
C1D9  D0 FC     BNE $C1D7                       A:01 X:00 Y:80 P:64 SP:FD
beforeNMI = 0 and afterNMI = 0
C1D7  A5 40     LDA $40 = 01                    A:01 X:00 Y:80 P:64 SP:FD
beforeNMI = 0 and afterNMI = 0
C1D9  D0 FC     BNE $C1D7                       A:01 X:00 Y:80 P:64 SP:FD
beforeNMI = 0 and afterNMI = 0
C1D7  A5 40     LDA $40 = 01                    A:01 X:00 Y:80 P:64 SP:FD
beforeNMI = 0 and afterNMI = 0
C1D9  D0 FC     BNE $C1D7                       A:01 X:00 Y:80 P:64 SP:FD
beforeNMI = 0 and afterNMI = 0
C1D7  A5 40     LDA $40 = 01                    A:01 X:00 Y:80 P:64 SP:FD
beforeNMI = 0 and afterNMI = 0
C1D9  D0 FC     BNE $C1D7                       A:01 X:00 Y:80 P:64 SP:FD
beforeNMI = 0 and afterNMI = 0
C1D7  A5 40     LDA $40 = 01                    A:01 X:00 Y:80 P:64 SP:FD
beforeNMI = 0 and afterNMI = 0
C1D9  D0 FC     BNE $C1D7                       A:01 X:00 Y:80 P:64 SP:FD
beforeNMI = 0 and afterNMI = 0
C1D7  A5 40     LDA $40 = 01                    A:01 X:00 Y:80 P:64 SP:FD
beforeNMI = 0 and afterNMI = 0
C1D9  D0 FC     BNE $C1D7                       A:01 X:00 Y:80 P:64 SP:FD
beforeNMI = 0 and afterNMI = 0
C1D7  A5 40     LDA $40 = 01                    A:01 X:00 Y:80 P:64 SP:FD
beforeNMI = 0 and afterNMI = 0
C1D9  D0 FC     BNE $C1D7                       A:01 X:00 Y:80 P:64 SP:FD
beforeNMI = 0 and afterNMI = 0
C1D7  A5 40     LDA $40 = 01                    A:01 X:00 Y:80 P:64 SP:FD
beforeNMI = 0 and afterNMI = 0
C1D9  D0 FC     BNE $C1D7                       A:01 X:00 Y:80 P:64 SP:FD
beforeNMI = 0 and afterNMI = 0
C1D7  A5 40     LDA $40 = 01                    A:01 X:00 Y:80 P:64 SP:FD
beforeNMI = 0 and afterNMI = 0
C1D9  D0 FC     BNE $C1D7                       A:01 X:00 Y:80 P:64 SP:FD
beforeNMI = 0 and afterNMI = 0
C1D7  A5 40     LDA $40 = 01                    A:01 X:00 Y:80 P:64 SP:FD
beforeNMI = 0 and afterNMI = 0
C1D9  D0 FC     BNE $C1D7                       A:01 X:00 Y:80 P:64 SP:FD
beforeNMI = 0 and afterNMI = 0
C1D7  A5 40     LDA $40 = 01                    A:01 X:00 Y:80 P:64 SP:FD
beforeNMI = 0 and afterNMI = 0
C1D9  D0 FC     BNE $C1D7                       A:01 X:00 Y:80 P:64 SP:FD
beforeNMI = 0 and afterNMI = 0
C1D7  A5 40     LDA $40 = 01                    A:01 X:00 Y:80 P:64 SP:FD
beforeNMI = 0 and afterNMI = 0
C1D9  D0 FC     BNE $C1D7                       A:01 X:00 Y:80 P:64 SP:FD
beforeNMI = 0 and afterNMI = 0
C1D7  A5 40     LDA $40 = 01                    A:01 X:00 Y:80 P:64 SP:FD
beforeNMI = 0 and afterNMI = 0
C1D9  D0 FC     BNE $C1D7                       A:01 X:00 Y:80 P:64 SP:FD
beforeNMI = 0 and afterNMI = 0
C1D7  A5 40     LDA $40 = 01                    A:01 X:00 Y:80 P:64 SP:FD
beforeNMI = 0 and afterNMI = 0
C1D9  D0 FC     BNE $C1D7                       A:01 X:00 Y:80 P:64 SP:FD
beforeNMI = 0 and afterNMI = 0
C1D7  A5 40     LDA $40 = 01                    A:01 X:00 Y:80 P:64 SP:FD
beforeNMI = 0 and afterNMI = 0
C1D9  D0 FC     BNE $C1D7                       A:01 X:00 Y:80 P:64 SP:FD
beforeNMI = 0 and afterNMI = 0
C1D7  A5 40     LDA $40 = 01                    A:01 X:00 Y:80 P:64 SP:FD
beforeNMI = 0 and afterNMI = 0
C1D9  D0 FC     BNE $C1D7                       A:01 X:00 Y:80 P:64 SP:FD
beforeNMI = 0 and afterNMI = 0
C1D7  A5 40     LDA $40 = 01                    A:01 X:00 Y:80 P:64 SP:FD
beforeNMI = 0 and afterNMI = 0
C1D9  D0 FC     BNE $C1D7                       A:01 X:00 Y:80 P:64 SP:FD
beforeNMI = 0 and afterNMI = 0
C1D7  A5 40     LDA $40 = 01                    A:01 X:00 Y:80 P:64 SP:FD
beforeNMI = 0 and afterNMI = 0
C1D9  D0 FC     BNE $C1D7                       A:01 X:00 Y:80 P:64 SP:FD
beforeNMI = 0 and afterNMI = 0
C1D7  A5 40     LDA $40 = 01                    A:01 X:00 Y:80 P:64 SP:FD
beforeNMI = 0 and afterNMI = 0
C1D9  D0 FC     BNE $C1D7                       A:01 X:00 Y:80 P:64 SP:FD
beforeNMI = 0 and afterNMI = 0
C1D7  A5 40     LDA $40 = 01                    A:01 X:00 Y:80 P:64 SP:FD
beforeNMI = 0 and afterNMI = 0
C1D9  D0 FC     BNE $C1D7                       A:01 X:00 Y:80 P:64 SP:FD
beforeNMI = 0 and afterNMI = 0
C1D7  A5 40     LDA $40 = 01                    A:01 X:00 Y:80 P:64 SP:FD
beforeNMI = 0 and afterNMI = 0
C1D9  D0 FC     BNE $C1D7                       A:01 X:00 Y:80 P:64 SP:FD
beforeNMI = 0 and afterNMI = 0
C1D7  A5 40     LDA $40 = 01                    A:01 X:00 Y:80 P:64 SP:FD
beforeNMI = 0 and afterNMI = 0
C1D9  D0 FC     BNE $C1D7                       A:01 X:00 Y:80 P:64 SP:FD
beforeNMI = 0 and afterNMI = 0
C1D7  A5 40     LDA $40 = 01                    A:01 X:00 Y:80 P:64 SP:FD
beforeNMI = 0 and afterNMI = 0
C1D9  D0 FC     BNE $C1D7                       A:01 X:00 Y:80 P:64 SP:FD
beforeNMI = 0 and afterNMI = 0
C1D7  A5 40     LDA $40 = 01                    A:01 X:00 Y:80 P:64 SP:FD
beforeNMI = 0 and afterNMI = 0
C1D9  D0 FC     BNE $C1D7                       A:01 X:00 Y:80 P:64 SP:FD
beforeNMI = 0 and afterNMI = 0
C1D7  A5 40     LDA $40 = 01                    A:01 X:00 Y:80 P:64 SP:FD
beforeNMI = 0 and afterNMI = 0
C1D9  D0 FC     BNE $C1D7                       A:01 X:00 Y:80 P:64 SP:FD
beforeNMI = 0 and afterNMI = 0
C1D7  A5 40     LDA $40 = 01                    A:01 X:00 Y:80 P:64 SP:FD
beforeNMI = 0 and afterNMI = 0
C1D9  D0 FC     BNE $C1D7                       A:01 X:00 Y:80 P:64 SP:FD
beforeNMI = 0 and afterNMI = 0
C1D7  A5 40     LDA $40 = 01                    A:01 X:00 Y:80 P:64 SP:FD
beforeNMI = 0 and afterNMI = 0
C1D9  D0 FC     BNE $C1D7                       A:01 X:00 Y:80 P:64 SP:FD
beforeNMI = 0 and afterNMI = 0
C1D7  A5 40     LDA $40 = 01                    A:01 X:00 Y:80 P:64 SP:FD
beforeNMI = 0 and afterNMI = 0
C1D9  D0 FC     BNE $C1D7                       A:01 X:00 Y:80 P:64 SP:FD
beforeNMI = 0 and afterNMI = 0
C1D7  A5 40     LDA $40 = 01                    A:01 X:00 Y:80 P:64 SP:FD
beforeNMI = 0 and afterNMI = 0
C1D9  D0 FC     BNE $C1D7                       A:01 X:00 Y:80 P:64 SP:FD
beforeNMI = 0 and afterNMI = 0
C1D7  A5 40     LDA $40 = 01                    A:01 X:00 Y:80 P:64 SP:FD
beforeNMI = 0 and afterNMI = 0
C1D9  D0 FC     BNE $C1D7                       A:01 X:00 Y:80 P:64 SP:FD
beforeNMI = 0 and afterNMI = 0
C1D7  A5 40     LDA $40 = 01                    A:01 X:00 Y:80 P:64 SP:FD
beforeNMI = 0 and afterNMI = 0
C1D9  D0 FC     BNE $C1D7                       A:01 X:00 Y:80 P:64 SP:FD
beforeNMI = 0 and afterNMI = 0
C1D7  A5 40     LDA $40 = 01                    A:01 X:00 Y:80 P:64 SP:FD
beforeNMI = 0 and afterNMI = 0
C1D9  D0 FC     BNE $C1D7                       A:01 X:00 Y:80 P:64 SP:FD
beforeNMI = 0 and afterNMI = 0
C1D7  A5 40     LDA $40 = 01                    A:01 X:00 Y:80 P:64 SP:FD
beforeNMI = 0 and afterNMI = 0
C1D9  D0 FC     BNE $C1D7                       A:01 X:00 Y:80 P:64 SP:FD
beforeNMI = 0 and afterNMI = 0
C1D7  A5 40     LDA $40 = 01                    A:01 X:00 Y:80 P:64 SP:FD
beforeNMI = 0 and afterNMI = 0
C1D9  D0 FC     BNE $C1D7                       A:01 X:00 Y:80 P:64 SP:FD
beforeNMI = 0 and afterNMI = 0
C1D7  A5 40     LDA $40 = 01                    A:01 X:00 Y:80 P:64 SP:FD
beforeNMI = 0 and afterNMI = 0
C1D9  D0 FC     BNE $C1D7                       A:01 X:00 Y:80 P:64 SP:FD
beforeNMI = 0 and afterNMI = 0
C1D7  A5 40     LDA $40 = 01                    A:01 X:00 Y:80 P:64 SP:FD
beforeNMI = 0 and afterNMI = 0
C1D9  D0 FC     BNE $C1D7                       A:01 X:00 Y:80 P:64 SP:FD
beforeNMI = 0 and afterNMI = 0
C1D7  A5 40     LDA $40 = 01                    A:01 X:00 Y:80 P:64 SP:FD
beforeNMI = 0 and afterNMI = 0
C1D9  D0 FC     BNE $C1D7                       A:01 X:00 Y:80 P:64 SP:FD
beforeNMI = 0 and afterNMI = 0
C1D7  A5 40     LDA $40 = 01                    A:01 X:00 Y:80 P:64 SP:FD
beforeNMI = 0 and afterNMI = 0
C1D9  D0 FC     BNE $C1D7                       A:01 X:00 Y:80 P:64 SP:FD
beforeNMI = 0 and afterNMI = 0
C1D7  A5 40     LDA $40 = 01                    A:01 X:00 Y:80 P:64 SP:FD
beforeNMI = 0 and afterNMI = 0
C1D9  D0 FC     BNE $C1D7                       A:01 X:00 Y:80 P:64 SP:FD
beforeNMI = 0 and afterNMI = 0
C1D7  A5 40     LDA $40 = 01                    A:01 X:00 Y:80 P:64 SP:FD
beforeNMI = 0 and afterNMI = 0
C1D9  D0 FC     BNE $C1D7                       A:01 X:00 Y:80 P:64 SP:FD
beforeNMI = 0 and afterNMI = 0
C1D7  A5 40     LDA $40 = 01                    A:01 X:00 Y:80 P:64 SP:FD
beforeNMI = 0 and afterNMI = 0
C1D9  D0 FC     BNE $C1D7                       A:01 X:00 Y:80 P:64 SP:FD
beforeNMI = 0 and afterNMI = 0
C1D7  A5 40     LDA $40 = 01                    A:01 X:00 Y:80 P:64 SP:FD
beforeNMI = 0 and afterNMI = 0
C1D9  D0 FC     BNE $C1D7                       A:01 X:00 Y:80 P:64 SP:FD
beforeNMI = 0 and afterNMI = 0
C1D7  A5 40     LDA $40 = 01                    A:01 X:00 Y:80 P:64 SP:FD
beforeNMI = 0 and afterNMI = 0
C1D9  D0 FC     BNE $C1D7                       A:01 X:00 Y:80 P:64 SP:FD
beforeNMI = 0 and afterNMI = 0
C1D7  A5 40     LDA $40 = 01                    A:01 X:00 Y:80 P:64 SP:FD
beforeNMI = 0 and afterNMI = 0
C1D9  D0 FC     BNE $C1D7                       A:01 X:00 Y:80 P:64 SP:FD
beforeNMI = 0 and afterNMI = 0
C1D7  A5 40     LDA $40 = 01                    A:01 X:00 Y:80 P:64 SP:FD
beforeNMI = 0 and afterNMI = 0
C1D9  D0 FC     BNE $C1D7                       A:01 X:00 Y:80 P:64 SP:FD
beforeNMI = 0 and afterNMI = 0
C1D7  A5 40     LDA $40 = 01                    A:01 X:00 Y:80 P:64 SP:FD
beforeNMI = 0 and afterNMI = 0
C1D9  D0 FC     BNE $C1D7                       A:01 X:00 Y:80 P:64 SP:FD
beforeNMI = 0 and afterNMI = 0
C1D7  A5 40     LDA $40 = 01                    A:01 X:00 Y:80 P:64 SP:FD
beforeNMI = 0 and afterNMI = 0
C1D9  D0 FC     BNE $C1D7                       A:01 X:00 Y:80 P:64 SP:FD
beforeNMI = 0 and afterNMI = 0
C1D7  A5 40     LDA $40 = 01                    A:01 X:00 Y:80 P:64 SP:FD
beforeNMI = 0 and afterNMI = 0
C1D9  D0 FC     BNE $C1D7                       A:01 X:00 Y:80 P:64 SP:FD
beforeNMI = 0 and afterNMI = 0
C1D7  A5 40     LDA $40 = 01                    A:01 X:00 Y:80 P:64 SP:FD
beforeNMI = 0 and afterNMI = 0
C1D9  D0 FC     BNE $C1D7                       A:01 X:00 Y:80 P:64 SP:FD
beforeNMI = 0 and afterNMI = 0
C1D7  A5 40     LDA $40 = 01                    A:01 X:00 Y:80 P:64 SP:FD
beforeNMI = 0 and afterNMI = 0
C1D9  D0 FC     BNE $C1D7                       A:01 X:00 Y:80 P:64 SP:FD
beforeNMI = 0 and afterNMI = 0
C1D7  A5 40     LDA $40 = 01                    A:01 X:00 Y:80 P:64 SP:FD
beforeNMI = 0 and afterNMI = 0
C1D9  D0 FC     BNE $C1D7                       A:01 X:00 Y:80 P:64 SP:FD
beforeNMI = 0 and afterNMI = 0
C1D7  A5 40     LDA $40 = 01                    A:01 X:00 Y:80 P:64 SP:FD
beforeNMI = 0 and afterNMI = 0
C1D9  D0 FC     BNE $C1D7                       A:01 X:00 Y:80 P:64 SP:FD
beforeNMI = 0 and afterNMI = 0
C1D7  A5 40     LDA $40 = 01                    A:01 X:00 Y:80 P:64 SP:FD
beforeNMI = 0 and afterNMI = 0
C1D9  D0 FC     BNE $C1D7                       A:01 X:00 Y:80 P:64 SP:FD
beforeNMI = 0 and afterNMI = 0
C1D7  A5 40     LDA $40 = 01                    A:01 X:00 Y:80 P:64 SP:FD
beforeNMI = 0 and afterNMI = 0
C1D9  D0 FC     BNE $C1D7                       A:01 X:00 Y:80 P:64 SP:FD
beforeNMI = 0 and afterNMI = 0
C1D7  A5 40     LDA $40 = 01                    A:01 X:00 Y:80 P:64 SP:FD
beforeNMI = 0 and afterNMI = 0
C1D9  D0 FC     BNE $C1D7                       A:01 X:00 Y:80 P:64 SP:FD
beforeNMI = 0 and afterNMI = 0
C1D7  A5 40     LDA $40 = 01                    A:01 X:00 Y:80 P:64 SP:FD
beforeNMI = 0 and afterNMI = 0
C1D9  D0 FC     BNE $C1D7                       A:01 X:00 Y:80 P:64 SP:FD
beforeNMI = 0 and afterNMI = 0
C1D7  A5 40     LDA $40 = 01                    A:01 X:00 Y:80 P:64 SP:FD
beforeNMI = 0 and afterNMI = 0
C1D9  D0 FC     BNE $C1D7                       A:01 X:00 Y:80 P:64 SP:FD
beforeNMI = 0 and afterNMI = 0
C1D7  A5 40     LDA $40 = 01                    A:01 X:00 Y:80 P:64 SP:FD
beforeNMI = 0 and afterNMI = 0
C1D9  D0 FC     BNE $C1D7                       A:01 X:00 Y:80 P:64 SP:FD
beforeNMI = 0 and afterNMI = 0
C1D7  A5 40     LDA $40 = 01                    A:01 X:00 Y:80 P:64 SP:FD
beforeNMI = 0 and afterNMI = 0
C1D9  D0 FC     BNE $C1D7                       A:01 X:00 Y:80 P:64 SP:FD
beforeNMI = 0 and afterNMI = 0
C1D7  A5 40     LDA $40 = 01                    A:01 X:00 Y:80 P:64 SP:FD
beforeNMI = 0 and afterNMI = 0
C1D9  D0 FC     BNE $C1D7                       A:01 X:00 Y:80 P:64 SP:FD
beforeNMI = 0 and afterNMI = 0
C1D7  A5 40     LDA $40 = 01                    A:01 X:00 Y:80 P:64 SP:FD
beforeNMI = 0 and afterNMI = 0
C1D9  D0 FC     BNE $C1D7                       A:01 X:00 Y:80 P:64 SP:FD
beforeNMI = 0 and afterNMI = 0
C1D7  A5 40     LDA $40 = 01                    A:01 X:00 Y:80 P:64 SP:FD
beforeNMI = 0 and afterNMI = 0
C1D9  D0 FC     BNE $C1D7                       A:01 X:00 Y:80 P:64 SP:FD
beforeNMI = 0 and afterNMI = 0
C1D7  A5 40     LDA $40 = 01                    A:01 X:00 Y:80 P:64 SP:FD
beforeNMI = 0 and afterNMI = 0
C1D9  D0 FC     BNE $C1D7                       A:01 X:00 Y:80 P:64 SP:FD
beforeNMI = 0 and afterNMI = 0
C1D7  A5 40     LDA $40 = 01                    A:01 X:00 Y:80 P:64 SP:FD
beforeNMI = 0 and afterNMI = 0
C1D9  D0 FC     BNE $C1D7                       A:01 X:00 Y:80 P:64 SP:FD
beforeNMI = 0 and afterNMI = 0
C1D7  A5 40     LDA $40 = 01                    A:01 X:00 Y:80 P:64 SP:FD
beforeNMI = 0 and afterNMI = 0
C1D9  D0 FC     BNE $C1D7                       A:01 X:00 Y:80 P:64 SP:FD
beforeNMI = 0 and afterNMI = 0
C1D7  A5 40     LDA $40 = 01                    A:01 X:00 Y:80 P:64 SP:FD
beforeNMI = 0 and afterNMI = 0
C1D9  D0 FC     BNE $C1D7                       A:01 X:00 Y:80 P:64 SP:FD
beforeNMI = 0 and afterNMI = 0
C1D7  A5 40     LDA $40 = 01                    A:01 X:00 Y:80 P:64 SP:FD
beforeNMI = 0 and afterNMI = 0
C1D9  D0 FC     BNE $C1D7                       A:01 X:00 Y:80 P:64 SP:FD
beforeNMI = 0 and afterNMI = 0
C1D7  A5 40     LDA $40 = 01                    A:01 X:00 Y:80 P:64 SP:FD
beforeNMI = 0 and afterNMI = 0
C1D9  D0 FC     BNE $C1D7                       A:01 X:00 Y:80 P:64 SP:FD
beforeNMI = 0 and afterNMI = 0
C1D7  A5 40     LDA $40 = 01                    A:01 X:00 Y:80 P:64 SP:FD
beforeNMI = 0 and afterNMI = 0
C1D9  D0 FC     BNE $C1D7                       A:01 X:00 Y:80 P:64 SP:FD
beforeNMI = 0 and afterNMI = 0
C1D7  A5 40     LDA $40 = 01                    A:01 X:00 Y:80 P:64 SP:FD
beforeNMI = 0 and afterNMI = 0
C1D9  D0 FC     BNE $C1D7                       A:01 X:00 Y:80 P:64 SP:FD
beforeNMI = 0 and afterNMI = 0
C1D7  A5 40     LDA $40 = 01                    A:01 X:00 Y:80 P:64 SP:FD
beforeNMI = 0 and afterNMI = 0
C1D9  D0 FC     BNE $C1D7                       A:01 X:00 Y:80 P:64 SP:FD
beforeNMI = 0 and afterNMI = 0
C1D7  A5 40     LDA $40 = 01                    A:01 X:00 Y:80 P:64 SP:FD
beforeNMI = 0 and afterNMI = 0
C1D9  D0 FC     BNE $C1D7                       A:01 X:00 Y:80 P:64 SP:FD
beforeNMI = 0 and afterNMI = 0
C1D7  A5 40     LDA $40 = 01                    A:01 X:00 Y:80 P:64 SP:FD
beforeNMI = 0 and afterNMI = 0
C1D9  D0 FC     BNE $C1D7                       A:01 X:00 Y:80 P:64 SP:FD
beforeNMI = 0 and afterNMI = 0
C1D7  A5 40     LDA $40 = 01                    A:01 X:00 Y:80 P:64 SP:FD
beforeNMI = 0 and afterNMI = 0
C1D9  D0 FC     BNE $C1D7                       A:01 X:00 Y:80 P:64 SP:FD
beforeNMI = 0 and afterNMI = 0
C1D7  A5 40     LDA $40 = 01                    A:01 X:00 Y:80 P:64 SP:FD
beforeNMI = 0 and afterNMI = 0
C1D9  D0 FC     BNE $C1D7                       A:01 X:00 Y:80 P:64 SP:FD
beforeNMI = 0 and afterNMI = 0
C1D7  A5 40     LDA $40 = 01                    A:01 X:00 Y:80 P:64 SP:FD
beforeNMI = 0 and afterNMI = 0
C1D9  D0 FC     BNE $C1D7                       A:01 X:00 Y:80 P:64 SP:FD
beforeNMI = 0 and afterNMI = 0
C1D7  A5 40     LDA $40 = 01                    A:01 X:00 Y:80 P:64 SP:FD
beforeNMI = 0 and afterNMI = 0
C1D9  D0 FC     BNE $C1D7                       A:01 X:00 Y:80 P:64 SP:FD
beforeNMI = 0 and afterNMI = 0
C1D7  A5 40     LDA $40 = 01                    A:01 X:00 Y:80 P:64 SP:FD
beforeNMI = 0 and afterNMI = 0
C1D9  D0 FC     BNE $C1D7                       A:01 X:00 Y:80 P:64 SP:FD
beforeNMI = 0 and afterNMI = 0
C1D7  A5 40     LDA $40 = 01                    A:01 X:00 Y:80 P:64 SP:FD
beforeNMI = 0 and afterNMI = 0
C1D9  D0 FC     BNE $C1D7                       A:01 X:00 Y:80 P:64 SP:FD
beforeNMI = 0 and afterNMI = 0
C1D7  A5 40     LDA $40 = 01                    A:01 X:00 Y:80 P:64 SP:FD
beforeNMI = 0 and afterNMI = 0
C1D9  D0 FC     BNE $C1D7                       A:01 X:00 Y:80 P:64 SP:FD
beforeNMI = 0 and afterNMI = 0
C1D7  A5 40     LDA $40 = 01                    A:01 X:00 Y:80 P:64 SP:FD
beforeNMI = 0 and afterNMI = 0
C1D9  D0 FC     BNE $C1D7                       A:01 X:00 Y:80 P:64 SP:FD
beforeNMI = 0 and afterNMI = 0
C1D7  A5 40     LDA $40 = 01                    A:01 X:00 Y:80 P:64 SP:FD
beforeNMI = 0 and afterNMI = 0
C1D9  D0 FC     BNE $C1D7                       A:01 X:00 Y:80 P:64 SP:FD
beforeNMI = 0 and afterNMI = 0
C1D7  A5 40     LDA $40 = 01                    A:01 X:00 Y:80 P:64 SP:FD
beforeNMI = 0 and afterNMI = 0
C1D9  D0 FC     BNE $C1D7                       A:01 X:00 Y:80 P:64 SP:FD
beforeNMI = 0 and afterNMI = 0
C1D7  A5 40     LDA $40 = 01                    A:01 X:00 Y:80 P:64 SP:FD
beforeNMI = 0 and afterNMI = 0
C1D9  D0 FC     BNE $C1D7                       A:01 X:00 Y:80 P:64 SP:FD
beforeNMI = 0 and afterNMI = 0
C1D7  A5 40     LDA $40 = 01                    A:01 X:00 Y:80 P:64 SP:FD
beforeNMI = 0 and afterNMI = 0
C1D9  D0 FC     BNE $C1D7                       A:01 X:00 Y:80 P:64 SP:FD
beforeNMI = 0 and afterNMI = 0
C1D7  A5 40     LDA $40 = 01                    A:01 X:00 Y:80 P:64 SP:FD
beforeNMI = 0 and afterNMI = 0
C1D9  D0 FC     BNE $C1D7                       A:01 X:00 Y:80 P:64 SP:FD
beforeNMI = 0 and afterNMI = 0
C1D7  A5 40     LDA $40 = 01                    A:01 X:00 Y:80 P:64 SP:FD
beforeNMI = 0 and afterNMI = 0
C1D9  D0 FC     BNE $C1D7                       A:01 X:00 Y:80 P:64 SP:FD
beforeNMI = 0 and afterNMI = 0
C1D7  A5 40     LDA $40 = 01                    A:01 X:00 Y:80 P:64 SP:FD
beforeNMI = 0 and afterNMI = 0
C1D9  D0 FC     BNE $C1D7                       A:01 X:00 Y:80 P:64 SP:FD
beforeNMI = 0 and afterNMI = 0
C1D7  A5 40     LDA $40 = 01                    A:01 X:00 Y:80 P:64 SP:FD
beforeNMI = 0 and afterNMI = 0
C1D9  D0 FC     BNE $C1D7                       A:01 X:00 Y:80 P:64 SP:FD
beforeNMI = 0 and afterNMI = 0
C1D7  A5 40     LDA $40 = 01                    A:01 X:00 Y:80 P:64 SP:FD
beforeNMI = 0 and afterNMI = 0
C1D9  D0 FC     BNE $C1D7                       A:01 X:00 Y:80 P:64 SP:FD
beforeNMI = 0 and afterNMI = 0
C1D7  A5 40     LDA $40 = 01                    A:01 X:00 Y:80 P:64 SP:FD
beforeNMI = 0 and afterNMI = 0
C1D9  D0 FC     BNE $C1D7                       A:01 X:00 Y:80 P:64 SP:FD
beforeNMI = 0 and afterNMI = 0
C1D7  A5 40     LDA $40 = 01                    A:01 X:00 Y:80 P:64 SP:FD
beforeNMI = 0 and afterNMI = 0
C1D9  D0 FC     BNE $C1D7                       A:01 X:00 Y:80 P:64 SP:FD
beforeNMI = 0 and afterNMI = 0
C1D7  A5 40     LDA $40 = 01                    A:01 X:00 Y:80 P:64 SP:FD
beforeNMI = 0 and afterNMI = 0
C1D9  D0 FC     BNE $C1D7                       A:01 X:00 Y:80 P:64 SP:FD
beforeNMI = 0 and afterNMI = 0
C1D7  A5 40     LDA $40 = 01                    A:01 X:00 Y:80 P:64 SP:FD
beforeNMI = 0 and afterNMI = 0
C1D9  D0 FC     BNE $C1D7                       A:01 X:00 Y:80 P:64 SP:FD
beforeNMI = 0 and afterNMI = 0
C1D7  A5 40     LDA $40 = 01                    A:01 X:00 Y:80 P:64 SP:FD
beforeNMI = 0 and afterNMI = 0
C1D9  D0 FC     BNE $C1D7                       A:01 X:00 Y:80 P:64 SP:FD
beforeNMI = 0 and afterNMI = 0
C1D7  A5 40     LDA $40 = 01                    A:01 X:00 Y:80 P:64 SP:FD
beforeNMI = 0 and afterNMI = 0
C1D9  D0 FC     BNE $C1D7                       A:01 X:00 Y:80 P:64 SP:FD
beforeNMI = 0 and afterNMI = 0
C1D7  A5 40     LDA $40 = 01                    A:01 X:00 Y:80 P:64 SP:FD
beforeNMI = 0 and afterNMI = 0
C1D9  D0 FC     BNE $C1D7                       A:01 X:00 Y:80 P:64 SP:FD
beforeNMI = 0 and afterNMI = 0
C1D7  A5 40     LDA $40 = 01                    A:01 X:00 Y:80 P:64 SP:FD
beforeNMI = 0 and afterNMI = 0
C1D9  D0 FC     BNE $C1D7                       A:01 X:00 Y:80 P:64 SP:FD
beforeNMI = 0 and afterNMI = 0
C1D7  A5 40     LDA $40 = 01                    A:01 X:00 Y:80 P:64 SP:FD
beforeNMI = 0 and afterNMI = 0
C1D9  D0 FC     BNE $C1D7                       A:01 X:00 Y:80 P:64 SP:FD
beforeNMI = 0 and afterNMI = 0
C1D7  A5 40     LDA $40 = 01                    A:01 X:00 Y:80 P:64 SP:FD
beforeNMI = 0 and afterNMI = 0
C1D9  D0 FC     BNE $C1D7                       A:01 X:00 Y:80 P:64 SP:FD
beforeNMI = 0 and afterNMI = 0
C1D7  A5 40     LDA $40 = 01                    A:01 X:00 Y:80 P:64 SP:FD
beforeNMI = 0 and afterNMI = 0
C1D9  D0 FC     BNE $C1D7                       A:01 X:00 Y:80 P:64 SP:FD
beforeNMI = 0 and afterNMI = 0
C1D7  A5 40     LDA $40 = 01                    A:01 X:00 Y:80 P:64 SP:FD
beforeNMI = 0 and afterNMI = 0
C1D9  D0 FC     BNE $C1D7                       A:01 X:00 Y:80 P:64 SP:FD
beforeNMI = 0 and afterNMI = 0
C1D7  A5 40     LDA $40 = 01                    A:01 X:00 Y:80 P:64 SP:FD
beforeNMI = 0 and afterNMI = 0
C1D9  D0 FC     BNE $C1D7                       A:01 X:00 Y:80 P:64 SP:FD
beforeNMI = 0 and afterNMI = 0
C1D7  A5 40     LDA $40 = 01                    A:01 X:00 Y:80 P:64 SP:FD
beforeNMI = 0 and afterNMI = 0
C1D9  D0 FC     BNE $C1D7                       A:01 X:00 Y:80 P:64 SP:FD
beforeNMI = 0 and afterNMI = 0
C1D7  A5 40     LDA $40 = 01                    A:01 X:00 Y:80 P:64 SP:FD
beforeNMI = 0 and afterNMI = 0
C1D9  D0 FC     BNE $C1D7                       A:01 X:00 Y:80 P:64 SP:FD
beforeNMI = 0 and afterNMI = 0
C1D7  A5 40     LDA $40 = 01                    A:01 X:00 Y:80 P:64 SP:FD
beforeNMI = 0 and afterNMI = 0
C1D9  D0 FC     BNE $C1D7                       A:01 X:00 Y:80 P:64 SP:FD
beforeNMI = 0 and afterNMI = 0
C1D7  A5 40     LDA $40 = 01                    A:01 X:00 Y:80 P:64 SP:FD
beforeNMI = 0 and afterNMI = 0
C1D9  D0 FC     BNE $C1D7                       A:01 X:00 Y:80 P:64 SP:FD
beforeNMI = 0 and afterNMI = 0
C1D7  A5 40     LDA $40 = 01                    A:01 X:00 Y:80 P:64 SP:FD
beforeNMI = 0 and afterNMI = 0
C1D9  D0 FC     BNE $C1D7                       A:01 X:00 Y:80 P:64 SP:FD
beforeNMI = 0 and afterNMI = 0
C1D7  A5 40     LDA $40 = 01                    A:01 X:00 Y:80 P:64 SP:FD
beforeNMI = 0 and afterNMI = 0
C1D9  D0 FC     BNE $C1D7                       A:01 X:00 Y:80 P:64 SP:FD
beforeNMI = 0 and afterNMI = 0
C1D7  A5 40     LDA $40 = 01                    A:01 X:00 Y:80 P:64 SP:FD
beforeNMI = 0 and afterNMI = 0
C1D9  D0 FC     BNE $C1D7                       A:01 X:00 Y:80 P:64 SP:FD
beforeNMI = 0 and afterNMI = 0
C1D7  A5 40     LDA $40 = 01                    A:01 X:00 Y:80 P:64 SP:FD
beforeNMI = 0 and afterNMI = 0
C1D9  D0 FC     BNE $C1D7                       A:01 X:00 Y:80 P:64 SP:FD
beforeNMI = 0 and afterNMI = 0
C1D7  A5 40     LDA $40 = 01                    A:01 X:00 Y:80 P:64 SP:FD
beforeNMI = 0 and afterNMI = 0
C1D9  D0 FC     BNE $C1D7                       A:01 X:00 Y:80 P:64 SP:FD
beforeNMI = 0 and afterNMI = 0
C1D7  A5 40     LDA $40 = 01                    A:01 X:00 Y:80 P:64 SP:FD
beforeNMI = 0 and afterNMI = 0
C1D9  D0 FC     BNE $C1D7                       A:01 X:00 Y:80 P:64 SP:FD
beforeNMI = 0 and afterNMI = 0
C1D7  A5 40     LDA $40 = 01                    A:01 X:00 Y:80 P:64 SP:FD
beforeNMI = 0 and afterNMI = 0
C1D9  D0 FC     BNE $C1D7                       A:01 X:00 Y:80 P:64 SP:FD
beforeNMI = 0 and afterNMI = 0
C1D7  A5 40     LDA $40 = 01                    A:01 X:00 Y:80 P:64 SP:FD
beforeNMI = 0 and afterNMI = 0
C1D9  D0 FC     BNE $C1D7                       A:01 X:00 Y:80 P:64 SP:FD
beforeNMI = 0 and afterNMI = 0
C1D7  A5 40     LDA $40 = 01                    A:01 X:00 Y:80 P:64 SP:FD
beforeNMI = 0 and afterNMI = 0
C1D9  D0 FC     BNE $C1D7                       A:01 X:00 Y:80 P:64 SP:FD
beforeNMI = 0 and afterNMI = 0
C1D7  A5 40     LDA $40 = 01                    A:01 X:00 Y:80 P:64 SP:FD
beforeNMI = 0 and afterNMI = 0
C1D9  D0 FC     BNE $C1D7                       A:01 X:00 Y:80 P:64 SP:FD
beforeNMI = 0 and afterNMI = 0
C1D7  A5 40     LDA $40 = 01                    A:01 X:00 Y:80 P:64 SP:FD
beforeNMI = 0 and afterNMI = 0
C1D9  D0 FC     BNE $C1D7                       A:01 X:00 Y:80 P:64 SP:FD
beforeNMI = 0 and afterNMI = 0
C1D7  A5 40     LDA $40 = 01                    A:01 X:00 Y:80 P:64 SP:FD
beforeNMI = 0 and afterNMI = 0
C1D9  D0 FC     BNE $C1D7                       A:01 X:00 Y:80 P:64 SP:FD
beforeNMI = 0 and afterNMI = 0
C1D7  A5 40     LDA $40 = 01                    A:01 X:00 Y:80 P:64 SP:FD
beforeNMI = 0 and afterNMI = 0
C1D9  D0 FC     BNE $C1D7                       A:01 X:00 Y:80 P:64 SP:FD
beforeNMI = 0 and afterNMI = 0
C1D7  A5 40     LDA $40 = 01                    A:01 X:00 Y:80 P:64 SP:FD
beforeNMI = 0 and afterNMI = 0
C1D9  D0 FC     BNE $C1D7                       A:01 X:00 Y:80 P:64 SP:FD
beforeNMI = 0 and afterNMI = 0
C1D7  A5 40     LDA $40 = 01                    A:01 X:00 Y:80 P:64 SP:FD
beforeNMI = 0 and afterNMI = 0
C1D9  D0 FC     BNE $C1D7                       A:01 X:00 Y:80 P:64 SP:FD
beforeNMI = 0 and afterNMI = 0
C1D7  A5 40     LDA $40 = 01                    A:01 X:00 Y:80 P:64 SP:FD
beforeNMI = 0 and afterNMI = 0
C1D9  D0 FC     BNE $C1D7                       A:01 X:00 Y:80 P:64 SP:FD
beforeNMI = 0 and afterNMI = 0
C1D7  A5 40     LDA $40 = 01                    A:01 X:00 Y:80 P:64 SP:FD
beforeNMI = 0 and afterNMI = 0
C1D9  D0 FC     BNE $C1D7                       A:01 X:00 Y:80 P:64 SP:FD
beforeNMI = 0 and afterNMI = 0
C1D7  A5 40     LDA $40 = 01                    A:01 X:00 Y:80 P:64 SP:FD
beforeNMI = 0 and afterNMI = 0
C1D9  D0 FC     BNE $C1D7                       A:01 X:00 Y:80 P:64 SP:FD
beforeNMI = 0 and afterNMI = 0
C1D7  A5 40     LDA $40 = 01                    A:01 X:00 Y:80 P:64 SP:FD
beforeNMI = 0 and afterNMI = 0
C1D9  D0 FC     BNE $C1D7                       A:01 X:00 Y:80 P:64 SP:FD
beforeNMI = 0 and afterNMI = 0
C1D7  A5 40     LDA $40 = 01                    A:01 X:00 Y:80 P:64 SP:FD
beforeNMI = 0 and afterNMI = 0
C1D9  D0 FC     BNE $C1D7                       A:01 X:00 Y:80 P:64 SP:FD
beforeNMI = 0 and afterNMI = 0
C1D7  A5 40     LDA $40 = 01                    A:01 X:00 Y:80 P:64 SP:FD
beforeNMI = 0 and afterNMI = 0
C1D9  D0 FC     BNE $C1D7                       A:01 X:00 Y:80 P:64 SP:FD
beforeNMI = 0 and afterNMI = 0
C1D7  A5 40     LDA $40 = 01                    A:01 X:00 Y:80 P:64 SP:FD
beforeNMI = 0 and afterNMI = 0
C1D9  D0 FC     BNE $C1D7                       A:01 X:00 Y:80 P:64 SP:FD
beforeNMI = 0 and afterNMI = 0
C1D7  A5 40     LDA $40 = 01                    A:01 X:00 Y:80 P:64 SP:FD
beforeNMI = 0 and afterNMI = 0
C1D9  D0 FC     BNE $C1D7                       A:01 X:00 Y:80 P:64 SP:FD
beforeNMI = 0 and afterNMI = 0
C1D7  A5 40     LDA $40 = 01                    A:01 X:00 Y:80 P:64 SP:FD
beforeNMI = 0 and afterNMI = 0
C1D9  D0 FC     BNE $C1D7                       A:01 X:00 Y:80 P:64 SP:FD
beforeNMI = 0 and afterNMI = 0
C1D7  A5 40     LDA $40 = 01                    A:01 X:00 Y:80 P:64 SP:FD
beforeNMI = 0 and afterNMI = 0
C1D9  D0 FC     BNE $C1D7                       A:01 X:00 Y:80 P:64 SP:FD
beforeNMI = 0 and afterNMI = 0
C1D7  A5 40     LDA $40 = 01                    A:01 X:00 Y:80 P:64 SP:FD
beforeNMI = 0 and afterNMI = 0
C1D9  D0 FC     BNE $C1D7                       A:01 X:00 Y:80 P:64 SP:FD
beforeNMI = 0 and afterNMI = 0
C1D7  A5 40     LDA $40 = 01                    A:01 X:00 Y:80 P:64 SP:FD
beforeNMI = 0 and afterNMI = 0
C1D9  D0 FC     BNE $C1D7                       A:01 X:00 Y:80 P:64 SP:FD
beforeNMI = 0 and afterNMI = 0
C1D7  A5 40     LDA $40 = 01                    A:01 X:00 Y:80 P:64 SP:FD
beforeNMI = 0 and afterNMI = 0
C1D9  D0 FC     BNE $C1D7                       A:01 X:00 Y:80 P:64 SP:FD
beforeNMI = 0 and afterNMI = 0
C1D7  A5 40     LDA $40 = 01                    A:01 X:00 Y:80 P:64 SP:FD
beforeNMI = 0 and afterNMI = 0
C1D9  D0 FC     BNE $C1D7                       A:01 X:00 Y:80 P:64 SP:FD
beforeNMI = 0 and afterNMI = 0
C1D7  A5 40     LDA $40 = 01                    A:01 X:00 Y:80 P:64 SP:FD
beforeNMI = 0 and afterNMI = 0
C1D9  D0 FC     BNE $C1D7                       A:01 X:00 Y:80 P:64 SP:FD
beforeNMI = 0 and afterNMI = 0
C1D7  A5 40     LDA $40 = 01                    A:01 X:00 Y:80 P:64 SP:FD
beforeNMI = 0 and afterNMI = 0
C1D9  D0 FC     BNE $C1D7                       A:01 X:00 Y:80 P:64 SP:FD
beforeNMI = 0 and afterNMI = 0
C1D7  A5 40     LDA $40 = 01                    A:01 X:00 Y:80 P:64 SP:FD
beforeNMI = 0 and afterNMI = 0
C1D9  D0 FC     BNE $C1D7                       A:01 X:00 Y:80 P:64 SP:FD
beforeNMI = 0 and afterNMI = 0
C1D7  A5 40     LDA $40 = 01                    A:01 X:00 Y:80 P:64 SP:FD
beforeNMI = 0 and afterNMI = 0
C1D9  D0 FC     BNE $C1D7                       A:01 X:00 Y:80 P:64 SP:FD
beforeNMI = 0 and afterNMI = 0
C1D7  A5 40     LDA $40 = 01                    A:01 X:00 Y:80 P:64 SP:FD
beforeNMI = 0 and afterNMI = 0
C1D9  D0 FC     BNE $C1D7                       A:01 X:00 Y:80 P:64 SP:FD
beforeNMI = 0 and afterNMI = 0
C1D7  A5 40     LDA $40 = 01                    A:01 X:00 Y:80 P:64 SP:FD
beforeNMI = 0 and afterNMI = 0
C1D9  D0 FC     BNE $C1D7                       A:01 X:00 Y:80 P:64 SP:FD
beforeNMI = 0 and afterNMI = 0
C1D7  A5 40     LDA $40 = 01                    A:01 X:00 Y:80 P:64 SP:FD
beforeNMI = 0 and afterNMI = 0
C1D9  D0 FC     BNE $C1D7                       A:01 X:00 Y:80 P:64 SP:FD
beforeNMI = 0 and afterNMI = 0
C1D7  A5 40     LDA $40 = 01                    A:01 X:00 Y:80 P:64 SP:FD
beforeNMI = 0 and afterNMI = 0
C1D9  D0 FC     BNE $C1D7                       A:01 X:00 Y:80 P:64 SP:FD
beforeNMI = 0 and afterNMI = 0
C1D7  A5 40     LDA $40 = 01                    A:01 X:00 Y:80 P:64 SP:FD
beforeNMI = 0 and afterNMI = 0
C1D9  D0 FC     BNE $C1D7                       A:01 X:00 Y:80 P:64 SP:FD
beforeNMI = 0 and afterNMI = 0
C1D7  A5 40     LDA $40 = 01                    A:01 X:00 Y:80 P:64 SP:FD
beforeNMI = 0 and afterNMI = 0
C1D9  D0 FC     BNE $C1D7                       A:01 X:00 Y:80 P:64 SP:FD
beforeNMI = 0 and afterNMI = 0
C1D7  A5 40     LDA $40 = 01                    A:01 X:00 Y:80 P:64 SP:FD
beforeNMI = 0 and afterNMI = 0
C1D9  D0 FC     BNE $C1D7                       A:01 X:00 Y:80 P:64 SP:FD
beforeNMI = 0 and afterNMI = 0
C1D7  A5 40     LDA $40 = 01                    A:01 X:00 Y:80 P:64 SP:FD
beforeNMI = 0 and afterNMI = 0
C1D9  D0 FC     BNE $C1D7                       A:01 X:00 Y:80 P:64 SP:FD
beforeNMI = 0 and afterNMI = 0
C1D7  A5 40     LDA $40 = 01                    A:01 X:00 Y:80 P:64 SP:FD
beforeNMI = 0 and afterNMI = 0
C1D9  D0 FC     BNE $C1D7                       A:01 X:00 Y:80 P:64 SP:FD
beforeNMI = 0 and afterNMI = 0
C1D7  A5 40     LDA $40 = 01                    A:01 X:00 Y:80 P:64 SP:FD
beforeNMI = 0 and afterNMI = 0
C1D9  D0 FC     BNE $C1D7                       A:01 X:00 Y:80 P:64 SP:FD
beforeNMI = 0 and afterNMI = 0
C1D7  A5 40     LDA $40 = 01                    A:01 X:00 Y:80 P:64 SP:FD
beforeNMI = 0 and afterNMI = 0
C1D9  D0 FC     BNE $C1D7                       A:01 X:00 Y:80 P:64 SP:FD
beforeNMI = 0 and afterNMI = 0
C1D7  A5 40     LDA $40 = 01                    A:01 X:00 Y:80 P:64 SP:FD
beforeNMI = 0 and afterNMI = 0
C1D9  D0 FC     BNE $C1D7                       A:01 X:00 Y:80 P:64 SP:FD
beforeNMI = 0 and afterNMI = 0
C1D7  A5 40     LDA $40 = 01                    A:01 X:00 Y:80 P:64 SP:FD
beforeNMI = 0 and afterNMI = 0
C1D9  D0 FC     BNE $C1D7                       A:01 X:00 Y:80 P:64 SP:FD
beforeNMI = 0 and afterNMI = 0
C1D7  A5 40     LDA $40 = 01                    A:01 X:00 Y:80 P:64 SP:FD
beforeNMI = 0 and afterNMI = 0
C1D9  D0 FC     BNE $C1D7                       A:01 X:00 Y:80 P:64 SP:FD
beforeNMI = 0 and afterNMI = 0
C1D7  A5 40     LDA $40 = 01                    A:01 X:00 Y:80 P:64 SP:FD
beforeNMI = 0 and afterNMI = 0
C1D9  D0 FC     BNE $C1D7                       A:01 X:00 Y:80 P:64 SP:FD
beforeNMI = 0 and afterNMI = 0
C1D7  A5 40     LDA $40 = 01                    A:01 X:00 Y:80 P:64 SP:FD
beforeNMI = 0 and afterNMI = 0
C1D9  D0 FC     BNE $C1D7                       A:01 X:00 Y:80 P:64 SP:FD
beforeNMI = 0 and afterNMI = 0
C1D7  A5 40     LDA $40 = 01                    A:01 X:00 Y:80 P:64 SP:FD
beforeNMI = 0 and afterNMI = 0
C1D9  D0 FC     BNE $C1D7                       A:01 X:00 Y:80 P:64 SP:FD
beforeNMI = 0 and afterNMI = 0
C1D7  A5 40     LDA $40 = 01                    A:01 X:00 Y:80 P:64 SP:FD
beforeNMI = 0 and afterNMI = 0
C1D9  D0 FC     BNE $C1D7                       A:01 X:00 Y:80 P:64 SP:FD
beforeNMI = 0 and afterNMI = 0
C1D7  A5 40     LDA $40 = 01                    A:01 X:00 Y:80 P:64 SP:FD
beforeNMI = 0 and afterNMI = 0
C1D9  D0 FC     BNE $C1D7                       A:01 X:00 Y:80 P:64 SP:FD
beforeNMI = 0 and afterNMI = 0
C1D7  A5 40     LDA $40 = 01                    A:01 X:00 Y:80 P:64 SP:FD
beforeNMI = 0 and afterNMI = 0
C1D9  D0 FC     BNE $C1D7                       A:01 X:00 Y:80 P:64 SP:FD
beforeNMI = 0 and afterNMI = 0
C1D7  A5 40     LDA $40 = 01                    A:01 X:00 Y:80 P:64 SP:FD
beforeNMI = 0 and afterNMI = 0
C1D9  D0 FC     BNE $C1D7                       A:01 X:00 Y:80 P:64 SP:FD
beforeNMI = 0 and afterNMI = 0
C1D7  A5 40     LDA $40 = 01                    A:01 X:00 Y:80 P:64 SP:FD
beforeNMI = 0 and afterNMI = 0
C1D9  D0 FC     BNE $C1D7                       A:01 X:00 Y:80 P:64 SP:FD
beforeNMI = 0 and afterNMI = 0
C1D7  A5 40     LDA $40 = 01                    A:01 X:00 Y:80 P:64 SP:FD
beforeNMI = 0 and afterNMI = 0
C1D9  D0 FC     BNE $C1D7                       A:01 X:00 Y:80 P:64 SP:FD
beforeNMI = 0 and afterNMI = 0
C1D7  A5 40     LDA $40 = 01                    A:01 X:00 Y:80 P:64 SP:FD
beforeNMI = 0 and afterNMI = 0
C1D9  D0 FC     BNE $C1D7                       A:01 X:00 Y:80 P:64 SP:FD
beforeNMI = 0 and afterNMI = 0
C1D7  A5 40     LDA $40 = 01                    A:01 X:00 Y:80 P:64 SP:FD
beforeNMI = 0 and afterNMI = 0
C1D9  D0 FC     BNE $C1D7                       A:01 X:00 Y:80 P:64 SP:FD
beforeNMI = 0 and afterNMI = 0
C1D7  A5 40     LDA $40 = 01                    A:01 X:00 Y:80 P:64 SP:FD
beforeNMI = 0 and afterNMI = 0
C1D9  D0 FC     BNE $C1D7                       A:01 X:00 Y:80 P:64 SP:FD
beforeNMI = 0 and afterNMI = 0
C1D7  A5 40     LDA $40 = 01                    A:01 X:00 Y:80 P:64 SP:FD
beforeNMI = 0 and afterNMI = 0
C1D9  D0 FC     BNE $C1D7                       A:01 X:00 Y:80 P:64 SP:FD
beforeNMI = 0 and afterNMI = 0
C1D7  A5 40     LDA $40 = 01                    A:01 X:00 Y:80 P:64 SP:FD
beforeNMI = 0 and afterNMI = 0
C1D9  D0 FC     BNE $C1D7                       A:01 X:00 Y:80 P:64 SP:FD
beforeNMI = 0 and afterNMI = 0
C1D7  A5 40     LDA $40 = 01                    A:01 X:00 Y:80 P:64 SP:FD
beforeNMI = 0 and afterNMI = 0
C1D9  D0 FC     BNE $C1D7                       A:01 X:00 Y:80 P:64 SP:FD
beforeNMI = 0 and afterNMI = 0
C1D7  A5 40     LDA $40 = 01                    A:01 X:00 Y:80 P:64 SP:FD
beforeNMI = 0 and afterNMI = 0
C1D9  D0 FC     BNE $C1D7                       A:01 X:00 Y:80 P:64 SP:FD
beforeNMI = 0 and afterNMI = 0
C1D7  A5 40     LDA $40 = 01                    A:01 X:00 Y:80 P:64 SP:FD
beforeNMI = 0 and afterNMI = 0
C1D9  D0 FC     BNE $C1D7                       A:01 X:00 Y:80 P:64 SP:FD
beforeNMI = 0 and afterNMI = 0
C1D7  A5 40     LDA $40 = 01                    A:01 X:00 Y:80 P:64 SP:FD
beforeNMI = 0 and afterNMI = 0
C1D9  D0 FC     BNE $C1D7                       A:01 X:00 Y:80 P:64 SP:FD
beforeNMI = 0 and afterNMI = 0
C1D7  A5 40     LDA $40 = 01                    A:01 X:00 Y:80 P:64 SP:FD
beforeNMI = 0 and afterNMI = 0
C1D9  D0 FC     BNE $C1D7                       A:01 X:00 Y:80 P:64 SP:FD
beforeNMI = 0 and afterNMI = 0
C1D7  A5 40     LDA $40 = 01                    A:01 X:00 Y:80 P:64 SP:FD
beforeNMI = 0 and afterNMI = 0
C1D9  D0 FC     BNE $C1D7                       A:01 X:00 Y:80 P:64 SP:FD
beforeNMI = 0 and afterNMI = 0
C1D7  A5 40     LDA $40 = 01                    A:01 X:00 Y:80 P:64 SP:FD
beforeNMI = 0 and afterNMI = 0
C1D9  D0 FC     BNE $C1D7                       A:01 X:00 Y:80 P:64 SP:FD
beforeNMI = 0 and afterNMI = 0
C1D7  A5 40     LDA $40 = 01                    A:01 X:00 Y:80 P:64 SP:FD
beforeNMI = 0 and afterNMI = 0
C1D9  D0 FC     BNE $C1D7                       A:01 X:00 Y:80 P:64 SP:FD
beforeNMI = 0 and afterNMI = 0
C1D7  A5 40     LDA $40 = 01                    A:01 X:00 Y:80 P:64 SP:FD
beforeNMI = 0 and afterNMI = 0
C1D9  D0 FC     BNE $C1D7                       A:01 X:00 Y:80 P:64 SP:FD
beforeNMI = 0 and afterNMI = 0
C1D7  A5 40     LDA $40 = 01                    A:01 X:00 Y:80 P:64 SP:FD
beforeNMI = 0 and afterNMI = 0
C1D9  D0 FC     BNE $C1D7                       A:01 X:00 Y:80 P:64 SP:FD
beforeNMI = 0 and afterNMI = 0
C1D7  A5 40     LDA $40 = 01                    A:01 X:00 Y:80 P:64 SP:FD
beforeNMI = 0 and afterNMI = 0
C1D9  D0 FC     BNE $C1D7                       A:01 X:00 Y:80 P:64 SP:FD
beforeNMI = 0 and afterNMI = 0
C1D7  A5 40     LDA $40 = 01                    A:01 X:00 Y:80 P:64 SP:FD
beforeNMI = 0 and afterNMI = 0
C1D9  D0 FC     BNE $C1D7                       A:01 X:00 Y:80 P:64 SP:FD
beforeNMI = 0 and afterNMI = 0
C1D7  A5 40     LDA $40 = 01                    A:01 X:00 Y:80 P:64 SP:FD
beforeNMI = 0 and afterNMI = 0
C1D9  D0 FC     BNE $C1D7                       A:01 X:00 Y:80 P:64 SP:FD
beforeNMI = 0 and afterNMI = 0
C1D7  A5 40     LDA $40 = 01                    A:01 X:00 Y:80 P:64 SP:FD
beforeNMI = 0 and afterNMI = 0
C1D9  D0 FC     BNE $C1D7                       A:01 X:00 Y:80 P:64 SP:FD
beforeNMI = 0 and afterNMI = 0
C1D7  A5 40     LDA $40 = 01                    A:01 X:00 Y:80 P:64 SP:FD
beforeNMI = 0 and afterNMI = 0
C1D9  D0 FC     BNE $C1D7                       A:01 X:00 Y:80 P:64 SP:FD
beforeNMI = 0 and afterNMI = 0
C1D7  A5 40     LDA $40 = 01                    A:01 X:00 Y:80 P:64 SP:FD
beforeNMI = 0 and afterNMI = 0
C1D9  D0 FC     BNE $C1D7                       A:01 X:00 Y:80 P:64 SP:FD
beforeNMI = 0 and afterNMI = 0
C1D7  A5 40     LDA $40 = 01                    A:01 X:00 Y:80 P:64 SP:FD
beforeNMI = 0 and afterNMI = 0
C1D9  D0 FC     BNE $C1D7                       A:01 X:00 Y:80 P:64 SP:FD
beforeNMI = 0 and afterNMI = 0
C1D7  A5 40     LDA $40 = 01                    A:01 X:00 Y:80 P:64 SP:FD
beforeNMI = 0 and afterNMI = 0
C1D9  D0 FC     BNE $C1D7                       A:01 X:00 Y:80 P:64 SP:FD
beforeNMI = 0 and afterNMI = 0
C1D7  A5 40     LDA $40 = 01                    A:01 X:00 Y:80 P:64 SP:FD
beforeNMI = 0 and afterNMI = 0
C1D9  D0 FC     BNE $C1D7                       A:01 X:00 Y:80 P:64 SP:FD
beforeNMI = 0 and afterNMI = 0
C1D7  A5 40     LDA $40 = 01                    A:01 X:00 Y:80 P:64 SP:FD
beforeNMI = 0 and afterNMI = 0
C1D9  D0 FC     BNE $C1D7                       A:01 X:00 Y:80 P:64 SP:FD
beforeNMI = 0 and afterNMI = 0
C1D7  A5 40     LDA $40 = 01                    A:01 X:00 Y:80 P:64 SP:FD
beforeNMI = 0 and afterNMI = 0
C1D9  D0 FC     BNE $C1D7                       A:01 X:00 Y:80 P:64 SP:FD
beforeNMI = 0 and afterNMI = 0
C1D7  A5 40     LDA $40 = 01                    A:01 X:00 Y:80 P:64 SP:FD
beforeNMI = 0 and afterNMI = 0
C1D9  D0 FC     BNE $C1D7                       A:01 X:00 Y:80 P:64 SP:FD
beforeNMI = 0 and afterNMI = 0
C1D7  A5 40     LDA $40 = 01                    A:01 X:00 Y:80 P:64 SP:FD
beforeNMI = 0 and afterNMI = 0
C1D9  D0 FC     BNE $C1D7                       A:01 X:00 Y:80 P:64 SP:FD
beforeNMI = 0 and afterNMI = 0
C1D7  A5 40     LDA $40 = 01                    A:01 X:00 Y:80 P:64 SP:FD
beforeNMI = 0 and afterNMI = 0
C1D9  D0 FC     BNE $C1D7                       A:01 X:00 Y:80 P:64 SP:FD
beforeNMI = 0 and afterNMI = 0
C1D7  A5 40     LDA $40 = 01                    A:01 X:00 Y:80 P:64 SP:FD
beforeNMI = 0 and afterNMI = 0
C1D9  D0 FC     BNE $C1D7                       A:01 X:00 Y:80 P:64 SP:FD
beforeNMI = 0 and afterNMI = 0
C1D7  A5 40     LDA $40 = 01                    A:01 X:00 Y:80 P:64 SP:FD
beforeNMI = 0 and afterNMI = 0
C1D9  D0 FC     BNE $C1D7                       A:01 X:00 Y:80 P:64 SP:FD
beforeNMI = 0 and afterNMI = 0
C1D7  A5 40     LDA $40 = 01                    A:01 X:00 Y:80 P:64 SP:FD
beforeNMI = 0 and afterNMI = 0
C1D9  D0 FC     BNE $C1D7                       A:01 X:00 Y:80 P:64 SP:FD
beforeNMI = 0 and afterNMI = 0
C1D7  A5 40     LDA $40 = 01                    A:01 X:00 Y:80 P:64 SP:FD
beforeNMI = 0 and afterNMI = 0
C1D9  D0 FC     BNE $C1D7                       A:01 X:00 Y:80 P:64 SP:FD
beforeNMI = 0 and afterNMI = 0
C1D7  A5 40     LDA $40 = 01                    A:01 X:00 Y:80 P:64 SP:FD
beforeNMI = 0 and afterNMI = 0
C1D9  D0 FC     BNE $C1D7                       A:01 X:00 Y:80 P:64 SP:FD
beforeNMI = 0 and afterNMI = 0
C1D7  A5 40     LDA $40 = 01                    A:01 X:00 Y:80 P:64 SP:FD
beforeNMI = 0 and afterNMI = 0
C1D9  D0 FC     BNE $C1D7                       A:01 X:00 Y:80 P:64 SP:FD
beforeNMI = 0 and afterNMI = 0
C1D7  A5 40     LDA $40 = 01                    A:01 X:00 Y:80 P:64 SP:FD
beforeNMI = 0 and afterNMI = 0
C1D9  D0 FC     BNE $C1D7                       A:01 X:00 Y:80 P:64 SP:FD
beforeNMI = 0 and afterNMI = 0
C1D7  A5 40     LDA $40 = 01                    A:01 X:00 Y:80 P:64 SP:FD
beforeNMI = 0 and afterNMI = 0
C1D9  D0 FC     BNE $C1D7                       A:01 X:00 Y:80 P:64 SP:FD
beforeNMI = 0 and afterNMI = 0
C1D7  A5 40     LDA $40 = 01                    A:01 X:00 Y:80 P:64 SP:FD
beforeNMI = 0 and afterNMI = 0
C1D9  D0 FC     BNE $C1D7                       A:01 X:00 Y:80 P:64 SP:FD
beforeNMI = 0 and afterNMI = 0
C1D7  A5 40     LDA $40 = 01                    A:01 X:00 Y:80 P:64 SP:FD
beforeNMI = 0 and afterNMI = 0
C1D9  D0 FC     BNE $C1D7                       A:01 X:00 Y:80 P:64 SP:FD
beforeNMI = 0 and afterNMI = 0
C1D7  A5 40     LDA $40 = 01                    A:01 X:00 Y:80 P:64 SP:FD
beforeNMI = 0 and afterNMI = 0
C1D9  D0 FC     BNE $C1D7                       A:01 X:00 Y:80 P:64 SP:FD
beforeNMI = 0 and afterNMI = 0
C1D7  A5 40     LDA $40 = 01                    A:01 X:00 Y:80 P:64 SP:FD
beforeNMI = 0 and afterNMI = 0
C1D9  D0 FC     BNE $C1D7                       A:01 X:00 Y:80 P:64 SP:FD
beforeNMI = 0 and afterNMI = 0
C1D7  A5 40     LDA $40 = 01                    A:01 X:00 Y:80 P:64 SP:FD
beforeNMI = 0 and afterNMI = 0
C1D9  D0 FC     BNE $C1D7                       A:01 X:00 Y:80 P:64 SP:FD
beforeNMI = 0 and afterNMI = 0
C1D7  A5 40     LDA $40 = 01                    A:01 X:00 Y:80 P:64 SP:FD
beforeNMI = 0 and afterNMI = 0
C1D9  D0 FC     BNE $C1D7                       A:01 X:00 Y:80 P:64 SP:FD
beforeNMI = 0 and afterNMI = 0
C1D7  A5 40     LDA $40 = 01                    A:01 X:00 Y:80 P:64 SP:FD
beforeNMI = 0 and afterNMI = 0
C1D9  D0 FC     BNE $C1D7                       A:01 X:00 Y:80 P:64 SP:FD
beforeNMI = 0 and afterNMI = 0
C1D7  A5 40     LDA $40 = 01                    A:01 X:00 Y:80 P:64 SP:FD
beforeNMI = 0 and afterNMI = 0
C1D9  D0 FC     BNE $C1D7                       A:01 X:00 Y:80 P:64 SP:FD
beforeNMI = 0 and afterNMI = 0
C1D7  A5 40     LDA $40 = 01                    A:01 X:00 Y:80 P:64 SP:FD
beforeNMI = 0 and afterNMI = 0
C1D9  D0 FC     BNE $C1D7                       A:01 X:00 Y:80 P:64 SP:FD
beforeNMI = 0 and afterNMI = 0
C1D7  A5 40     LDA $40 = 01                    A:01 X:00 Y:80 P:64 SP:FD
beforeNMI = 0 and afterNMI = 0
C1D9  D0 FC     BNE $C1D7                       A:01 X:00 Y:80 P:64 SP:FD
beforeNMI = 0 and afterNMI = 0
C1D7  A5 40     LDA $40 = 01                    A:01 X:00 Y:80 P:64 SP:FD
beforeNMI = 0 and afterNMI = 0
C1D9  D0 FC     BNE $C1D7                       A:01 X:00 Y:80 P:64 SP:FD
beforeNMI = 0 and afterNMI = 0
C1D7  A5 40     LDA $40 = 01                    A:01 X:00 Y:80 P:64 SP:FD
beforeNMI = 0 and afterNMI = 0
C1D9  D0 FC     BNE $C1D7                       A:01 X:00 Y:80 P:64 SP:FD
beforeNMI = 0 and afterNMI = 0
C1D7  A5 40     LDA $40 = 01                    A:01 X:00 Y:80 P:64 SP:FD
beforeNMI = 0 and afterNMI = 0
C1D9  D0 FC     BNE $C1D7                       A:01 X:00 Y:80 P:64 SP:FD
beforeNMI = 0 and afterNMI = 0
C1D7  A5 40     LDA $40 = 01                    A:01 X:00 Y:80 P:64 SP:FD
beforeNMI = 0 and afterNMI = 0
C1D9  D0 FC     BNE $C1D7                       A:01 X:00 Y:80 P:64 SP:FD
beforeNMI = 0 and afterNMI = 0
C1D7  A5 40     LDA $40 = 01                    A:01 X:00 Y:80 P:64 SP:FD
beforeNMI = 0 and afterNMI = 0
C1D9  D0 FC     BNE $C1D7                       A:01 X:00 Y:80 P:64 SP:FD
beforeNMI = 0 and afterNMI = 0
C1D7  A5 40     LDA $40 = 01                    A:01 X:00 Y:80 P:64 SP:FD
beforeNMI = 0 and afterNMI = 0
C1D9  D0 FC     BNE $C1D7                       A:01 X:00 Y:80 P:64 SP:FD
beforeNMI = 0 and afterNMI = 0
C1D7  A5 40     LDA $40 = 01                    A:01 X:00 Y:80 P:64 SP:FD
beforeNMI = 0 and afterNMI = 0
C1D9  D0 FC     BNE $C1D7                       A:01 X:00 Y:80 P:64 SP:FD
beforeNMI = 0 and afterNMI = 0
C1D7  A5 40     LDA $40 = 01                    A:01 X:00 Y:80 P:64 SP:FD
beforeNMI = 0 and afterNMI = 0
C1D9  D0 FC     BNE $C1D7                       A:01 X:00 Y:80 P:64 SP:FD
beforeNMI = 0 and afterNMI = 0
C1D7  A5 40     LDA $40 = 01                    A:01 X:00 Y:80 P:64 SP:FD
beforeNMI = 0 and afterNMI = 0
C1D9  D0 FC     BNE $C1D7                       A:01 X:00 Y:80 P:64 SP:FD
beforeNMI = 0 and afterNMI = 0
C1D7  A5 40     LDA $40 = 01                    A:01 X:00 Y:80 P:64 SP:FD
beforeNMI = 0 and afterNMI = 0
C1D9  D0 FC     BNE $C1D7                       A:01 X:00 Y:80 P:64 SP:FD
beforeNMI = 0 and afterNMI = 0
C1D7  A5 40     LDA $40 = 01                    A:01 X:00 Y:80 P:64 SP:FD
beforeNMI = 0 and afterNMI = 0
C1D9  D0 FC     BNE $C1D7                       A:01 X:00 Y:80 P:64 SP:FD
beforeNMI = 0 and afterNMI = 0
C1D7  A5 40     LDA $40 = 01                    A:01 X:00 Y:80 P:64 SP:FD
beforeNMI = 0 and afterNMI = 0
C1D9  D0 FC     BNE $C1D7                       A:01 X:00 Y:80 P:64 SP:FD
beforeNMI = 0 and afterNMI = 0
C1D7  A5 40     LDA $40 = 01                    A:01 X:00 Y:80 P:64 SP:FD
beforeNMI = 0 and afterNMI = 0
C1D9  D0 FC     BNE $C1D7                       A:01 X:00 Y:80 P:64 SP:FD
beforeNMI = 0 and afterNMI = 0
C1D7  A5 40     LDA $40 = 01                    A:01 X:00 Y:80 P:64 SP:FD
beforeNMI = 0 and afterNMI = 0
C1D9  D0 FC     BNE $C1D7                       A:01 X:00 Y:80 P:64 SP:FD
beforeNMI = 0 and afterNMI = 0
C1D7  A5 40     LDA $40 = 01                    A:01 X:00 Y:80 P:64 SP:FD
beforeNMI = 0 and afterNMI = 0
C1D9  D0 FC     BNE $C1D7                       A:01 X:00 Y:80 P:64 SP:FD
beforeNMI = 0 and afterNMI = 0
C1D7  A5 40     LDA $40 = 01                    A:01 X:00 Y:80 P:64 SP:FD
beforeNMI = 0 and afterNMI = 0
C1D9  D0 FC     BNE $C1D7                       A:01 X:00 Y:80 P:64 SP:FD
beforeNMI = 0 and afterNMI = 0
C1D7  A5 40     LDA $40 = 01                    A:01 X:00 Y:80 P:64 SP:FD
beforeNMI = 0 and afterNMI = 0
C1D9  D0 FC     BNE $C1D7                       A:01 X:00 Y:80 P:64 SP:FD
beforeNMI = 0 and afterNMI = 0
C1D7  A5 40     LDA $40 = 01                    A:01 X:00 Y:80 P:64 SP:FD
beforeNMI = 0 and afterNMI = 0
C1D9  D0 FC     BNE $C1D7                       A:01 X:00 Y:80 P:64 SP:FD
beforeNMI = 0 and afterNMI = 0
C1D7  A5 40     LDA $40 = 01                    A:01 X:00 Y:80 P:64 SP:FD
beforeNMI = 0 and afterNMI = 0
C1D9  D0 FC     BNE $C1D7                       A:01 X:00 Y:80 P:64 SP:FD
beforeNMI = 0 and afterNMI = 0
C1D7  A5 40     LDA $40 = 01                    A:01 X:00 Y:80 P:64 SP:FD
beforeNMI = 0 and afterNMI = 0
C1D9  D0 FC     BNE $C1D7                       A:01 X:00 Y:80 P:64 SP:FD
beforeNMI = 0 and afterNMI = 0
C1D7  A5 40     LDA $40 = 01                    A:01 X:00 Y:80 P:64 SP:FD
beforeNMI = 0 and afterNMI = 0
C1D9  D0 FC     BNE $C1D7                       A:01 X:00 Y:80 P:64 SP:FD
beforeNMI = 0 and afterNMI = 0
C1D7  A5 40     LDA $40 = 01                    A:01 X:00 Y:80 P:64 SP:FD
beforeNMI = 0 and afterNMI = 0
C1D9  D0 FC     BNE $C1D7                       A:01 X:00 Y:80 P:64 SP:FD
beforeNMI = 0 and afterNMI = 0
C1D7  A5 40     LDA $40 = 01                    A:01 X:00 Y:80 P:64 SP:FD
beforeNMI = 0 and afterNMI = 0
C1D9  D0 FC     BNE $C1D7                       A:01 X:00 Y:80 P:64 SP:FD
beforeNMI = 0 and afterNMI = 0
C1D7  A5 40     LDA $40 = 01                    A:01 X:00 Y:80 P:64 SP:FD
beforeNMI = 0 and afterNMI = 0
C1D9  D0 FC     BNE $C1D7                       A:01 X:00 Y:80 P:64 SP:FD
beforeNMI = 0 and afterNMI = 0
C1D7  A5 40     LDA $40 = 01                    A:01 X:00 Y:80 P:64 SP:FD
beforeNMI = 0 and afterNMI = 0
C1D9  D0 FC     BNE $C1D7                       A:01 X:00 Y:80 P:64 SP:FD
beforeNMI = 0 and afterNMI = 0
C1D7  A5 40     LDA $40 = 01                    A:01 X:00 Y:80 P:64 SP:FD
beforeNMI = 0 and afterNMI = 0
C1D9  D0 FC     BNE $C1D7                       A:01 X:00 Y:80 P:64 SP:FD
beforeNMI = 0 and afterNMI = 0
C1D7  A5 40     LDA $40 = 01                    A:01 X:00 Y:80 P:64 SP:FD
beforeNMI = 0 and afterNMI = 0
C1D9  D0 FC     BNE $C1D7                       A:01 X:00 Y:80 P:64 SP:FD
beforeNMI = 0 and afterNMI = 0
C1D7  A5 40     LDA $40 = 01                    A:01 X:00 Y:80 P:64 SP:FD
beforeNMI = 0 and afterNMI = 0
C1D9  D0 FC     BNE $C1D7                       A:01 X:00 Y:80 P:64 SP:FD
beforeNMI = 0 and afterNMI = 0
C1D7  A5 40     LDA $40 = 01                    A:01 X:00 Y:80 P:64 SP:FD
beforeNMI = 0 and afterNMI = 0
C1D9  D0 FC     BNE $C1D7                       A:01 X:00 Y:80 P:64 SP:FD
beforeNMI = 0 and afterNMI = 0
C1D7  A5 40     LDA $40 = 01                    A:01 X:00 Y:80 P:64 SP:FD
beforeNMI = 0 and afterNMI = 0
C1D9  D0 FC     BNE $C1D7                       A:01 X:00 Y:80 P:64 SP:FD
beforeNMI = 0 and afterNMI = 0
C1D7  A5 40     LDA $40 = 01                    A:01 X:00 Y:80 P:64 SP:FD
beforeNMI = 0 and afterNMI = 0
C1D9  D0 FC     BNE $C1D7                       A:01 X:00 Y:80 P:64 SP:FD
beforeNMI = 0 and afterNMI = 0
C1D7  A5 40     LDA $40 = 01                    A:01 X:00 Y:80 P:64 SP:FD
beforeNMI = 0 and afterNMI = 0
C1D9  D0 FC     BNE $C1D7                       A:01 X:00 Y:80 P:64 SP:FD
beforeNMI = 0 and afterNMI = 0
C1D7  A5 40     LDA $40 = 01                    A:01 X:00 Y:80 P:64 SP:FD
beforeNMI = 0 and afterNMI = 0
C1D9  D0 FC     BNE $C1D7                       A:01 X:00 Y:80 P:64 SP:FD
beforeNMI = 0 and afterNMI = 0
C1D7  A5 40     LDA $40 = 01                    A:01 X:00 Y:80 P:64 SP:FD
beforeNMI = 0 and afterNMI = 0
C1D9  D0 FC     BNE $C1D7                       A:01 X:00 Y:80 P:64 SP:FD
beforeNMI = 0 and afterNMI = 0
C1D7  A5 40     LDA $40 = 01                    A:01 X:00 Y:80 P:64 SP:FD
beforeNMI = 0 and afterNMI = 0
C1D9  D0 FC     BNE $C1D7                       A:01 X:00 Y:80 P:64 SP:FD
beforeNMI = 0 and afterNMI = 0
C1D7  A5 40     LDA $40 = 01                    A:01 X:00 Y:80 P:64 SP:FD
beforeNMI = 0 and afterNMI = 0
C1D9  D0 FC     BNE $C1D7                       A:01 X:00 Y:80 P:64 SP:FD
beforeNMI = 0 and afterNMI = 0
C1D7  A5 40     LDA $40 = 01                    A:01 X:00 Y:80 P:64 SP:FD
beforeNMI = 0 and afterNMI = 0
C1D9  D0 FC     BNE $C1D7                       A:01 X:00 Y:80 P:64 SP:FD
beforeNMI = 0 and afterNMI = 0
C1D7  A5 40     LDA $40 = 01                    A:01 X:00 Y:80 P:64 SP:FD
beforeNMI = 0 and afterNMI = 0
C1D9  D0 FC     BNE $C1D7                       A:01 X:00 Y:80 P:64 SP:FD
beforeNMI = 0 and afterNMI = 0
C1D7  A5 40     LDA $40 = 01                    A:01 X:00 Y:80 P:64 SP:FD
beforeNMI = 0 and afterNMI = 0
C1D9  D0 FC     BNE $C1D7                       A:01 X:00 Y:80 P:64 SP:FD
beforeNMI = 0 and afterNMI = 0
C1D7  A5 40     LDA $40 = 01                    A:01 X:00 Y:80 P:64 SP:FD
beforeNMI = 0 and afterNMI = 0
C1D9  D0 FC     BNE $C1D7                       A:01 X:00 Y:80 P:64 SP:FD
beforeNMI = 0 and afterNMI = 0
C1D7  A5 40     LDA $40 = 01                    A:01 X:00 Y:80 P:64 SP:FD
beforeNMI = 0 and afterNMI = 0
C1D9  D0 FC     BNE $C1D7                       A:01 X:00 Y:80 P:64 SP:FD
beforeNMI = 0 and afterNMI = 0
C1D7  A5 40     LDA $40 = 01                    A:01 X:00 Y:80 P:64 SP:FD
beforeNMI = 0 and afterNMI = 0
C1D9  D0 FC     BNE $C1D7                       A:01 X:00 Y:80 P:64 SP:FD
beforeNMI = 0 and afterNMI = 0
C1D7  A5 40     LDA $40 = 01                    A:01 X:00 Y:80 P:64 SP:FD
beforeNMI = 0 and afterNMI = 0
C1D9  D0 FC     BNE $C1D7                       A:01 X:00 Y:80 P:64 SP:FD
beforeNMI = 0 and afterNMI = 0
C1D7  A5 40     LDA $40 = 01                    A:01 X:00 Y:80 P:64 SP:FD
beforeNMI = 0 and afterNMI = 0
C1D9  D0 FC     BNE $C1D7                       A:01 X:00 Y:80 P:64 SP:FD
beforeNMI = 0 and afterNMI = 0
C1D7  A5 40     LDA $40 = 01                    A:01 X:00 Y:80 P:64 SP:FD
beforeNMI = 0 and afterNMI = 0
C1D9  D0 FC     BNE $C1D7                       A:01 X:00 Y:80 P:64 SP:FD
beforeNMI = 0 and afterNMI = 0
C1D7  A5 40     LDA $40 = 01                    A:01 X:00 Y:80 P:64 SP:FD
beforeNMI = 0 and afterNMI = 0
C1D9  D0 FC     BNE $C1D7                       A:01 X:00 Y:80 P:64 SP:FD
beforeNMI = 0 and afterNMI = 0
C1D7  A5 40     LDA $40 = 01                    A:01 X:00 Y:80 P:64 SP:FD
beforeNMI = 0 and afterNMI = 0
C1D9  D0 FC     BNE $C1D7                       A:01 X:00 Y:80 P:64 SP:FD
beforeNMI = 0 and afterNMI = 0
C1D7  A5 40     LDA $40 = 01                    A:01 X:00 Y:80 P:64 SP:FD
beforeNMI = 0 and afterNMI = 0
C1D9  D0 FC     BNE $C1D7                       A:01 X:00 Y:80 P:64 SP:FD
beforeNMI = 0 and afterNMI = 0
C1D7  A5 40     LDA $40 = 01                    A:01 X:00 Y:80 P:64 SP:FD
beforeNMI = 0 and afterNMI = 0
C1D9  D0 FC     BNE $C1D7                       A:01 X:00 Y:80 P:64 SP:FD
beforeNMI = 0 and afterNMI = 0
C1D7  A5 40     LDA $40 = 01                    A:01 X:00 Y:80 P:64 SP:FD
beforeNMI = 0 and afterNMI = 0
C1D9  D0 FC     BNE $C1D7                       A:01 X:00 Y:80 P:64 SP:FD
beforeNMI = 0 and afterNMI = 0
C1D7  A5 40     LDA $40 = 01                    A:01 X:00 Y:80 P:64 SP:FD
beforeNMI = 0 and afterNMI = 0
C1D9  D0 FC     BNE $C1D7                       A:01 X:00 Y:80 P:64 SP:FD
beforeNMI = 0 and afterNMI = 0
C1D7  A5 40     LDA $40 = 01                    A:01 X:00 Y:80 P:64 SP:FD
beforeNMI = 0 and afterNMI = 0
C1D9  D0 FC     BNE $C1D7                       A:01 X:00 Y:80 P:64 SP:FD
beforeNMI = 0 and afterNMI = 0
C1D7  A5 40     LDA $40 = 01                    A:01 X:00 Y:80 P:64 SP:FD
beforeNMI = 0 and afterNMI = 0
C1D9  D0 FC     BNE $C1D7                       A:01 X:00 Y:80 P:64 SP:FD
beforeNMI = 0 and afterNMI = 0
C1D7  A5 40     LDA $40 = 01                    A:01 X:00 Y:80 P:64 SP:FD
beforeNMI = 0 and afterNMI = 0
C1D9  D0 FC     BNE $C1D7                       A:01 X:00 Y:80 P:64 SP:FD
beforeNMI = 0 and afterNMI = 0
C1D7  A5 40     LDA $40 = 01                    A:01 X:00 Y:80 P:64 SP:FD
beforeNMI = 0 and afterNMI = 0
C1D9  D0 FC     BNE $C1D7                       A:01 X:00 Y:80 P:64 SP:FD
beforeNMI = 0 and afterNMI = 0
C1D7  A5 40     LDA $40 = 01                    A:01 X:00 Y:80 P:64 SP:FD
beforeNMI = 0 and afterNMI = 0
C1D9  D0 FC     BNE $C1D7                       A:01 X:00 Y:80 P:64 SP:FD
beforeNMI = 0 and afterNMI = 0
C1D7  A5 40     LDA $40 = 01                    A:01 X:00 Y:80 P:64 SP:FD
beforeNMI = 0 and afterNMI = 0
C1D9  D0 FC     BNE $C1D7                       A:01 X:00 Y:80 P:64 SP:FD
beforeNMI = 0 and afterNMI = 0
C1D7  A5 40     LDA $40 = 01                    A:01 X:00 Y:80 P:64 SP:FD
beforeNMI = 0 and afterNMI = 0
C1D9  D0 FC     BNE $C1D7                       A:01 X:00 Y:80 P:64 SP:FD
beforeNMI = 0 and afterNMI = 0
C1D7  A5 40     LDA $40 = 01                    A:01 X:00 Y:80 P:64 SP:FD
beforeNMI = 0 and afterNMI = 0
C1D9  D0 FC     BNE $C1D7                       A:01 X:00 Y:80 P:64 SP:FD
beforeNMI = 0 and afterNMI = 0
C1D7  A5 40     LDA $40 = 01                    A:01 X:00 Y:80 P:64 SP:FD
beforeNMI = 0 and afterNMI = 0
C1D9  D0 FC     BNE $C1D7                       A:01 X:00 Y:80 P:64 SP:FD
beforeNMI = 0 and afterNMI = 0
C1D7  A5 40     LDA $40 = 01                    A:01 X:00 Y:80 P:64 SP:FD
beforeNMI = 0 and afterNMI = 0
C1D9  D0 FC     BNE $C1D7                       A:01 X:00 Y:80 P:64 SP:FD
beforeNMI = 0 and afterNMI = 0
C1D7  A5 40     LDA $40 = 01                    A:01 X:00 Y:80 P:64 SP:FD
beforeNMI = 0 and afterNMI = 0
C1D9  D0 FC     BNE $C1D7                       A:01 X:00 Y:80 P:64 SP:FD
beforeNMI = 0 and afterNMI = 0
C1D7  A5 40     LDA $40 = 01                    A:01 X:00 Y:80 P:64 SP:FD
beforeNMI = 0 and afterNMI = 0
C1D9  D0 FC     BNE $C1D7                       A:01 X:00 Y:80 P:64 SP:FD
beforeNMI = 0 and afterNMI = 0
C1D7  A5 40     LDA $40 = 01                    A:01 X:00 Y:80 P:64 SP:FD
beforeNMI = 0 and afterNMI = 0
C1D9  D0 FC     BNE $C1D7                       A:01 X:00 Y:80 P:64 SP:FD
beforeNMI = 0 and afterNMI = 0
C1D7  A5 40     LDA $40 = 01                    A:01 X:00 Y:80 P:64 SP:FD
beforeNMI = 0 and afterNMI = 0
C1D9  D0 FC     BNE $C1D7                       A:01 X:00 Y:80 P:64 SP:FD
beforeNMI = 0 and afterNMI = 0
C1D7  A5 40     LDA $40 = 01                    A:01 X:00 Y:80 P:64 SP:FD
beforeNMI = 0 and afterNMI = 0
C1D9  D0 FC     BNE $C1D7                       A:01 X:00 Y:80 P:64 SP:FD
beforeNMI = 0 and afterNMI = 0
C1D7  A5 40     LDA $40 = 01                    A:01 X:00 Y:80 P:64 SP:FD
beforeNMI = 0 and afterNMI = 0
C1D9  D0 FC     BNE $C1D7                       A:01 X:00 Y:80 P:64 SP:FD
beforeNMI = 0 and afterNMI = 0
C1D7  A5 40     LDA $40 = 01                    A:01 X:00 Y:80 P:64 SP:FD
beforeNMI = 0 and afterNMI = 0
C1D9  D0 FC     BNE $C1D7                       A:01 X:00 Y:80 P:64 SP:FD
beforeNMI = 0 and afterNMI = 0
C1D7  A5 40     LDA $40 = 01                    A:01 X:00 Y:80 P:64 SP:FD
beforeNMI = 0 and afterNMI = 0
C1D9  D0 FC     BNE $C1D7                       A:01 X:00 Y:80 P:64 SP:FD
beforeNMI = 0 and afterNMI = 0
C1D7  A5 40     LDA $40 = 01                    A:01 X:00 Y:80 P:64 SP:FD
beforeNMI = 0 and afterNMI = 0
C1D9  D0 FC     BNE $C1D7                       A:01 X:00 Y:80 P:64 SP:FD
beforeNMI = 0 and afterNMI = 0
C1D7  A5 40     LDA $40 = 01                    A:01 X:00 Y:80 P:64 SP:FD
beforeNMI = 0 and afterNMI = 0
C1D9  D0 FC     BNE $C1D7                       A:01 X:00 Y:80 P:64 SP:FD
beforeNMI = 0 and afterNMI = 0
C1D7  A5 40     LDA $40 = 01                    A:01 X:00 Y:80 P:64 SP:FD
beforeNMI = 0 and afterNMI = 0
C1D9  D0 FC     BNE $C1D7                       A:01 X:00 Y:80 P:64 SP:FD
beforeNMI = 0 and afterNMI = 0
C1D7  A5 40     LDA $40 = 01                    A:01 X:00 Y:80 P:64 SP:FD
beforeNMI = 0 and afterNMI = 0
C1D9  D0 FC     BNE $C1D7                       A:01 X:00 Y:80 P:64 SP:FD
beforeNMI = 0 and afterNMI = 0
C1D7  A5 40     LDA $40 = 01                    A:01 X:00 Y:80 P:64 SP:FD
beforeNMI = 0 and afterNMI = 0
C1D9  D0 FC     BNE $C1D7                       A:01 X:00 Y:80 P:64 SP:FD
beforeNMI = 0 and afterNMI = 0
C1D7  A5 40     LDA $40 = 01                    A:01 X:00 Y:80 P:64 SP:FD
beforeNMI = 0 and afterNMI = 0
C1D9  D0 FC     BNE $C1D7                       A:01 X:00 Y:80 P:64 SP:FD
beforeNMI = 0 and afterNMI = 0
C1D7  A5 40     LDA $40 = 01                    A:01 X:00 Y:80 P:64 SP:FD
beforeNMI = 0 and afterNMI = 0
C1D9  D0 FC     BNE $C1D7                       A:01 X:00 Y:80 P:64 SP:FD
beforeNMI = 0 and afterNMI = 0
C1D7  A5 40     LDA $40 = 01                    A:01 X:00 Y:80 P:64 SP:FD
beforeNMI = 0 and afterNMI = 0
C1D9  D0 FC     BNE $C1D7                       A:01 X:00 Y:80 P:64 SP:FD
beforeNMI = 0 and afterNMI = 0
C1D7  A5 40     LDA $40 = 01                    A:01 X:00 Y:80 P:64 SP:FD
beforeNMI = 0 and afterNMI = 0
C1D9  D0 FC     BNE $C1D7                       A:01 X:00 Y:80 P:64 SP:FD
beforeNMI = 0 and afterNMI = 0
C1D7  A5 40     LDA $40 = 01                    A:01 X:00 Y:80 P:64 SP:FD
beforeNMI = 0 and afterNMI = 0
C1D9  D0 FC     BNE $C1D7                       A:01 X:00 Y:80 P:64 SP:FD
beforeNMI = 0 and afterNMI = 0
C1D7  A5 40     LDA $40 = 01                    A:01 X:00 Y:80 P:64 SP:FD
beforeNMI = 0 and afterNMI = 0
C1D9  D0 FC     BNE $C1D7                       A:01 X:00 Y:80 P:64 SP:FD
beforeNMI = 0 and afterNMI = 0
C1D7  A5 40     LDA $40 = 01                    A:01 X:00 Y:80 P:64 SP:FD
beforeNMI = 0 and afterNMI = 0
C1D9  D0 FC     BNE $C1D7                       A:01 X:00 Y:80 P:64 SP:FD
beforeNMI = 0 and afterNMI = 0
C1D7  A5 40     LDA $40 = 01                    A:01 X:00 Y:80 P:64 SP:FD
beforeNMI = 0 and afterNMI = 0
C1D9  D0 FC     BNE $C1D7                       A:01 X:00 Y:80 P:64 SP:FD
beforeNMI = 0 and afterNMI = 0
C1D7  A5 40     LDA $40 = 01                    A:01 X:00 Y:80 P:64 SP:FD
beforeNMI = 0 and afterNMI = 0
C1D9  D0 FC     BNE $C1D7                       A:01 X:00 Y:80 P:64 SP:FD
beforeNMI = 0 and afterNMI = 0
C1D7  A5 40     LDA $40 = 01                    A:01 X:00 Y:80 P:64 SP:FD
beforeNMI = 0 and afterNMI = 0
C1D9  D0 FC     BNE $C1D7                       A:01 X:00 Y:80 P:64 SP:FD
beforeNMI = 0 and afterNMI = 0
C1D7  A5 40     LDA $40 = 01                    A:01 X:00 Y:80 P:64 SP:FD
beforeNMI = 0 and afterNMI = 0
C1D9  D0 FC     BNE $C1D7                       A:01 X:00 Y:80 P:64 SP:FD
beforeNMI = 0 and afterNMI = 0
C1D7  A5 40     LDA $40 = 01                    A:01 X:00 Y:80 P:64 SP:FD
beforeNMI = 0 and afterNMI = 0
C1D9  D0 FC     BNE $C1D7                       A:01 X:00 Y:80 P:64 SP:FD
beforeNMI = 0 and afterNMI = 0
C1D7  A5 40     LDA $40 = 01                    A:01 X:00 Y:80 P:64 SP:FD
beforeNMI = 0 and afterNMI = 0
C1D9  D0 FC     BNE $C1D7                       A:01 X:00 Y:80 P:64 SP:FD
beforeNMI = 0 and afterNMI = 0
C1D7  A5 40     LDA $40 = 01                    A:01 X:00 Y:80 P:64 SP:FD
beforeNMI = 0 and afterNMI = 0
C1D9  D0 FC     BNE $C1D7                       A:01 X:00 Y:80 P:64 SP:FD
beforeNMI = 0 and afterNMI = 0
C1D7  A5 40     LDA $40 = 01                    A:01 X:00 Y:80 P:64 SP:FD
beforeNMI = 0 and afterNMI = 0
C1D9  D0 FC     BNE $C1D7                       A:01 X:00 Y:80 P:64 SP:FD
beforeNMI = 0 and afterNMI = 0
C1D7  A5 40     LDA $40 = 01                    A:01 X:00 Y:80 P:64 SP:FD
beforeNMI = 0 and afterNMI = 0
C1D9  D0 FC     BNE $C1D7                       A:01 X:00 Y:80 P:64 SP:FD
beforeNMI = 0 and afterNMI = 0
C1D7  A5 40     LDA $40 = 01                    A:01 X:00 Y:80 P:64 SP:FD
beforeNMI = 0 and afterNMI = 0
C1D9  D0 FC     BNE $C1D7                       A:01 X:00 Y:80 P:64 SP:FD
beforeNMI = 0 and afterNMI = 0
C1D7  A5 40     LDA $40 = 01                    A:01 X:00 Y:80 P:64 SP:FD
beforeNMI = 0 and afterNMI = 0
C1D9  D0 FC     BNE $C1D7                       A:01 X:00 Y:80 P:64 SP:FD
beforeNMI = 0 and afterNMI = 0
C1D7  A5 40     LDA $40 = 01                    A:01 X:00 Y:80 P:64 SP:FD
beforeNMI = 0 and afterNMI = 0
C1D9  D0 FC     BNE $C1D7                       A:01 X:00 Y:80 P:64 SP:FD
beforeNMI = 0 and afterNMI = 0
C1D7  A5 40     LDA $40 = 01                    A:01 X:00 Y:80 P:64 SP:FD
beforeNMI = 0 and afterNMI = 0
C1D9  D0 FC     BNE $C1D7                       A:01 X:00 Y:80 P:64 SP:FD
beforeNMI = 0 and afterNMI = 0
C1D7  A5 40     LDA $40 = 01                    A:01 X:00 Y:80 P:64 SP:FD
beforeNMI = 0 and afterNMI = 0
C1D9  D0 FC     BNE $C1D7                       A:01 X:00 Y:80 P:64 SP:FD
beforeNMI = 0 and afterNMI = 0
C1D7  A5 40     LDA $40 = 01                    A:01 X:00 Y:80 P:64 SP:FD
beforeNMI = 0 and afterNMI = 0
C1D9  D0 FC     BNE $C1D7                       A:01 X:00 Y:80 P:64 SP:FD
beforeNMI = 0 and afterNMI = 0
C1D7  A5 40     LDA $40 = 01                    A:01 X:00 Y:80 P:64 SP:FD
beforeNMI = 0 and afterNMI = 0
C1D9  D0 FC     BNE $C1D7                       A:01 X:00 Y:80 P:64 SP:FD
beforeNMI = 0 and afterNMI = 0
C1D7  A5 40     LDA $40 = 01                    A:01 X:00 Y:80 P:64 SP:FD
beforeNMI = 0 and afterNMI = 0
C1D9  D0 FC     BNE $C1D7                       A:01 X:00 Y:80 P:64 SP:FD
beforeNMI = 0 and afterNMI = 0
C1D7  A5 40     LDA $40 = 01                    A:01 X:00 Y:80 P:64 SP:FD
beforeNMI = 0 and afterNMI = 0
C1D9  D0 FC     BNE $C1D7                       A:01 X:00 Y:80 P:64 SP:FD
beforeNMI = 0 and afterNMI = 0
C1D7  A5 40     LDA $40 = 01                    A:01 X:00 Y:80 P:64 SP:FD
beforeNMI = 0 and afterNMI = 0
C1D9  D0 FC     BNE $C1D7                       A:01 X:00 Y:80 P:64 SP:FD
beforeNMI = 0 and afterNMI = 0
C1D7  A5 40     LDA $40 = 01                    A:01 X:00 Y:80 P:64 SP:FD
beforeNMI = 0 and afterNMI = 0
C1D9  D0 FC     BNE $C1D7                       A:01 X:00 Y:80 P:64 SP:FD
beforeNMI = 0 and afterNMI = 0
C1D7  A5 40     LDA $40 = 01                    A:01 X:00 Y:80 P:64 SP:FD
beforeNMI = 0 and afterNMI = 0
C1D9  D0 FC     BNE $C1D7                       A:01 X:00 Y:80 P:64 SP:FD
beforeNMI = 0 and afterNMI = 0
C1D7  A5 40     LDA $40 = 01                    A:01 X:00 Y:80 P:64 SP:FD
beforeNMI = 0 and afterNMI = 0
C1D9  D0 FC     BNE $C1D7                       A:01 X:00 Y:80 P:64 SP:FD
beforeNMI = 0 and afterNMI = 0
C1D7  A5 40     LDA $40 = 01                    A:01 X:00 Y:80 P:64 SP:FD
beforeNMI = 0 and afterNMI = 0
C1D9  D0 FC     BNE $C1D7                       A:01 X:00 Y:80 P:64 SP:FD
beforeNMI = 0 and afterNMI = 0
C1D7  A5 40     LDA $40 = 01                    A:01 X:00 Y:80 P:64 SP:FD
beforeNMI = 0 and afterNMI = 0
C1D9  D0 FC     BNE $C1D7                       A:01 X:00 Y:80 P:64 SP:FD
beforeNMI = 0 and afterNMI = 0
C1D7  A5 40     LDA $40 = 01                    A:01 X:00 Y:80 P:64 SP:FD
beforeNMI = 0 and afterNMI = 0
C1D9  D0 FC     BNE $C1D7                       A:01 X:00 Y:80 P:64 SP:FD
beforeNMI = 0 and afterNMI = 0
C1D7  A5 40     LDA $40 = 01                    A:01 X:00 Y:80 P:64 SP:FD
beforeNMI = 0 and afterNMI = 0
C1D9  D0 FC     BNE $C1D7                       A:01 X:00 Y:80 P:64 SP:FD
beforeNMI = 0 and afterNMI = 0
C1D7  A5 40     LDA $40 = 01                    A:01 X:00 Y:80 P:64 SP:FD
beforeNMI = 0 and afterNMI = 0
C1D9  D0 FC     BNE $C1D7                       A:01 X:00 Y:80 P:64 SP:FD
beforeNMI = 0 and afterNMI = 0
C1D7  A5 40     LDA $40 = 01                    A:01 X:00 Y:80 P:64 SP:FD
beforeNMI = 0 and afterNMI = 0
C1D9  D0 FC     BNE $C1D7                       A:01 X:00 Y:80 P:64 SP:FD
beforeNMI = 0 and afterNMI = 0
C1D7  A5 40     LDA $40 = 01                    A:01 X:00 Y:80 P:64 SP:FD
beforeNMI = 0 and afterNMI = 0
C1D9  D0 FC     BNE $C1D7                       A:01 X:00 Y:80 P:64 SP:FD
beforeNMI = 0 and afterNMI = 0
C1D7  A5 40     LDA $40 = 01                    A:01 X:00 Y:80 P:64 SP:FD
beforeNMI = 0 and afterNMI = 0
C1D9  D0 FC     BNE $C1D7                       A:01 X:00 Y:80 P:64 SP:FD
beforeNMI = 0 and afterNMI = 0
C1D7  A5 40     LDA $40 = 01                    A:01 X:00 Y:80 P:64 SP:FD
beforeNMI = 0 and afterNMI = 0
C1D9  D0 FC     BNE $C1D7                       A:01 X:00 Y:80 P:64 SP:FD
beforeNMI = 0 and afterNMI = 0
C1D7  A5 40     LDA $40 = 01                    A:01 X:00 Y:80 P:64 SP:FD
beforeNMI = 0 and afterNMI = 0
C1D9  D0 FC     BNE $C1D7                       A:01 X:00 Y:80 P:64 SP:FD
beforeNMI = 0 and afterNMI = 0
C1D7  A5 40     LDA $40 = 01                    A:01 X:00 Y:80 P:64 SP:FD
beforeNMI = 0 and afterNMI = 0
C1D9  D0 FC     BNE $C1D7                       A:01 X:00 Y:80 P:64 SP:FD
beforeNMI = 0 and afterNMI = 0
C1D7  A5 40     LDA $40 = 01                    A:01 X:00 Y:80 P:64 SP:FD
beforeNMI = 0 and afterNMI = 0
C1D9  D0 FC     BNE $C1D7                       A:01 X:00 Y:80 P:64 SP:FD
beforeNMI = 0 and afterNMI = 0
C1D7  A5 40     LDA $40 = 01                    A:01 X:00 Y:80 P:64 SP:FD
beforeNMI = 0 and afterNMI = 0
C1D9  D0 FC     BNE $C1D7                       A:01 X:00 Y:80 P:64 SP:FD
beforeNMI = 0 and afterNMI = 0
C1D7  A5 40     LDA $40 = 01                    A:01 X:00 Y:80 P:64 SP:FD
beforeNMI = 0 and afterNMI = 0
C1D9  D0 FC     BNE $C1D7                       A:01 X:00 Y:80 P:64 SP:FD
beforeNMI = 0 and afterNMI = 0
C1D7  A5 40     LDA $40 = 01                    A:01 X:00 Y:80 P:64 SP:FD
beforeNMI = 0 and afterNMI = 0
C1D9  D0 FC     BNE $C1D7                       A:01 X:00 Y:80 P:64 SP:FD
beforeNMI = 0 and afterNMI = 0
C1D7  A5 40     LDA $40 = 01                    A:01 X:00 Y:80 P:64 SP:FD
beforeNMI = 0 and afterNMI = 0
C1D9  D0 FC     BNE $C1D7                       A:01 X:00 Y:80 P:64 SP:FD
beforeNMI = 0 and afterNMI = 0
C1D7  A5 40     LDA $40 = 01                    A:01 X:00 Y:80 P:64 SP:FD
beforeNMI = 0 and afterNMI = 0
C1D9  D0 FC     BNE $C1D7                       A:01 X:00 Y:80 P:64 SP:FD
beforeNMI = 0 and afterNMI = 0
C1D7  A5 40     LDA $40 = 01                    A:01 X:00 Y:80 P:64 SP:FD
beforeNMI = 0 and afterNMI = 0
C1D9  D0 FC     BNE $C1D7                       A:01 X:00 Y:80 P:64 SP:FD
beforeNMI = 0 and afterNMI = 0
C1D7  A5 40     LDA $40 = 01                    A:01 X:00 Y:80 P:64 SP:FD
beforeNMI = 0 and afterNMI = 0
C1D9  D0 FC     BNE $C1D7                       A:01 X:00 Y:80 P:64 SP:FD
beforeNMI = 0 and afterNMI = 0
C1D7  A5 40     LDA $40 = 01                    A:01 X:00 Y:80 P:64 SP:FD
beforeNMI = 0 and afterNMI = 0
C1D9  D0 FC     BNE $C1D7                       A:01 X:00 Y:80 P:64 SP:FD
beforeNMI = 0 and afterNMI = 0
C1D7  A5 40     LDA $40 = 01                    A:01 X:00 Y:80 P:64 SP:FD
beforeNMI = 0 and afterNMI = 0
C1D9  D0 FC     BNE $C1D7                       A:01 X:00 Y:80 P:64 SP:FD
beforeNMI = 0 and afterNMI = 0
C1D7  A5 40     LDA $40 = 01                    A:01 X:00 Y:80 P:64 SP:FD
beforeNMI = 0 and afterNMI = 0
C1D9  D0 FC     BNE $C1D7                       A:01 X:00 Y:80 P:64 SP:FD
beforeNMI = 0 and afterNMI = 0
C1D7  A5 40     LDA $40 = 01                    A:01 X:00 Y:80 P:64 SP:FD
beforeNMI = 0 and afterNMI = 0
C1D9  D0 FC     BNE $C1D7                       A:01 X:00 Y:80 P:64 SP:FD
beforeNMI = 0 and afterNMI = 0
C1D7  A5 40     LDA $40 = 01                    A:01 X:00 Y:80 P:64 SP:FD
beforeNMI = 0 and afterNMI = 0
C1D9  D0 FC     BNE $C1D7                       A:01 X:00 Y:80 P:64 SP:FD
beforeNMI = 0 and afterNMI = 0
C1D7  A5 40     LDA $40 = 01                    A:01 X:00 Y:80 P:64 SP:FD
beforeNMI = 0 and afterNMI = 0
C1D9  D0 FC     BNE $C1D7                       A:01 X:00 Y:80 P:64 SP:FD
beforeNMI = 0 and afterNMI = 0
C1D7  A5 40     LDA $40 = 01                    A:01 X:00 Y:80 P:64 SP:FD
beforeNMI = 0 and afterNMI = 0
C1D9  D0 FC     BNE $C1D7                       A:01 X:00 Y:80 P:64 SP:FD
beforeNMI = 0 and afterNMI = 0
C1D7  A5 40     LDA $40 = 01                    A:01 X:00 Y:80 P:64 SP:FD
beforeNMI = 0 and afterNMI = 0
C1D9  D0 FC     BNE $C1D7                       A:01 X:00 Y:80 P:64 SP:FD
beforeNMI = 0 and afterNMI = 0
C1D7  A5 40     LDA $40 = 01                    A:01 X:00 Y:80 P:64 SP:FD
beforeNMI = 0 and afterNMI = 0
C1D9  D0 FC     BNE $C1D7                       A:01 X:00 Y:80 P:64 SP:FD
beforeNMI = 0 and afterNMI = 0
C1D7  A5 40     LDA $40 = 01                    A:01 X:00 Y:80 P:64 SP:FD
beforeNMI = 0 and afterNMI = 0
C1D9  D0 FC     BNE $C1D7                       A:01 X:00 Y:80 P:64 SP:FD
beforeNMI = 0 and afterNMI = 0
C1D7  A5 40     LDA $40 = 01                    A:01 X:00 Y:80 P:64 SP:FD
beforeNMI = 0 and afterNMI = 0
C1D9  D0 FC     BNE $C1D7                       A:01 X:00 Y:80 P:64 SP:FD
beforeNMI = 0 and afterNMI = 0
C1D7  A5 40     LDA $40 = 01                    A:01 X:00 Y:80 P:64 SP:FD
beforeNMI = 0 and afterNMI = 0
C1D9  D0 FC     BNE $C1D7                       A:01 X:00 Y:80 P:64 SP:FD
beforeNMI = 0 and afterNMI = 0
C1D7  A5 40     LDA $40 = 01                    A:01 X:00 Y:80 P:64 SP:FD
beforeNMI = 0 and afterNMI = 0
C1D9  D0 FC     BNE $C1D7                       A:01 X:00 Y:80 P:64 SP:FD
beforeNMI = 0 and afterNMI = 0
C1D7  A5 40     LDA $40 = 01                    A:01 X:00 Y:80 P:64 SP:FD
beforeNMI = 0 and afterNMI = 0
C1D9  D0 FC     BNE $C1D7                       A:01 X:00 Y:80 P:64 SP:FD
beforeNMI = 0 and afterNMI = 0
C1D7  A5 40     LDA $40 = 01                    A:01 X:00 Y:80 P:64 SP:FD
beforeNMI = 0 and afterNMI = 0
C1D9  D0 FC     BNE $C1D7                       A:01 X:00 Y:80 P:64 SP:FD
beforeNMI = 0 and afterNMI = 0
C1D7  A5 40     LDA $40 = 01                    A:01 X:00 Y:80 P:64 SP:FD
beforeNMI = 0 and afterNMI = 0
C1D9  D0 FC     BNE $C1D7                       A:01 X:00 Y:80 P:64 SP:FD
beforeNMI = 0 and afterNMI = 0
C1D7  A5 40     LDA $40 = 01                    A:01 X:00 Y:80 P:64 SP:FD
beforeNMI = 0 and afterNMI = 0
C1D9  D0 FC     BNE $C1D7                       A:01 X:00 Y:80 P:64 SP:FD
beforeNMI = 0 and afterNMI = 0
C1D7  A5 40     LDA $40 = 01                    A:01 X:00 Y:80 P:64 SP:FD
beforeNMI = 0 and afterNMI = 0
C1D9  D0 FC     BNE $C1D7                       A:01 X:00 Y:80 P:64 SP:FD
beforeNMI = 0 and afterNMI = 0
C1D7  A5 40     LDA $40 = 01                    A:01 X:00 Y:80 P:64 SP:FD
beforeNMI = 0 and afterNMI = 0
C1D9  D0 FC     BNE $C1D7                       A:01 X:00 Y:80 P:64 SP:FD
beforeNMI = 0 and afterNMI = 0
C1D7  A5 40     LDA $40 = 01                    A:01 X:00 Y:80 P:64 SP:FD
beforeNMI = 0 and afterNMI = 0
C1D9  D0 FC     BNE $C1D7                       A:01 X:00 Y:80 P:64 SP:FD
beforeNMI = 0 and afterNMI = 0
C1D7  A5 40     LDA $40 = 01                    A:01 X:00 Y:80 P:64 SP:FD
beforeNMI = 0 and afterNMI = 0
C1D9  D0 FC     BNE $C1D7                       A:01 X:00 Y:80 P:64 SP:FD
beforeNMI = 0 and afterNMI = 0
C1D7  A5 40     LDA $40 = 01                    A:01 X:00 Y:80 P:64 SP:FD
beforeNMI = 0 and afterNMI = 0
C1D9  D0 FC     BNE $C1D7                       A:01 X:00 Y:80 P:64 SP:FD
beforeNMI = 0 and afterNMI = 0
C1D7  A5 40     LDA $40 = 01                    A:01 X:00 Y:80 P:64 SP:FD
beforeNMI = 0 and afterNMI = 0
C1D9  D0 FC     BNE $C1D7                       A:01 X:00 Y:80 P:64 SP:FD
beforeNMI = 0 and afterNMI = 0
C1D7  A5 40     LDA $40 = 01                    A:01 X:00 Y:80 P:64 SP:FD
beforeNMI = 0 and afterNMI = 0
C1D9  D0 FC     BNE $C1D7                       A:01 X:00 Y:80 P:64 SP:FD
beforeNMI = 0 and afterNMI = 0
C1D7  A5 40     LDA $40 = 01                    A:01 X:00 Y:80 P:64 SP:FD
beforeNMI = 0 and afterNMI = 0
C1D9  D0 FC     BNE $C1D7                       A:01 X:00 Y:80 P:64 SP:FD
beforeNMI = 0 and afterNMI = 0
C1D7  A5 40     LDA $40 = 01                    A:01 X:00 Y:80 P:64 SP:FD
beforeNMI = 0 and afterNMI = 0
C1D9  D0 FC     BNE $C1D7                       A:01 X:00 Y:80 P:64 SP:FD
beforeNMI = 0 and afterNMI = 0
C1D7  A5 40     LDA $40 = 01                    A:01 X:00 Y:80 P:64 SP:FD
beforeNMI = 0 and afterNMI = 0
C1D9  D0 FC     BNE $C1D7                       A:01 X:00 Y:80 P:64 SP:FD
beforeNMI = 0 and afterNMI = 0
C1D7  A5 40     LDA $40 = 01                    A:01 X:00 Y:80 P:64 SP:FD
beforeNMI = 0 and afterNMI = 0
C1D9  D0 FC     BNE $C1D7                       A:01 X:00 Y:80 P:64 SP:FD
beforeNMI = 0 and afterNMI = 0
C1D7  A5 40     LDA $40 = 01                    A:01 X:00 Y:80 P:64 SP:FD
beforeNMI = 0 and afterNMI = 0
C1D9  D0 FC     BNE $C1D7                       A:01 X:00 Y:80 P:64 SP:FD
beforeNMI = 0 and afterNMI = 0
C1D7  A5 40     LDA $40 = 01                    A:01 X:00 Y:80 P:64 SP:FD
beforeNMI = 0 and afterNMI = 0
C1D9  D0 FC     BNE $C1D7                       A:01 X:00 Y:80 P:64 SP:FD
beforeNMI = 0 and afterNMI = 0
C1D7  A5 40     LDA $40 = 01                    A:01 X:00 Y:80 P:64 SP:FD
beforeNMI = 0 and afterNMI = 0
C1D9  D0 FC     BNE $C1D7                       A:01 X:00 Y:80 P:64 SP:FD
beforeNMI = 0 and afterNMI = 0
C1D7  A5 40     LDA $40 = 01                    A:01 X:00 Y:80 P:64 SP:FD
beforeNMI = 0 and afterNMI = 0
C1D9  D0 FC     BNE $C1D7                       A:01 X:00 Y:80 P:64 SP:FD
beforeNMI = 0 and afterNMI = 0
C1D7  A5 40     LDA $40 = 01                    A:01 X:00 Y:80 P:64 SP:FD
beforeNMI = 0 and afterNMI = 0
C1D9  D0 FC     BNE $C1D7                       A:01 X:00 Y:80 P:64 SP:FD
beforeNMI = 0 and afterNMI = 0
C1D7  A5 40     LDA $40 = 01                    A:01 X:00 Y:80 P:64 SP:FD
beforeNMI = 0 and afterNMI = 0
C1D9  D0 FC     BNE $C1D7                       A:01 X:00 Y:80 P:64 SP:FD
beforeNMI = 0 and afterNMI = 0
C1D7  A5 40     LDA $40 = 01                    A:01 X:00 Y:80 P:64 SP:FD
beforeNMI = 0 and afterNMI = 0
C1D9  D0 FC     BNE $C1D7                       A:01 X:00 Y:80 P:64 SP:FD
beforeNMI = 0 and afterNMI = 0
C1D7  A5 40     LDA $40 = 01                    A:01 X:00 Y:80 P:64 SP:FD
beforeNMI = 0 and afterNMI = 0
C1D9  D0 FC     BNE $C1D7                       A:01 X:00 Y:80 P:64 SP:FD
beforeNMI = 0 and afterNMI = 0
C1D7  A5 40     LDA $40 = 01                    A:01 X:00 Y:80 P:64 SP:FD
beforeNMI = 0 and afterNMI = 0
C1D9  D0 FC     BNE $C1D
